(dp0
(I10
S'get HB0-4-LeakageCurrent[1-64]_f_rr'
p1
tp2
(lp3
F7.808
aF5.124
aF5.368
aF4.392
aF1.708
aF1.708
aF7.808
aF4.148
aF6.1
aF2.196
aF5.612
aF4.88
aF4.88
aF2.684
aF5.612
aF1.708
aF3.416
aF4.148
aF4.636
aF8.052
aF6.1
aF5.368
aF2.928
aF2.928
aF6.344
aF4.88
aF5.368
aF2.196
aF2.928
aF2.44
aF1.952
aF4.392
aF8.296
aF1.952
aF6.588
aF8.784
aF3.416
aF4.636
aF4.392
aF2.196
aF4.392
aF6.832
aF7.32
aF8.54
aF5.124
aF4.148
aF4.148
aF3.66
aF4.148
aF1.952
aF1.708
aF2.196
aF1.708
aF2.44
aF1.952
aF6.588
aF8.54
aF2.196
aF6.344
aF4.636
aF4.636
aF2.684
aF4.148
aF2.928
as(I60
S'get HB0-4-biasmon[1-64]_f_rr'
p4
tp5
(lp6
F59.9365
aF59.956
aF59.9365
aF59.956
aF59.9365
aF59.917
aF59.9365
aF59.917
aF59.956
aF59.956
aF59.956
aF59.956
aF59.9365
aF59.9365
aF59.9365
aF59.9365
aF59.9365
aF59.9365
aF59.9365
aF59.9365
aF59.9365
aF59.9365
aF59.9365
aF59.9365
aF59.9365
aF59.956
aF59.9365
aF59.9365
aF59.9365
aF59.9365
aF59.9365
aF59.956
aF59.956
aF59.956
aF59.956
aF59.956
aF59.956
aF59.9365
aF59.9365
aF59.9365
aF59.9365
aF59.956
aF59.9365
aF59.956
aF59.9365
aF59.9365
aF59.9365
aF59.9365
aF59.956
aF59.956
aF59.956
aF59.956
aF59.9365
aF59.956
aF59.9365
aF59.9365
aF59.956
aF59.956
aF59.956
aF59.956
aF59.9365
aF59.917
aF59.9365
aF59.9365
as(I35
S'put HB0-4-biasvoltage[1-64]_f 64*35.000000'
p7
tp8
(lp9
S'OK'
p10
as(I20
S'put HB0-4-biasvoltage[1-64]_f 64*20.000000'
p11
tp12
(lp13
S'OK'
p14
as(I40
S'get HB0-4-LeakageCurrent[1-64]_f_rr'
p15
tp16
(lp17
F12.444
aF9.76
aF10.248
aF9.272
aF4.88
aF5.612
aF12.688
aF8.784
aF10.98
aF6.832
aF10.248
aF9.516
aF9.272
aF7.32
aF10.492
aF5.856
aF8.052
aF9.028
aF9.516
aF12.688
aF10.98
aF9.516
aF7.076
aF7.808
aF11.224
aF9.516
aF10.248
aF6.344
aF7.32
aF7.076
aF6.588
aF8.784
aF13.42
aF1.952
aF11.468
aF17.812
aF8.052
aF9.516
aF9.272
aF6.588
aF9.028
aF11.224
aF12.2
aF13.42
aF9.516
aF8.784
aF8.784
aF7.808
aF8.54
aF5.856
aF4.148
aF6.832
aF6.1
aF7.32
aF6.344
aF10.98
aF13.664
aF6.832
aF10.736
aF9.516
aF8.784
aF7.32
aF8.54
aF7.808
as(I15
S'put HB0-4-biasvoltage[1-64]_f 64*15.000000'
p18
tp19
(lp20
S'OK'
p21
as(I25
S'put HB0-4-biasvoltage[1-64]_f 64*25.000000'
p22
tp23
(lp24
S'OK'
p25
as(I50
S'get HB0-4-biasmon[1-64]_f_rr'
p26
tp27
(lp28
F49.9536
aF49.9731
aF49.9536
aF49.9536
aF49.9536
aF49.9341
aF49.9536
aF49.9536
aF49.9731
aF49.9731
aF49.9536
aF49.9731
aF49.9536
aF49.9536
aF49.9536
aF49.9536
aF49.9536
aF49.9536
aF49.9536
aF49.9536
aF49.9536
aF49.9536
aF49.9536
aF49.9536
aF49.9536
aF49.9536
aF49.9536
aF49.9536
aF49.9536
aF49.9536
aF49.9536
aF49.9731
aF49.9731
aF49.9731
aF49.9731
aF49.9731
aF49.9536
aF49.9536
aF49.9536
aF49.9536
aF49.9536
aF49.9536
aF49.9536
aF49.9731
aF49.9536
aF49.9536
aF49.9536
aF49.9536
aF49.9731
aF49.9731
aF49.9731
aF49.9536
aF49.9536
aF49.9731
aF49.9536
aF49.9536
aF49.9731
aF49.9536
aF49.9731
aF49.9731
aF49.9341
aF49.9341
aF49.9536
aF49.9341
as(I50
S'get HB0-4-LeakageCurrent[1-64]_f_rr'
p29
tp30
(lp31
F13.908
aF11.468
aF11.956
aF10.736
aF6.588
aF7.076
aF14.152
aF10.248
aF12.444
aF8.296
aF11.712
aF10.98
aF10.736
aF8.54
aF11.956
aF7.32
aF9.76
aF10.736
aF10.98
aF14.396
aF12.444
aF11.224
aF8.784
aF9.272
aF12.932
aF11.224
aF11.712
aF7.808
aF8.784
aF8.54
aF8.296
aF10.492
aF15.128
aF1.952
aF13.176
aF20.984
aF9.516
aF11.224
aF10.736
aF8.052
aF10.492
aF12.688
aF13.908
aF14.884
aF10.98
aF10.492
aF10.492
aF9.516
aF10.004
aF7.564
aF5.856
aF8.54
aF7.808
aF8.784
aF7.808
aF12.444
aF15.128
aF8.54
aF12.444
aF11.224
aF10.492
aF8.784
aF10.248
aF9.272
as(I30
S'put HB0-4-biasvoltage[1-64]_f 64*30.000000'
p32
tp33
(lp34
S'OK'
p35
as(I40
S'get HB0-4-biasmon[1-64]_f_rr'
p36
tp37
(lp38
F39.9902
aF39.9902
aF39.9902
aF39.9902
aF39.9902
aF39.9707
aF39.9902
aF39.9707
aF39.9902
aF39.9902
aF39.9902
aF39.9902
aF39.9902
aF39.9902
aF39.9707
aF39.9902
aF39.9902
aF39.9902
aF39.9902
aF39.9902
aF39.9707
aF39.9902
aF39.9707
aF39.9902
aF39.9902
aF39.9902
aF39.9902
aF39.9902
aF39.9707
aF39.9902
aF39.9902
aF39.9902
aF39.9902
aF39.9902
aF39.9902
aF39.9902
aF39.9902
aF39.9902
aF39.9902
aF39.9902
aF39.9902
aF39.9902
aF39.9902
aF39.9902
aF39.9902
aF39.9902
aF39.9707
aF39.9902
aF39.9902
aF39.9902
aF39.9902
aF39.9902
aF39.9902
aF39.9902
aF39.9902
aF39.9902
aF39.9902
aF39.9902
aF39.9902
aF39.9902
aF39.9707
aF39.9707
aF39.9902
aF39.9707
as(I30
S'get HB0-4-LeakageCurrent[1-64]_f_rr'
p39
tp40
(lp41
F10.736
aF8.296
aF8.784
aF7.564
aF3.416
aF3.904
aF10.98
aF7.076
aF9.516
aF5.124
aF8.784
aF7.808
aF7.808
aF5.612
aF8.784
aF4.148
aF6.588
aF7.564
aF7.808
aF11.224
aF9.516
aF8.052
aF5.612
aF6.1
aF9.76
aF8.052
aF8.54
aF4.636
aF5.856
aF5.368
aF5.124
aF7.32
aF11.956
aF1.952
aF10.004
aF14.64
aF6.588
aF8.052
aF7.564
aF5.124
aF7.32
aF9.76
aF10.736
aF11.956
aF8.052
aF7.32
aF7.32
aF6.588
aF6.832
aF4.392
aF2.928
aF5.368
aF4.636
aF5.856
aF4.636
aF9.272
aF11.956
aF5.368
aF9.272
aF7.808
aF7.32
aF5.856
aF7.076
aF6.1
as(I35
S'get HB0-4-biasmon[1-64]_f_rr'
p42
tp43
(lp44
F35.0085
aF35.0281
aF35.0085
aF35.0281
aF35.0085
aF35.0085
aF35.0085
aF35.0085
aF35.0281
aF35.0281
aF35.0281
aF35.0281
aF35.0085
aF35.0085
aF35.0085
aF35.0085
aF35.0085
aF35.0085
aF35.0085
aF35.0085
aF35.0085
aF35.0085
aF35.0085
aF35.0085
aF35.0085
aF35.0281
aF35.0085
aF35.0085
aF35.0085
aF35.0085
aF35.0085
aF35.0085
aF35.0281
aF35.0281
aF35.0281
aF35.0281
aF35.0085
aF35.0085
aF35.0085
aF35.0085
aF35.0085
aF35.0085
aF35.0085
aF35.0281
aF35.0085
aF35.0085
aF35.0085
aF35.0085
aF35.0281
aF35.0281
aF35.0281
aF35.0085
aF35.0085
aF35.0281
aF35.0085
aF35.0085
aF35.0281
aF35.0085
aF35.0281
aF35.0281
aF35.0085
aF35.0085
aF35.0085
aF35.0085
as(I15
S'get HB0-4-LeakageCurrent[1-64]_f_rr'
p45
tp46
(lp47
F8.54
aF5.856
aF6.344
aF5.368
aF1.708
aF1.952
aF8.784
aF4.88
aF7.076
aF2.928
aF6.588
aF5.612
aF5.612
aF3.416
aF6.588
aF1.952
aF4.148
aF5.124
aF5.612
aF8.54
aF7.076
aF5.856
aF3.416
aF3.904
aF7.32
aF5.856
aF6.344
aF2.44
aF3.172
aF3.172
aF2.928
aF5.124
aF9.516
aF1.952
aF7.564
aF10.004
aF4.148
aF5.612
aF5.612
aF3.172
aF4.88
aF7.564
aF8.296
aF9.516
aF5.856
aF5.124
aF5.124
aF4.148
aF4.636
aF2.44
aF1.708
aF3.172
aF2.196
aF3.416
aF2.44
aF7.076
aF9.516
aF3.172
aF7.076
aF5.612
aF5.124
aF3.416
aF4.88
aF3.66
as(I15
S'get HB0-4-biasmon[1-64]_f_rr'
p48
tp49
(lp50
F15.0427
aF15.0427
aF15.0427
aF15.0427
aF15.0427
aF15.0232
aF15.0427
aF15.0232
aF15.0427
aF15.0427
aF15.0427
aF15.0427
aF15.0232
aF15.0427
aF15.0232
aF15.0427
aF15.0427
aF15.0427
aF15.0427
aF15.0427
aF15.0427
aF15.0427
aF15.0427
aF15.0427
aF15.0427
aF15.0427
aF15.0427
aF15.0427
aF15.0232
aF15.0427
aF15.0427
aF15.0427
aF15.0427
aF15.0427
aF15.0232
aF15.0427
aF15.0427
aF15.0427
aF15.0427
aF15.0427
aF15.0427
aF15.0427
aF15.0427
aF15.0427
aF15.0427
aF15.0427
aF15.0427
aF15.0427
aF15.0427
aF15.0427
aF15.0427
aF15.0427
aF15.0232
aF15.0427
aF15.0427
aF15.0427
aF15.0427
aF15.0427
aF15.0427
aF15.0427
aF15.0232
aF15.0427
aF15.0427
aF15.0427
as(I0
S'get HB0-4-biasmon[1-64]_f_rr'
p51
tp52
(lp53
F0.0586081
aF0.0586081
aF0.0586081
aF0.0586081
aF0.0586081
aF0.0586081
aF0.0586081
aF0.0586081
aF0.0586081
aF0.0586081
aF0.0586081
aF0.0586081
aF0.0586081
aF0.0586081
aF0.0586081
aF0.0586081
aF0.0586081
aF0.0586081
aF0.0586081
aF0.0586081
aF0.0586081
aF0.0586081
aF0.0586081
aF0.0586081
aF0.0586081
aF0.0586081
aF0.0586081
aF0.0586081
aF0.0586081
aF0.0586081
aF0.0586081
aF0.0586081
aF0.0586081
aF0.0586081
aF0.0586081
aF0.0586081
aF0.0586081
aF0.0586081
aF0.0586081
aF0.0586081
aF0.0586081
aF0.0586081
aF0.0586081
aF0.0586081
aF0.0586081
aF0.0586081
aF0.0586081
aF0.0586081
aF0.0586081
aF0.0586081
aF0.0586081
aF0.0586081
aF0.0586081
aF0.0586081
aF0.0586081
aF0.0586081
aF0.0586081
aF0.0586081
aF0.0586081
aF0.0586081
aF0.0586081
aF0.0586081
aF0.0586081
aF0.0586081
as(I25
S'get HB0-4-LeakageCurrent[1-64]_f_rr'
p54
tp55
(lp56
F10.004
aF7.564
aF8.052
aF6.832
aF2.684
aF3.172
aF10.248
aF6.344
aF8.54
aF4.392
aF8.052
aF6.832
aF7.076
aF4.88
aF8.052
aF3.416
aF5.856
aF6.832
aF7.32
aF10.492
aF8.54
aF7.32
aF4.88
aF5.612
aF9.028
aF7.32
aF7.808
aF3.904
aF4.88
aF4.636
aF4.392
aF6.588
aF10.98
aF1.952
aF9.028
aF13.176
aF5.856
aF7.32
aF7.076
aF4.392
aF6.588
aF8.784
aF9.76
aF10.98
aF7.32
aF6.588
aF6.588
aF5.368
aF6.1
aF3.66
aF1.952
aF4.636
aF3.904
aF4.88
aF3.904
aF8.54
aF11.224
aF4.636
aF8.54
aF7.076
aF6.588
aF5.124
aF6.344
aF5.368
as(I25
S'get HB0-4-biasmon[1-64]_f_rr'
p57
tp58
(lp59
F25.0256
aF25.0452
aF25.0256
aF25.0256
aF25.0256
aF25.0061
aF25.0256
aF25.0256
aF25.0256
aF25.0256
aF25.0256
aF25.0256
aF25.0256
aF25.0256
aF25.0256
aF25.0256
aF25.0256
aF25.0256
aF25.0256
aF25.0256
aF25.0256
aF25.0256
aF25.0256
aF25.0256
aF25.0256
aF25.0256
aF25.0256
aF25.0256
aF25.0061
aF25.0256
aF25.0256
aF25.0256
aF25.0256
aF25.0256
aF25.0256
aF25.0256
aF25.0256
aF25.0256
aF25.0256
aF25.0256
aF25.0256
aF25.0256
aF25.0256
aF25.0256
aF25.0256
aF25.0256
aF25.0256
aF25.0256
aF25.0256
aF25.0256
aF25.0256
aF25.0256
aF25.0256
aF25.0256
aF25.0256
aF25.0256
aF25.0452
aF25.0256
aF25.0256
aF25.0256
aF25.0256
aF25.0256
aF25.0256
aF25.0256
as(I5
S'get HB0-4-LeakageCurrent[1-64]_f_rr'
p60
tp61
(lp62
F7.564
aF4.636
aF5.368
aF4.392
aF1.708
aF1.708
aF7.076
aF3.172
aF6.1
aF1.708
aF5.124
aF4.392
aF3.66
aF1.708
aF4.88
aF1.708
aF2.928
aF4.148
aF4.636
aF6.832
aF5.124
aF4.148
aF1.708
aF2.928
aF5.368
aF4.636
aF4.636
aF1.708
aF2.196
aF1.708
aF1.952
aF3.904
aF7.564
aF1.952
aF5.856
aF7.564
aF2.928
aF3.66
aF3.66
aF1.708
aF3.904
aF5.612
aF7.32
aF8.296
aF3.66
aF3.66
aF4.148
aF2.196
aF2.928
aF1.708
aF1.708
aF1.708
aF1.708
aF2.196
aF1.708
aF5.612
aF8.296
aF1.708
aF5.612
aF3.904
aF3.172
aF2.196
aF2.684
aF2.928
as(I5
S'get HB0-4-biasmon[1-64]_f_rr'
p63
tp64
(lp65
F5.04029
aF5.05983
aF5.05983
aF5.05983
aF5.05983
aF5.04029
aF5.05983
aF5.05983
aF5.05983
aF5.05983
aF5.05983
aF5.05983
aF5.05983
aF5.05983
aF5.04029
aF5.05983
aF5.05983
aF5.05983
aF5.05983
aF5.05983
aF5.05983
aF5.05983
aF5.04029
aF5.05983
aF5.05983
aF5.05983
aF5.05983
aF5.05983
aF5.04029
aF5.05983
aF5.05983
aF5.05983
aF5.05983
aF5.05983
aF5.05983
aF5.05983
aF5.05983
aF5.05983
aF5.05983
aF5.05983
aF5.05983
aF5.05983
aF5.05983
aF5.05983
aF5.05983
aF5.05983
aF5.05983
aF5.05983
aF5.05983
aF5.05983
aF5.05983
aF5.05983
aF5.05983
aF5.05983
aF5.05983
aF5.05983
aF5.05983
aF5.05983
aF5.05983
aF5.05983
aF5.05983
aF5.04029
aF5.05983
aF5.05983
as(I55
S'get HB0-4-LeakageCurrent[1-64]_f_rr'
p66
tp67
(lp68
F14.64
aF12.2
aF12.688
aF11.468
aF7.32
aF7.808
aF14.884
aF10.98
aF13.42
aF9.272
aF12.688
aF11.712
aF11.712
aF9.516
aF12.688
aF8.052
aF10.492
aF11.224
aF11.712
aF15.128
aF13.42
aF11.956
aF9.516
aF10.004
aF13.664
aF11.956
aF12.444
aF8.54
aF9.516
aF9.272
aF8.784
aF11.224
aF15.86
aF1.952
aF13.908
aF22.448
aF10.492
aF11.956
aF11.712
aF9.028
aF11.224
aF13.664
aF14.64
aF15.86
aF11.956
aF11.224
aF11.224
aF10.004
aF10.98
aF8.052
aF6.588
aF9.272
aF8.54
aF9.516
aF8.54
aF13.42
aF15.86
aF9.272
aF13.176
aF11.956
aF11.224
aF9.516
aF11.224
aF10.004
as(I55
S'get HB0-4-biasmon[1-64]_f_rr'
p69
tp70
(lp71
F54.9353
aF54.9548
aF54.9548
aF54.9548
aF54.9548
aF54.9353
aF54.9548
aF54.9353
aF54.9548
aF54.9548
aF54.9548
aF54.9548
aF54.9548
aF54.9548
aF54.9353
aF54.9548
aF54.9548
aF54.9548
aF54.9548
aF54.9548
aF54.9353
aF54.9353
aF54.9353
aF54.9548
aF54.9548
aF54.9548
aF54.9548
aF54.9548
aF54.9353
aF54.9353
aF54.9548
aF54.9548
aF54.9548
aF54.9548
aF54.9548
aF54.9744
aF54.9548
aF54.9548
aF54.9548
aF54.9353
aF54.9548
aF54.9548
aF54.9548
aF54.9548
aF54.9548
aF54.9548
aF54.9353
aF54.9548
aF54.9548
aF54.9548
aF54.9548
aF54.9548
aF54.9353
aF54.9548
aF54.9548
aF54.9548
aF54.9548
aF54.9548
aF54.9744
aF54.9548
aF54.9353
aF54.9353
aF54.9353
aF54.9353
as(I45
S'put HB0-4-biasvoltage[1-64]_f 64*45.000000'
p72
tp73
(lp74
S'OK'
p75
as(I45
S'get HB0-4-LeakageCurrent[1-64]_f_rr'
p76
tp77
(lp78
F12.932
aF10.736
aF11.224
aF10.004
aF5.856
aF6.344
aF13.42
aF9.516
aF11.712
aF7.564
aF10.98
aF10.248
aF10.004
aF8.052
aF11.224
aF6.588
aF8.784
aF9.76
aF10.248
aF13.664
aF11.712
aF10.492
aF8.052
aF8.54
aF12.2
aF10.492
aF10.98
aF7.076
aF8.052
aF7.564
aF7.32
aF9.516
aF14.396
aF1.952
aF12.2
aF19.276
aF8.784
aF10.248
aF10.004
aF7.32
aF9.76
aF11.956
aF12.932
aF14.152
aF10.492
aF9.76
aF9.516
aF8.784
aF9.272
aF6.832
aF5.124
aF7.808
aF6.832
aF7.808
aF7.076
aF11.712
aF14.396
aF7.564
aF11.712
aF10.492
aF9.516
aF8.052
aF9.516
aF8.54
as(I45
S'get HB0-4-biasmon[1-64]_f_rr'
p79
tp80
(lp81
F44.9524
aF44.9719
aF44.9719
aF44.9719
aF44.9524
aF44.9524
aF44.9524
aF44.9524
aF44.9719
aF44.9719
aF44.9719
aF44.9719
aF44.9524
aF44.9719
aF44.9524
aF44.9719
aF44.9524
aF44.9719
aF44.9524
aF44.9719
aF44.9524
aF44.9524
aF44.9524
aF44.9719
aF44.9524
aF44.9719
aF44.9719
aF44.9719
aF44.9524
aF44.9524
aF44.9719
aF44.9719
aF44.9719
aF44.9719
aF44.9719
aF44.9719
aF44.9719
aF44.9719
aF44.9719
aF44.9524
aF44.9719
aF44.9719
aF44.9719
aF44.9719
aF44.9719
aF44.9719
aF44.9524
aF44.9719
aF44.9719
aF44.9719
aF44.9719
aF44.9719
aF44.9524
aF44.9719
aF44.9524
aF44.9719
aF44.9915
aF44.9719
aF44.9719
aF44.9719
aF44.9524
aF44.9524
aF44.9524
aF44.9524
as(I40
S'put HB0-4-biasvoltage[1-64]_f 64*40.000000'
p82
tp83
(lp84
S'OK'
p85
as(I60
S'get HB0-4-LeakageCurrent[1-64]_f_rr'
p86
tp87
(lp88
F15.128
aF13.176
aF13.42
aF12.444
aF8.052
aF8.54
aF15.616
aF11.712
aF14.152
aF10.004
aF13.42
aF12.688
aF12.444
aF10.248
aF13.42
aF8.784
aF11.224
aF11.956
aF12.688
aF15.86
aF14.152
aF12.688
aF10.248
aF10.98
aF14.64
aF12.688
aF13.42
aF9.516
aF10.492
aF10.004
aF9.76
aF11.956
aF16.592
aF1.952
aF14.64
aF24.156
aF11.224
aF12.688
aF12.444
aF9.76
aF11.956
aF14.396
aF15.372
aF16.592
aF12.688
aF11.956
aF11.956
aF10.98
aF11.712
aF9.028
aF7.32
aF10.004
aF9.272
aF10.248
aF9.272
aF14.152
aF16.592
aF10.004
aF13.908
aF12.688
aF11.956
aF10.492
aF11.712
aF10.736
as(I60
S'put HB0-4-biasvoltage[1-64]_f 64*60.000000'
p89
tp90
(lp91
S'OK'
p92
as(I50
S'put HB0-4-biasvoltage[1-64]_f 64*50.000000'
p93
tp94
(lp95
S'OK'
p96
as(I55
S'put HB0-4-biasvoltage[1-64]_f 64*55.000000'
p97
tp98
(lp99
S'OK'
p100
as(I30
S'get HB0-4-biasmon[1-64]_f_rr'
p101
tp102
(lp103
F30.0269
aF30.0269
aF30.0269
aF30.0269
aF30.0073
aF30.0073
aF30.0073
aF30.0073
aF30.0269
aF30.0269
aF30.0269
aF30.0269
aF30.0073
aF30.0073
aF30.0073
aF30.0269
aF30.0269
aF30.0269
aF30.0073
aF30.0269
aF30.0073
aF30.0269
aF30.0073
aF30.0269
aF30.0269
aF30.0269
aF30.0269
aF30.0269
aF30.0073
aF30.0269
aF30.0269
aF30.0269
aF30.0269
aF30.0269
aF30.0269
aF30.0269
aF30.0269
aF30.0269
aF30.0269
aF30.0269
aF30.0269
aF30.0269
aF30.0269
aF30.0269
aF30.0269
aF30.0269
aF30.0073
aF30.0269
aF30.0269
aF30.0269
aF30.0269
aF30.0269
aF30.0269
aF30.0269
aF30.0073
aF30.0073
aF30.0269
aF30.0269
aF30.0269
aF30.0269
aF30.0073
aF30.0073
aF30.0269
aF30.0073
as(I5
S'put HB0-4-biasvoltage[1-64]_f 64*5.000000'
p104
tp105
(lp106
S'OK'
p107
as(I35
S'get HB0-4-LeakageCurrent[1-64]_f_rr'
p108
tp109
(lp110
F11.712
aF9.028
aF9.516
aF8.296
aF4.148
aF4.636
aF11.712
aF8.052
aF10.248
aF6.1
aF9.516
aF8.54
aF8.54
aF6.344
aF9.516
aF4.88
aF7.32
aF8.296
aF8.54
aF11.956
aF10.248
aF8.784
aF6.588
aF7.076
aF10.492
aF8.784
aF9.516
aF5.612
aF6.588
aF6.1
aF5.856
aF8.052
aF12.688
aF1.952
aF10.736
aF16.348
aF7.32
aF8.784
aF8.54
aF5.856
aF8.052
aF10.492
aF11.468
aF12.688
aF8.784
aF8.052
aF8.052
aF7.076
aF7.564
aF5.124
aF3.416
aF6.1
aF5.612
aF6.588
aF5.612
aF10.004
aF12.688
aF6.1
aF10.004
aF8.784
aF8.052
aF6.588
aF7.808
aF7.076
as(I10
S'put HB0-4-biasvoltage[1-64]_f 64*10.000000'
p111
tp112
(lp113
S'OK'
p114
as(I20
S'get HB0-4-biasmon[1-64]_f_rr'
p115
tp116
(lp117
F20.0244
aF20.044
aF20.0244
aF20.0244
aF20.0244
aF20.0244
aF20.0244
aF20.0244
aF20.044
aF20.044
aF20.0244
aF20.044
aF20.0244
aF20.0244
aF20.0244
aF20.0244
aF20.0244
aF20.044
aF20.0244
aF20.0244
aF20.0244
aF20.0244
aF20.0244
aF20.044
aF20.0244
aF20.0244
aF20.044
aF20.044
aF20.0244
aF20.0244
aF20.0244
aF20.044
aF20.0244
aF20.044
aF20.0244
aF20.044
aF20.0244
aF20.0244
aF20.0244
aF20.0244
aF20.0244
aF20.0244
aF20.044
aF20.044
aF20.0244
aF20.044
aF20.0244
aF20.0244
aF20.044
aF20.0244
aF20.044
aF20.0244
aF20.0244
aF20.044
aF20.0244
aF20.0244
aF20.044
aF20.0244
aF20.044
aF20.044
aF20.0244
aF20.0244
aF20.0244
aF20.0244
as(I20
S'get HB0-4-LeakageCurrent[1-64]_f_rr'
p118
tp119
(lp120
F9.272
aF6.832
aF7.076
aF6.1
aF1.952
aF2.44
aF9.516
aF5.612
aF7.808
aF3.66
aF7.32
aF6.344
aF6.1
aF4.148
aF7.32
aF2.684
aF4.88
aF5.856
aF6.344
aF9.516
aF7.808
aF6.588
aF4.148
aF4.636
aF8.052
aF6.588
aF7.076
aF3.416
aF4.148
aF3.904
aF3.66
aF5.856
aF10.248
aF1.952
aF8.296
aF11.468
aF4.88
aF6.344
aF6.1
aF3.66
aF5.856
aF8.052
aF9.028
aF10.248
aF6.588
aF5.856
aF5.856
aF4.88
aF5.368
aF2.928
aF1.708
aF3.904
aF3.172
aF4.148
aF3.172
aF7.564
aF10.492
aF3.66
aF7.564
aF6.344
aF5.856
aF4.392
aF5.612
aF4.636
as(I0
S'put HB0-4-biasvoltage[1-64]_f 64*0.000000'
p121
tp122
(lp123
S'OK'
p124
as(I0
S'get HB0-4-LeakageCurrent[1-64]_f_rr'
p125
tp126
(lp127
F6.344
aF3.66
aF3.904
aF2.928
aF1.708
aF1.708
aF6.344
aF2.684
aF4.636
aF1.708
aF4.148
aF3.172
aF3.416
aF1.708
aF4.148
aF1.708
aF1.952
aF2.928
aF3.416
aF6.344
aF4.636
aF3.416
aF1.708
aF1.952
aF4.88
aF3.66
aF4.148
aF1.708
aF1.708
aF1.708
aF1.708
aF2.928
aF7.076
aF1.952
aF5.368
aF5.612
aF1.952
aF3.416
aF3.172
aF1.708
aF2.684
aF5.124
aF6.1
aF7.32
aF3.416
aF2.684
aF2.928
aF1.952
aF2.44
aF1.708
aF1.708
aF1.708
aF1.708
aF1.708
aF1.708
aF4.636
aF7.32
aF1.708
aF4.636
aF3.172
aF2.928
aF1.708
aF2.44
aF1.952
as(I10
S'get HB0-4-biasmon[1-64]_f_rr'
p128
tp129
(lp130
F10.0415
aF10.0611
aF10.0611
aF10.0611
aF10.0415
aF10.0415
aF10.0415
aF10.0415
aF10.0611
aF10.0415
aF10.0415
aF10.0611
aF10.0415
aF10.0611
aF10.0415
aF10.0415
aF10.0415
aF10.0611
aF10.0415
aF10.0611
aF10.0415
aF10.0415
aF10.0415
aF10.0611
aF10.0415
aF10.0415
aF10.0611
aF10.0611
aF10.0415
aF10.0415
aF10.0611
aF10.0611
aF10.0611
aF10.0611
aF10.0415
aF10.0611
aF10.0611
aF10.0611
aF10.0415
aF10.0415
aF10.0415
aF10.0415
aF10.0611
aF10.0611
aF10.0611
aF10.0611
aF10.0415
aF10.0415
aF10.0611
aF10.0415
aF10.0611
aF10.0415
aF10.0415
aF10.0611
aF10.0415
aF10.0415
aF10.0611
aF10.0415
aF10.0611
aF10.0611
aF10.0415
aF10.0415
aF10.0611
aF10.0415
as.