(dp0
(I12
S'get HB5-2-LeakageCurrent[1-64]_f_rr'
p1
tp2
(lp3
F2.196
aF4.148
aF1.708
aF3.904
aF2.44
aF9.028
aF4.88
aF8.54
aF4.392
aF4.636
aF6.344
aF8.052
aF3.66
aF8.54
aF2.684
aF7.32
aF1.952
aF4.148
aF3.904
aF9.272
aF8.052
aF4.88
aF4.148
aF8.296
aF2.196
aF6.1
aF2.928
aF2.928
aF4.88
aF9.76
aF4.636
aF2.684
aF3.66
aF5.856
aF4.636
aF9.272
aF2.44
aF5.368
aF9.272
aF8.54
aF7.564
aF2.684
aF5.368
aF8.296
aF4.636
aF3.66
aF7.076
aF2.928
aF5.612
aF5.856
aF9.516
aF2.684
aF11.956
aF1.952
aF2.196
aF6.1
aF1.708
aF3.904
aF7.076
aF4.88
aF7.564
aF4.392
aF4.636
aF3.66
as(I48
S'get HB5-2-LeakageCurrent[1-64]_f_rr'
p4
tp5
(lp6
F7.32
aF10.004
aF6.344
aF9.516
aF8.052
aF14.396
aF10.736
aF13.908
aF9.76
aF10.492
aF11.468
aF13.42
aF8.784
aF14.396
aF7.808
aF13.176
aF7.076
aF9.76
aF9.76
aF14.64
aF13.42
aF10.736
aF9.516
aF13.664
aF7.076
aF11.712
aF8.54
aF8.052
aF10.248
aF15.372
aF10.492
aF7.808
aF9.272
aF11.712
aF10.004
aF14.884
aF7.564
aF10.736
aF14.64
aF14.152
aF13.176
aF8.052
aF10.736
aF13.908
aF10.004
aF9.272
aF12.688
aF8.54
aF10.98
aF11.224
aF15.128
aF7.808
aF17.324
aF6.1
aF7.564
aF11.956
aF3.172
aF9.516
aF12.688
aF10.736
aF13.176
aF9.76
aF9.76
aF9.516
as(I2
S'put HB5-2-biasvoltage[1-64]_f 64*2.000000'
p7
tp8
(lp9
S'OK'
p10
as(I52
S'put HB5-2-biasvoltage[1-64]_f 64*52.000000'
p11
tp12
(lp13
S'OK'
p14
as(I14
S'get HB5-2-LeakageCurrent[1-64]_f_rr'
p15
tp16
(lp17
F2.684
aF4.636
aF1.708
aF4.148
aF2.928
aF9.272
aF5.368
aF8.54
aF4.636
aF5.124
aF6.588
aF8.296
aF3.66
aF8.784
aF2.928
aF7.564
aF1.952
aF4.392
aF4.392
aF9.516
aF8.54
aF5.368
aF4.636
aF8.54
aF2.196
aF6.344
aF3.172
aF3.172
aF5.368
aF10.248
aF5.124
aF2.928
aF3.904
aF6.1
aF4.88
aF9.516
aF2.684
aF5.856
aF9.272
aF8.784
aF7.808
aF2.928
aF5.856
aF8.784
aF4.636
aF4.148
aF7.32
aF3.172
aF5.856
aF6.1
aF9.76
aF2.928
aF12.2
aF1.952
aF2.44
aF6.588
aF1.708
aF4.392
aF7.564
aF5.368
aF7.808
aF4.636
aF4.636
aF3.904
as(I46
S'get HB5-2-biasmon[1-64]_f_rr'
p18
tp19
(lp20
F46.0269
aF46.0269
aF46.0464
aF46.0269
aF46.0464
aF46.0464
aF46.0659
aF46.0659
aF46.0464
aF46.0269
aF46.0464
aF46.0464
aF46.0659
aF46.0659
aF46.0464
aF46.0464
aF46.0269
aF46.0464
aF46.0464
aF46.0269
aF46.0659
aF46.0464
aF46.0464
aF46.0464
aF46.0464
aF46.0464
aF46.0659
aF46.0464
aF46.0464
aF46.0464
aF46.0464
aF46.0659
aF46.0269
aF46.0464
aF46.0269
aF46.0464
aF46.0464
aF46.0464
aF46.0464
aF46.0659
aF46.0464
aF46.0464
aF46.0269
aF46.0269
aF46.0659
aF46.0464
aF46.0464
aF46.0464
aF46.0464
aF46.0464
aF46.0464
aF46.0464
aF46.0464
aF46.0464
aF46.0659
aF46.0659
aF46.0464
aF46.0464
aF46.0464
aF46.0464
aF46.0464
aF46.0464
aF46.0464
aF46.0464
as(I38
S'put HB5-2-biasvoltage[1-64]_f 64*38.000000'
p21
tp22
(lp23
S'OK'
p24
as(I56
S'get HB5-2-biasmon[1-64]_f_rr'
p25
tp26
(lp27
F56.0098
aF56.0098
aF56.0293
aF56.0098
aF56.0293
aF56.0293
aF56.0488
aF56.0293
aF56.0293
aF56.0098
aF56.0293
aF56.0293
aF56.0293
aF56.0488
aF56.0293
aF56.0293
aF56.0098
aF56.0098
aF56.0098
aF56.0098
aF56.0293
aF56.0293
aF56.0293
aF56.0293
aF56.0098
aF56.0098
aF56.0293
aF56.0098
aF56.0293
aF56.0293
aF56.0293
aF56.0293
aF56.0098
aF56.0293
aF56.0098
aF56.0293
aF56.0293
aF56.0293
aF56.0293
aF56.0488
aF56.0098
aF56.0293
aF56.0098
aF56.0098
aF56.0488
aF56.0293
aF56.0098
aF56.0293
aF56.0098
aF56.0098
aF56.0098
aF56.0293
aF56.0293
aF56.0293
aF56.0293
aF56.0488
aF56.0098
aF56.0098
aF56.0098
aF56.0293
aF56.0293
aF56.0293
aF56.0293
aF56.0293
as(I30
S'put HB5-2-biasvoltage[1-64]_f 64*30.000000'
p28
tp29
(lp30
S'OK'
p31
as(I46
S'put HB5-2-biasvoltage[1-64]_f 64*46.000000'
p32
tp33
(lp34
S'OK'
p35
as(I16
S'put HB5-2-biasvoltage[1-64]_f 64*16.000000'
p36
tp37
(lp38
S'OK'
p39
as(I22
S'get HB5-2-biasmon[1-64]_f_rr'
p40
tp41
(lp42
F22.0366
aF22.0366
aF22.0366
aF22.0366
aF22.0562
aF22.0562
aF22.0562
aF22.0562
aF22.0366
aF22.0366
aF22.0562
aF22.0366
aF22.0366
aF22.0562
aF22.0562
aF22.0562
aF22.0366
aF22.0366
aF22.0366
aF22.0366
aF22.0562
aF22.0562
aF22.0562
aF22.0562
aF22.0366
aF22.0366
aF22.0562
aF22.0562
aF22.0366
aF22.0562
aF22.0366
aF22.0562
aF22.0366
aF22.0366
aF22.0366
aF22.0366
aF22.0562
aF22.0562
aF22.0562
aF22.0562
aF22.0366
aF22.0366
aF22.0366
aF22.0366
aF22.0562
aF22.0366
aF22.0366
aF22.0366
aF22.0366
aF22.0366
aF22.0366
aF22.0562
aF22.0366
aF22.0562
aF22.0562
aF22.0562
aF22.0366
aF22.0562
aF22.0366
aF22.0366
aF22.0366
aF22.0562
aF22.0366
aF22.0562
as(I36
S'put HB5-2-biasvoltage[1-64]_f 64*36.000000'
p43
tp44
(lp45
S'OK'
p46
as(I26
S'get HB5-2-biasmon[1-64]_f_rr'
p47
tp48
(lp49
F26.0415
aF26.0415
aF26.0415
aF26.0415
aF26.0611
aF26.0611
aF26.0611
aF26.0611
aF26.0415
aF26.0415
aF26.0611
aF26.0415
aF26.0611
aF26.0611
aF26.0611
aF26.0611
aF26.0415
aF26.0415
aF26.0415
aF26.0415
aF26.0611
aF26.0611
aF26.0611
aF26.0611
aF26.0415
aF26.0415
aF26.0611
aF26.0611
aF26.0415
aF26.0611
aF26.0611
aF26.0611
aF26.0415
aF26.0415
aF26.0415
aF26.0611
aF26.0611
aF26.0611
aF26.0611
aF26.0611
aF26.0415
aF26.0611
aF26.0611
aF26.0415
aF26.0611
aF26.0611
aF26.0415
aF26.0611
aF26.0415
aF26.0415
aF26.0415
aF26.0415
aF26.0611
aF26.0611
aF26.0611
aF26.0611
aF26.0415
aF26.0611
aF26.0415
aF26.0611
aF26.0611
aF26.0611
aF26.0415
aF26.0611
as(I32
S'get HB5-2-biasmon[1-64]_f_rr'
p50
tp51
(lp52
F32.0195
aF32.0391
aF32.0391
aF32.0391
aF32.0586
aF32.0391
aF32.0586
aF32.0586
aF32.0391
aF32.0391
aF32.0586
aF32.0391
aF32.0586
aF32.0586
aF32.0586
aF32.0586
aF32.0391
aF32.0391
aF32.0391
aF32.0391
aF32.0586
aF32.0586
aF32.0391
aF32.0586
aF32.0391
aF32.0391
aF32.0586
aF32.0391
aF32.0391
aF32.0586
aF32.0391
aF32.0586
aF32.0391
aF32.0391
aF32.0391
aF32.0391
aF32.0586
aF32.0586
aF32.0391
aF32.0586
aF32.0391
aF32.0586
aF32.0391
aF32.0391
aF32.0586
aF32.0391
aF32.0391
aF32.0586
aF32.0391
aF32.0391
aF32.0391
aF32.0391
aF32.0391
aF32.0586
aF32.0586
aF32.0586
aF32.0391
aF32.0391
aF32.0391
aF32.0391
aF32.0391
aF32.0391
aF32.0391
aF32.0586
as(I52
S'get HB5-2-biasmon[1-64]_f_rr'
p53
tp54
(lp55
F52.0244
aF52.0244
aF52.0244
aF52.0244
aF52.0635
aF52.044
aF52.0635
aF52.044
aF52.044
aF52.0244
aF52.044
aF52.044
aF52.044
aF52.0635
aF52.044
aF52.044
aF52.0244
aF52.0244
aF52.0244
aF52.0244
aF52.044
aF52.044
aF52.044
aF52.044
aF52.044
aF52.044
aF52.044
aF52.0244
aF52.044
aF52.044
aF52.044
aF52.044
aF52.0244
aF52.044
aF52.0244
aF52.044
aF52.044
aF52.0635
aF52.044
aF52.0635
aF52.044
aF52.044
aF52.044
aF52.0244
aF52.044
aF52.044
aF52.044
aF52.044
aF52.0244
aF52.0244
aF52.044
aF52.044
aF52.044
aF52.044
aF52.044
aF52.0635
aF52.044
aF52.044
aF52.0244
aF52.044
aF52.044
aF52.044
aF52.0244
aF52.044
as(I26
S'get HB5-2-LeakageCurrent[1-64]_f_rr'
p56
tp57
(lp58
F4.148
aF6.588
aF2.928
aF6.1
aF4.636
aF11.224
aF7.32
aF10.492
aF6.588
aF7.076
aF8.296
aF10.004
aF5.612
aF10.98
aF4.636
aF9.516
aF3.66
aF6.344
aF6.344
aF11.468
aF10.004
aF7.076
aF6.344
aF10.492
aF3.904
aF8.296
aF5.124
aF4.636
aF7.076
aF11.956
aF7.076
aF4.636
aF5.856
aF8.052
aF6.588
aF11.468
aF4.392
aF7.564
aF11.224
aF10.736
aF9.76
aF4.636
aF7.564
aF10.736
aF6.588
aF5.856
aF9.272
aF5.124
aF7.564
aF8.052
aF11.712
aF4.636
aF14.152
aF2.684
aF4.148
aF8.54
aF1.708
aF6.1
aF9.272
aF7.32
aF9.76
aF6.344
aF6.588
aF5.856
as(I58
S'get HB5-2-LeakageCurrent[1-64]_f_rr'
p59
tp60
(lp61
F8.54
aF11.468
aF7.808
aF10.98
aF9.516
aF15.86
aF12.2
aF15.616
aF11.468
aF11.956
aF12.932
aF14.884
aF10.492
aF15.86
aF9.516
aF14.884
aF8.54
aF11.224
aF11.468
aF16.348
aF14.884
aF12.2
aF11.224
aF15.372
aF8.784
aF13.42
aF10.004
aF9.516
aF11.956
aF16.836
aF11.956
aF9.272
aF10.736
aF13.176
aF11.712
aF16.348
aF9.272
aF12.444
aF16.104
aF15.616
aF14.64
aF9.516
aF12.444
aF15.372
aF11.712
aF10.736
aF14.396
aF10.248
aF12.688
aF12.932
aF16.836
aF9.516
aF19.032
aF7.564
aF9.028
aF13.42
aF4.636
aF10.736
aF14.396
aF12.2
aF14.64
aF11.224
aF11.468
aF10.98
as(I0
S'put HB5-2-biasvoltage[1-64]_f 64*0.000000'
p62
tp63
(lp64
S'OK'
p65
as(I18
S'put HB5-2-biasvoltage[1-64]_f 64*18.000000'
p66
tp67
(lp68
S'OK'
p69
as(I58
S'put HB5-2-biasvoltage[1-64]_f 64*58.000000'
p70
tp71
(lp72
S'OK'
p73
as(I44
S'put HB5-2-biasvoltage[1-64]_f 64*44.000000'
p74
tp75
(lp76
S'OK'
p77
as(I2
S'get HB5-2-biasmon[1-64]_f_rr'
p78
tp79
(lp80
F2.03175
aF2.03175
aF2.05128
aF2.03175
aF2.05128
aF2.05128
aF2.05128
aF2.05128
aF2.05128
aF2.05128
aF2.05128
aF2.05128
aF2.05128
aF2.05128
aF2.05128
aF2.05128
aF2.03175
aF2.05128
aF2.05128
aF2.03175
aF2.05128
aF2.05128
aF2.05128
aF2.05128
aF2.03175
aF2.03175
aF2.05128
aF2.05128
aF2.03175
aF2.05128
aF2.05128
aF2.05128
aF2.03175
aF2.03175
aF2.03175
aF2.05128
aF2.05128
aF2.05128
aF2.05128
aF2.05128
aF2.05128
aF2.05128
aF2.05128
aF2.05128
aF2.05128
aF2.05128
aF2.05128
aF2.05128
aF2.05128
aF2.05128
aF2.05128
aF2.05128
aF2.05128
aF2.05128
aF2.05128
aF2.05128
aF2.05128
aF2.05128
aF2.05128
aF2.05128
aF2.05128
aF2.05128
aF2.03175
aF2.05128
as(I8
S'get HB5-2-biasmon[1-64]_f_rr'
p81
tp82
(lp83
F8.0293
aF8.0293
aF8.04884
aF8.0293
aF8.04884
aF8.04884
aF8.04884
aF8.04884
aF8.04884
aF8.04884
aF8.04884
aF8.04884
aF8.04884
aF8.04884
aF8.04884
aF8.04884
aF8.04884
aF8.04884
aF8.04884
aF8.0293
aF8.04884
aF8.04884
aF8.04884
aF8.04884
aF8.04884
aF8.04884
aF8.04884
aF8.04884
aF8.0293
aF8.04884
aF8.04884
aF8.04884
aF8.0293
aF8.0293
aF8.04884
aF8.04884
aF8.04884
aF8.04884
aF8.04884
aF8.04884
aF8.04884
aF8.04884
aF8.04884
aF8.04884
aF8.04884
aF8.04884
aF8.04884
aF8.04884
aF8.0293
aF8.04884
aF8.04884
aF8.04884
aF8.04884
aF8.04884
aF8.04884
aF8.04884
aF8.04884
aF8.04884
aF8.04884
aF8.04884
aF8.04884
aF8.04884
aF8.04884
aF8.04884
as(I32
S'put HB5-2-biasvoltage[1-64]_f 64*32.000000'
p84
tp85
(lp86
S'OK'
p87
as(I28
S'get HB5-2-biasmon[1-64]_f_rr'
p88
tp89
(lp90
F28.0342
aF28.0342
aF28.0342
aF28.0342
aF28.0537
aF28.0342
aF28.0537
aF28.0537
aF28.0342
aF28.0342
aF28.0537
aF28.0342
aF28.0537
aF28.0537
aF28.0537
aF28.0537
aF28.0342
aF28.0342
aF28.0342
aF28.0342
aF28.0537
aF28.0537
aF28.0342
aF28.0537
aF28.0342
aF28.0342
aF28.0537
aF28.0537
aF28.0342
aF28.0537
aF28.0537
aF28.0537
aF28.0342
aF28.0342
aF28.0342
aF28.0342
aF28.0537
aF28.0537
aF28.0537
aF28.0537
aF28.0342
aF28.0342
aF28.0342
aF28.0342
aF28.0537
aF28.0537
aF28.0342
aF28.0342
aF28.0342
aF28.0342
aF28.0342
aF28.0537
aF28.0537
aF28.0537
aF28.0537
aF28.0537
aF28.0342
aF28.0537
aF28.0342
aF28.0342
aF28.0537
aF28.0537
aF28.0342
aF28.0537
as(I2
S'get HB5-2-LeakageCurrent[1-64]_f_rr'
p91
tp92
(lp93
F1.708
aF2.928
aF1.708
aF2.44
aF1.708
aF7.564
aF3.416
aF6.832
aF2.928
aF3.416
aF4.88
aF6.588
aF2.196
aF6.832
aF1.952
aF5.612
aF1.708
aF2.684
aF2.44
aF7.564
aF6.832
aF3.172
aF2.928
aF6.588
aF1.708
aF4.392
aF1.952
aF2.196
aF3.416
aF8.54
aF3.416
aF1.952
aF2.684
aF4.636
aF3.416
aF7.564
aF1.708
aF3.904
aF7.564
aF7.32
aF6.1
aF1.952
aF3.904
aF6.832
aF3.172
aF2.44
aF5.612
aF1.952
aF4.148
aF4.636
aF7.564
aF1.952
aF10.492
aF1.952
aF1.708
aF4.392
aF1.708
aF2.928
aF5.612
aF3.66
aF6.1
aF2.928
aF2.928
aF2.196
as(I46
S'get HB5-2-LeakageCurrent[1-64]_f_rr'
p94
tp95
(lp96
F6.832
aF9.516
aF5.856
aF9.272
aF7.564
aF14.152
aF10.492
aF13.664
aF9.516
aF10.004
aF11.224
aF13.176
aF8.54
aF13.908
aF7.564
aF12.932
aF6.832
aF9.516
aF9.516
aF14.396
aF13.176
aF10.248
aF9.272
aF13.42
aF6.832
aF11.468
aF8.052
aF7.808
aF10.004
aF15.128
aF10.004
aF7.564
aF9.028
aF11.224
aF9.516
aF14.64
aF7.32
aF10.492
aF14.152
aF13.908
aF12.932
aF7.564
aF10.492
aF13.664
aF9.516
aF9.028
aF12.444
aF8.296
aF10.736
aF10.98
aF14.884
aF7.564
aF17.324
aF5.856
aF7.32
aF11.712
aF2.928
aF9.028
aF12.444
aF10.248
aF12.932
aF9.516
aF9.516
aF9.272
as(I28
S'put HB5-2-biasvoltage[1-64]_f 64*28.000000'
p97
tp98
(lp99
S'OK'
p100
as(I54
S'get HB5-2-LeakageCurrent[1-64]_f_rr'
p101
tp102
(lp103
F8.052
aF10.736
aF7.32
aF10.492
aF9.028
aF15.372
aF11.712
aF14.884
aF10.736
aF11.468
aF12.444
aF14.396
aF9.76
aF15.372
aF8.784
aF14.152
aF8.052
aF10.492
aF10.736
aF15.86
aF14.396
aF11.712
aF10.736
aF14.64
aF8.052
aF12.688
aF9.272
aF9.028
aF11.468
aF16.104
aF11.468
aF8.784
aF10.248
aF12.444
aF10.98
aF15.616
aF8.54
aF11.712
aF15.372
aF15.128
aF14.152
aF8.784
aF11.712
aF14.884
aF10.98
aF10.248
aF13.664
aF9.516
aF11.956
aF12.2
aF16.348
aF8.784
aF18.544
aF7.076
aF8.54
aF12.932
aF3.904
aF10.248
aF13.664
aF11.712
aF13.908
aF10.736
aF10.736
aF10.248
as(I34
S'put HB5-2-biasvoltage[1-64]_f 64*34.000000'
p104
tp105
(lp106
S'OK'
p107
as(I12
S'put HB5-2-biasvoltage[1-64]_f 64*12.000000'
p108
tp109
(lp110
S'OK'
p111
as(I24
S'get HB5-2-LeakageCurrent[1-64]_f_rr'
p112
tp113
(lp114
F3.66
aF6.1
aF2.684
aF5.856
aF4.148
aF10.736
aF6.832
aF10.248
aF6.1
aF6.588
aF8.052
aF9.76
aF5.368
aF10.492
aF4.392
aF9.272
aF3.172
aF6.1
aF5.856
aF11.224
aF9.76
aF6.832
aF6.1
aF10.004
aF3.66
aF8.052
aF4.636
aF4.392
aF6.832
aF11.712
aF6.588
aF4.148
aF5.612
aF7.808
aF6.344
aF10.98
aF4.148
aF7.32
aF10.98
aF10.492
aF9.516
aF4.148
aF7.076
aF10.248
aF6.344
aF5.612
aF9.028
aF4.88
aF7.564
aF7.564
aF11.224
aF4.148
aF13.664
aF2.684
aF3.904
aF8.052
aF1.708
aF5.856
aF9.028
aF6.832
aF9.516
aF6.1
aF6.1
aF5.612
as(I4
S'get HB5-2-biasmon[1-64]_f_rr'
p115
tp116
(lp117
F4.04396
aF4.04396
aF4.04396
aF4.04396
aF4.06349
aF4.06349
aF4.06349
aF4.06349
aF4.04396
aF4.06349
aF4.06349
aF4.06349
aF4.06349
aF4.06349
aF4.06349
aF4.06349
aF4.04396
aF4.04396
aF4.04396
aF4.04396
aF4.06349
aF4.06349
aF4.06349
aF4.06349
aF4.04396
aF4.04396
aF4.06349
aF4.06349
aF4.04396
aF4.06349
aF4.06349
aF4.06349
aF4.04396
aF4.04396
aF4.04396
aF4.04396
aF4.06349
aF4.06349
aF4.06349
aF4.06349
aF4.06349
aF4.06349
aF4.04396
aF4.06349
aF4.06349
aF4.06349
aF4.06349
aF4.06349
aF4.06349
aF4.06349
aF4.06349
aF4.06349
aF4.06349
aF4.06349
aF4.06349
aF4.06349
aF4.04396
aF4.06349
aF4.06349
aF4.06349
aF4.06349
aF4.06349
aF4.04396
aF4.06349
as(I50
S'get HB5-2-biasmon[1-64]_f_rr'
p118
tp119
(lp120
F49.9927
aF49.9927
aF50.0122
aF49.9927
aF50.0513
aF50.0317
aF50.0513
aF50.0513
aF50.0317
aF50.0122
aF50.0317
aF50.0317
aF50.0317
aF50.0513
aF50.0513
aF50.0513
aF49.9927
aF50.0317
aF50.0317
aF50.0122
aF50.0513
aF50.0317
aF50.0317
aF50.0317
aF50.0317
aF50.0317
aF50.0513
aF50.0317
aF50.0317
aF50.0317
aF50.0513
aF50.0317
aF50.0317
aF50.0317
aF50.0317
aF50.0122
aF50.0317
aF50.0513
aF50.0317
aF50.0513
aF50.0317
aF50.0317
aF50.0317
aF50.0122
aF50.0513
aF50.0317
aF50.0317
aF50.0317
aF50.0317
aF50.0317
aF50.0317
aF50.0317
aF50.0317
aF50.0317
aF50.0513
aF50.0513
aF50.0317
aF50.0317
aF50.0317
aF50.0317
aF50.0317
aF50.0317
aF50.0317
aF50.0317
as(I22
S'get HB5-2-LeakageCurrent[1-64]_f_rr'
p121
tp122
(lp123
F3.416
aF5.856
aF2.44
aF5.368
aF3.904
aF10.492
aF6.588
aF10.004
aF5.856
aF6.344
aF7.564
aF9.516
aF4.88
aF10.248
aF4.148
aF9.028
aF2.928
aF5.612
aF5.612
aF10.736
aF9.516
aF6.588
aF5.856
aF9.76
aF3.172
aF7.564
aF4.392
aF4.148
aF6.344
aF11.468
aF6.344
aF3.904
aF5.368
aF7.564
aF6.1
aF10.736
aF3.904
aF6.832
aF10.492
aF10.004
aF9.028
aF3.904
aF6.832
aF10.004
aF5.856
aF5.368
aF8.54
aF4.636
aF7.076
aF7.32
aF10.98
aF3.904
aF13.42
aF2.196
aF3.66
aF7.808
aF1.708
aF5.612
aF8.784
aF6.588
aF9.028
aF5.856
aF5.856
aF5.124
as(I4
S'put HB5-2-biasvoltage[1-64]_f 64*4.000000'
p124
tp125
(lp126
S'OK'
p127
as(I50
S'put HB5-2-biasvoltage[1-64]_f 64*50.000000'
p128
tp129
(lp130
S'OK'
p131
as(I0
S'get HB5-2-LeakageCurrent[1-64]_f_rr'
p132
tp133
(lp134
F1.708
aF2.684
aF1.708
aF2.196
aF1.708
aF7.564
aF3.172
aF6.588
aF2.44
aF2.928
aF4.88
aF6.588
aF2.196
aF6.832
aF1.952
aF5.124
aF1.708
aF2.684
aF2.196
aF7.32
aF6.588
aF2.928
aF2.684
aF6.344
aF1.708
aF4.148
aF1.952
aF2.196
aF3.172
aF8.296
aF2.928
aF1.952
aF2.196
aF3.904
aF2.928
aF7.32
aF1.708
aF3.66
aF7.32
aF6.832
aF5.612
aF1.952
aF3.66
aF6.588
aF2.684
aF2.196
aF4.88
aF1.952
aF3.66
aF4.148
aF7.32
aF1.952
aF10.004
aF1.952
aF1.708
aF4.148
aF1.708
aF2.684
aF5.124
aF3.172
aF5.856
aF2.684
aF2.928
aF2.196
as(I6
S'put HB5-2-biasvoltage[1-64]_f 64*6.000000'
p135
tp136
(lp137
S'OK'
p138
as(I52
S'get HB5-2-LeakageCurrent[1-64]_f_rr'
p139
tp140
(lp141
F7.808
aF10.736
aF6.832
aF10.004
aF8.54
aF15.128
aF11.224
aF14.64
aF10.492
aF11.224
aF11.956
aF13.908
aF9.516
aF15.128
aF8.54
aF13.908
aF7.564
aF10.248
aF10.492
aF15.372
aF13.908
aF11.224
aF10.248
aF14.396
aF7.808
aF12.444
aF9.028
aF8.54
aF10.98
aF15.86
aF10.98
aF8.54
aF10.004
aF12.2
aF10.736
aF15.372
aF8.296
aF11.468
aF15.128
aF14.884
aF13.908
aF8.54
aF11.468
aF14.64
aF10.736
aF10.004
aF13.664
aF9.272
aF11.712
aF11.956
aF15.86
aF8.54
aF18.056
aF6.832
aF8.052
aF12.444
aF3.66
aF10.004
aF13.42
aF11.224
aF13.664
aF10.248
aF10.492
aF10.004
as(I22
S'put HB5-2-biasvoltage[1-64]_f 64*22.000000'
p142
tp143
(lp144
S'OK'
p145
as(I38
S'get HB5-2-biasmon[1-64]_f_rr'
p146
tp147
(lp148
F38.0171
aF38.0171
aF38.0366
aF38.0366
aF38.0562
aF38.0366
aF38.0562
aF38.0562
aF38.0366
aF38.0366
aF38.0562
aF38.0366
aF38.0562
aF38.0562
aF38.0562
aF38.0562
aF38.0366
aF38.0366
aF38.0366
aF38.0366
aF38.0562
aF38.0562
aF38.0366
aF38.0562
aF38.0366
aF38.0366
aF38.0562
aF38.0562
aF38.0366
aF38.0562
aF38.0562
aF38.0562
aF38.0366
aF38.0366
aF38.0366
aF38.0366
aF38.0562
aF38.0562
aF38.0562
aF38.0562
aF38.0366
aF38.0366
aF38.0366
aF38.0366
aF38.0562
aF38.0562
aF38.0366
aF38.0366
aF38.0366
aF38.0366
aF38.0366
aF38.0562
aF38.0366
aF38.0562
aF38.0562
aF38.0562
aF38.0366
aF38.0366
aF38.0366
aF38.0366
aF38.0562
aF38.0366
aF38.0366
aF38.0366
as(I34
S'get HB5-2-LeakageCurrent[1-64]_f_rr'
p149
tp150
(lp151
F5.124
aF7.564
aF4.148
aF7.32
aF5.856
aF12.444
aF8.54
aF11.712
aF7.564
aF8.296
aF9.516
aF11.224
aF6.832
aF12.2
aF5.856
aF10.98
aF4.636
aF7.564
aF7.564
aF12.444
aF11.468
aF8.54
aF7.564
aF11.712
aF4.88
aF9.516
aF6.1
aF5.856
aF8.296
aF13.176
aF8.052
aF5.856
aF7.076
aF9.272
aF7.808
aF12.444
aF5.612
aF8.784
aF12.444
aF11.956
aF10.98
aF5.856
aF8.54
aF11.712
aF7.808
aF7.076
aF10.736
aF6.344
aF8.784
aF9.272
aF12.932
aF5.856
aF15.372
aF3.904
aF5.612
aF9.516
aF1.708
aF7.32
aF10.492
aF8.54
aF10.98
aF7.564
aF7.564
aF7.32
as(I42
S'get HB5-2-biasmon[1-64]_f_rr'
p152
tp153
(lp154
F42.022
aF42.022
aF42.0415
aF42.022
aF42.0611
aF42.0415
aF42.0611
aF42.0415
aF42.0415
aF42.022
aF42.0415
aF42.0415
aF42.0415
aF42.0611
aF42.0415
aF42.0415
aF42.022
aF42.0415
aF42.0415
aF42.0415
aF42.0611
aF42.0415
aF42.0415
aF42.0611
aF42.0415
aF42.0415
aF42.0415
aF42.0415
aF42.0415
aF42.0415
aF42.0611
aF42.0415
aF42.0415
aF42.0415
aF42.0415
aF42.0415
aF42.0415
aF42.0415
aF42.0415
aF42.0611
aF42.0415
aF42.0415
aF42.0415
aF42.022
aF42.0611
aF42.0415
aF42.0415
aF42.0415
aF42.0415
aF42.0415
aF42.0415
aF42.0415
aF42.0415
aF42.0415
aF42.0611
aF42.0611
aF42.0415
aF42.0415
aF42.0415
aF42.0415
aF42.0415
aF42.0415
aF42.0415
aF42.0415
as(I48
S'get HB5-2-biasmon[1-64]_f_rr'
p155
tp156
(lp157
F48.0195
aF48.0195
aF48.0195
aF48.0195
aF48.0391
aF48.0391
aF48.0586
aF48.0586
aF48.0391
aF48.0195
aF48.0391
aF48.0391
aF48.0391
aF48.0586
aF48.0391
aF48.0391
aF48.0195
aF48.0195
aF48.0391
aF48.0195
aF48.0391
aF48.0391
aF48.0391
aF48.0586
aF48.0391
aF48.0391
aF48.0391
aF48.0391
aF48.0391
aF48.0391
aF48.0391
aF48.0391
aF48.0195
aF48.0391
aF48.0391
aF48.0391
aF48.0391
aF48.0586
aF48.0391
aF48.0586
aF48.0391
aF48.0391
aF48.0195
aF48.0195
aF48.0586
aF48.0391
aF48.0195
aF48.0391
aF48.0195
aF48.0391
aF48.0195
aF48.0391
aF48.0391
aF48.0391
aF48.0391
aF48.0586
aF48.0391
aF48.0391
aF48.0195
aF48.0391
aF48.0391
aF48.0391
aF48.0391
aF48.0391
as(I20
S'get HB5-2-LeakageCurrent[1-64]_f_rr'
p158
tp159
(lp160
F3.172
aF5.612
aF2.196
aF5.124
aF3.66
aF10.248
aF6.1
aF9.516
aF5.612
aF6.1
aF7.564
aF9.272
aF4.636
aF10.004
aF3.66
aF8.54
aF2.684
aF5.368
aF5.368
aF10.492
aF9.272
aF6.1
aF5.368
aF9.516
aF2.928
aF7.32
aF4.148
aF3.904
aF6.1
aF11.224
aF6.1
aF3.66
aF4.88
aF7.076
aF5.856
aF10.492
aF3.66
aF6.588
aF10.248
aF9.76
aF8.784
aF3.66
aF6.588
aF9.516
aF5.612
aF4.88
aF8.296
aF4.148
aF6.832
aF7.076
aF10.736
aF3.66
aF13.176
aF2.196
aF3.416
aF7.564
aF1.708
aF5.124
aF8.296
aF6.344
aF8.784
aF5.368
aF5.612
aF4.88
as(I28
S'get HB5-2-LeakageCurrent[1-64]_f_rr'
p161
tp162
(lp163
F4.392
aF6.832
aF3.172
aF6.344
aF4.88
aF11.468
aF7.564
aF10.736
aF6.832
aF7.32
aF8.54
aF10.492
aF5.856
aF11.224
aF4.88
aF9.76
aF3.904
aF6.588
aF6.588
aF11.712
aF10.492
aF7.564
aF6.588
aF10.736
aF4.148
aF8.54
aF5.368
aF4.88
aF7.32
aF12.444
aF7.32
aF4.88
aF6.1
aF8.296
aF6.832
aF11.712
aF4.636
aF7.808
aF11.468
aF10.98
aF10.004
aF4.88
aF7.808
aF10.98
aF6.832
aF6.1
aF9.516
aF5.368
aF8.052
aF8.296
aF11.956
aF4.88
aF14.396
aF2.928
aF4.636
aF8.784
aF1.708
aF6.344
aF9.516
aF7.564
aF10.004
aF6.832
aF6.832
aF6.1
as(I56
S'get HB5-2-LeakageCurrent[1-64]_f_rr'
p164
tp165
(lp166
F8.54
aF11.224
aF7.564
aF10.736
aF9.272
aF15.616
aF11.956
aF15.128
aF10.98
aF11.712
aF12.688
aF14.64
aF10.004
aF15.616
aF9.028
aF14.396
aF8.296
aF10.98
aF10.98
aF15.86
aF14.64
aF11.956
aF10.736
aF15.128
aF8.296
aF13.176
aF9.516
aF9.272
aF11.712
aF16.592
aF11.712
aF9.028
aF10.492
aF12.688
aF11.224
aF15.86
aF9.028
aF11.956
aF15.616
aF15.372
aF14.64
aF9.272
aF11.956
aF15.128
aF11.468
aF10.492
aF14.152
aF9.76
aF12.444
aF12.444
aF16.348
aF9.028
aF18.788
aF7.32
aF8.784
aF13.176
aF4.148
aF10.736
aF14.152
aF11.956
aF14.396
aF10.98
aF11.224
aF10.736
as(I14
S'get HB5-2-biasmon[1-64]_f_rr'
p167
tp168
(lp169
F14.0464
aF14.0464
aF14.0659
aF14.0464
aF14.0659
aF14.0659
aF14.0659
aF14.0659
aF14.0659
aF14.0464
aF14.0659
aF14.0659
aF14.0659
aF14.0659
aF14.0659
aF14.0659
aF14.0464
aF14.0464
aF14.0464
aF14.0464
aF14.0659
aF14.0659
aF14.0659
aF14.0659
aF14.0464
aF14.0464
aF14.0659
aF14.0659
aF14.0464
aF14.0659
aF14.0659
aF14.0659
aF14.0464
aF14.0464
aF14.0464
aF14.0659
aF14.0659
aF14.0659
aF14.0659
aF14.0659
aF14.0659
aF14.0659
aF14.0659
aF14.0464
aF14.0659
aF14.0659
aF14.0464
aF14.0659
aF14.0464
aF14.0659
aF14.0464
aF14.0659
aF14.0659
aF14.0659
aF14.0659
aF14.0659
aF14.0464
aF14.0659
aF14.0464
aF14.0659
aF14.0659
aF14.0659
aF14.0464
aF14.0659
as(I18
S'get HB5-2-biasmon[1-64]_f_rr'
p170
tp171
(lp172
F18.0317
aF18.0317
aF18.0513
aF18.0513
aF18.0513
aF18.0513
aF18.0513
aF18.0513
aF18.0513
aF18.0513
aF18.0513
aF18.0317
aF18.0513
aF18.0513
aF18.0513
aF18.0513
aF18.0317
aF18.0513
aF18.0513
aF18.0317
aF18.0513
aF18.0513
aF18.0513
aF18.0513
aF18.0317
aF18.0317
aF18.0513
aF18.0513
aF18.0317
aF18.0513
aF18.0513
aF18.0513
aF18.0317
aF18.0317
aF18.0317
aF18.0317
aF18.0513
aF18.0513
aF18.0513
aF18.0513
aF18.0513
aF18.0513
aF18.0513
aF18.0513
aF18.0513
aF18.0513
aF18.0317
aF18.0513
aF18.0513
aF18.0513
aF18.0513
aF18.0513
aF18.0513
aF18.0513
aF18.0513
aF18.0513
aF18.0513
aF18.0513
aF18.0513
aF18.0513
aF18.0513
aF18.0513
aF18.0513
aF18.0317
as(I24
S'get HB5-2-biasmon[1-64]_f_rr'
p173
tp174
(lp175
F24.0293
aF24.0293
aF24.0293
aF24.0098
aF24.0488
aF24.0488
aF24.0488
aF24.0488
aF24.0293
aF24.0293
aF24.0488
aF24.0293
aF24.0488
aF24.0488
aF24.0488
aF24.0488
aF24.0293
aF24.0293
aF24.0293
aF24.0293
aF24.0488
aF24.0293
aF24.0293
aF24.0488
aF24.0293
aF24.0293
aF24.0488
aF24.0293
aF24.0293
aF24.0293
aF24.0488
aF24.0293
aF24.0293
aF24.0293
aF24.0293
aF24.0293
aF24.0488
aF24.0488
aF24.0488
aF24.0488
aF24.0293
aF24.0488
aF24.0293
aF24.0293
aF24.0488
aF24.0293
aF24.0293
aF24.0293
aF24.0293
aF24.0293
aF24.0293
aF24.0488
aF24.0293
aF24.0488
aF24.0488
aF24.0488
aF24.0293
aF24.0488
aF24.0293
aF24.0488
aF24.0293
aF24.0293
aF24.0293
aF24.0488
as(I44
S'get HB5-2-biasmon[1-64]_f_rr'
p176
tp177
(lp178
F44.0147
aF44.0147
aF44.0342
aF44.0147
aF44.0342
aF44.0342
aF44.0537
aF44.0537
aF44.0342
aF44.0147
aF44.0342
aF44.0342
aF44.0342
aF44.0537
aF44.0342
aF44.0342
aF44.0147
aF44.0342
aF44.0147
aF44.0147
aF44.0537
aF44.0342
aF44.0342
aF44.0342
aF44.0342
aF44.0342
aF44.0342
aF44.0342
aF44.0342
aF44.0342
aF44.0342
aF44.0342
aF44.0147
aF44.0147
aF44.0342
aF44.0147
aF44.0342
aF44.0342
aF44.0342
aF44.0537
aF44.0342
aF44.0342
aF44.0342
aF44.0147
aF44.0342
aF44.0342
aF44.0342
aF44.0342
aF44.0147
aF44.0342
aF44.0342
aF44.0342
aF44.0342
aF44.0342
aF44.0342
aF44.0537
aF44.0342
aF44.0342
aF44.0342
aF44.0342
aF44.0342
aF44.0342
aF44.0342
aF44.0342
as(I30
S'get HB5-2-LeakageCurrent[1-64]_f_rr'
p179
tp180
(lp181
F4.636
aF7.076
aF3.66
aF6.588
aF5.124
aF11.712
aF7.808
aF11.224
aF7.076
aF7.564
aF8.784
aF10.736
aF6.1
aF11.468
aF5.368
aF10.248
aF4.148
aF6.832
aF6.832
aF11.956
aF10.736
aF7.808
aF6.832
aF10.98
aF4.392
aF8.784
aF5.612
aF5.368
aF7.564
aF12.688
aF7.564
aF5.124
aF6.588
aF8.54
aF7.32
aF11.956
aF4.88
aF8.052
aF11.712
aF11.468
aF10.492
aF5.124
aF8.052
aF11.224
aF7.32
aF6.588
aF10.004
aF5.856
aF8.296
aF8.54
aF12.444
aF5.124
aF14.64
aF3.416
aF4.88
aF9.028
aF1.708
aF6.588
aF10.004
aF7.808
aF10.492
aF6.832
aF7.076
aF6.588
as(I32
S'get HB5-2-LeakageCurrent[1-64]_f_rr'
p182
tp183
(lp184
F4.88
aF7.32
aF3.904
aF7.076
aF5.612
aF11.956
aF8.052
aF11.468
aF7.32
aF7.808
aF9.272
aF10.98
aF6.588
aF11.956
aF5.612
aF10.736
aF4.636
aF7.32
aF7.32
aF12.444
aF10.98
aF8.052
aF7.32
aF11.224
aF4.636
aF9.272
aF5.856
aF5.612
aF7.808
aF12.932
aF7.808
aF5.612
aF6.832
aF9.028
aF7.564
aF12.2
aF5.368
aF8.296
aF11.956
aF11.712
aF10.736
aF5.368
aF8.296
aF11.468
aF7.564
aF6.832
aF10.248
aF6.1
aF8.54
aF8.784
aF12.688
aF5.368
aF15.128
aF3.66
aF5.124
aF9.516
aF1.708
aF6.832
aF10.248
aF8.052
aF10.736
aF7.32
aF7.32
aF6.832
as(I0
S'get HB5-2-biasmon[1-64]_f_rr'
p185
tp186
(lp187
F0.0586081
aF0.0586081
aF0.0586081
aF0.0586081
aF0.0586081
aF0.0586081
aF0.0586081
aF0.0586081
aF0.0586081
aF0.0586081
aF0.0586081
aF0.0586081
aF0.0586081
aF0.0586081
aF0.0586081
aF0.0586081
aF0.0586081
aF0.0586081
aF0.0586081
aF0.0586081
aF0.0586081
aF0.0586081
aF0.0586081
aF0.0586081
aF0.0586081
aF0.0586081
aF0.0586081
aF0.0586081
aF0.0586081
aF0.0586081
aF0.0586081
aF0.0586081
aF0.0586081
aF0.0586081
aF0.0586081
aF0.0586081
aF0.0586081
aF0.0586081
aF0.0586081
aF0.0586081
aF0.0586081
aF0.0586081
aF0.0586081
aF0.0586081
aF0.0586081
aF0.0586081
aF0.0586081
aF0.0586081
aF0.0586081
aF0.0586081
aF0.0586081
aF0.0586081
aF0.0586081
aF0.0586081
aF0.0586081
aF0.0586081
aF0.0586081
aF0.0586081
aF0.0586081
aF0.0586081
aF0.0586081
aF0.0586081
aF0.0586081
aF0.0586081
as(I20
S'get HB5-2-biasmon[1-64]_f_rr'
p188
tp189
(lp190
F20.044
aF20.044
aF20.0635
aF20.044
aF20.0635
aF20.0635
aF20.0635
aF20.0635
aF20.044
aF20.0635
aF20.0635
aF20.044
aF20.0635
aF20.0635
aF20.0635
aF20.0635
aF20.044
aF20.044
aF20.0635
aF20.044
aF20.0635
aF20.0635
aF20.0635
aF20.0635
aF20.0635
aF20.044
aF20.0635
aF20.0635
aF20.0635
aF20.0635
aF20.0635
aF20.0635
aF20.044
aF20.044
aF20.044
aF20.044
aF20.0635
aF20.0635
aF20.0635
aF20.0635
aF20.0635
aF20.0635
aF20.0635
aF20.044
aF20.0635
aF20.0635
aF20.044
aF20.0635
aF20.0635
aF20.0635
aF20.0635
aF20.0635
aF20.0635
aF20.0635
aF20.0635
aF20.0635
aF20.044
aF20.0635
aF20.044
aF20.0635
aF20.0635
aF20.0635
aF20.0635
aF20.0635
as(I6
S'get HB5-2-LeakageCurrent[1-64]_f_rr'
p191
tp192
(lp193
F1.952
aF3.416
aF1.708
aF2.928
aF1.952
aF8.052
aF4.148
aF7.564
aF3.172
aF4.148
aF5.612
aF7.076
aF2.928
aF7.564
aF2.196
aF6.344
aF1.708
aF3.416
aF3.172
aF8.052
aF7.076
aF3.66
aF3.172
aF7.076
aF1.708
aF4.88
aF2.196
aF2.196
aF4.148
aF8.784
aF3.66
aF2.196
aF2.684
aF4.88
aF3.66
aF8.052
aF1.952
aF4.88
aF8.54
aF7.564
aF6.832
aF2.196
aF4.636
aF7.564
aF3.66
aF3.172
aF6.1
aF2.196
aF4.636
aF5.124
aF8.784
aF2.196
aF10.736
aF1.708
aF1.708
aF5.612
aF1.708
aF3.416
aF6.588
aF4.392
aF6.344
aF3.66
aF3.66
aF2.684
as(I42
S'put HB5-2-biasvoltage[1-64]_f 64*42.000000'
p194
tp195
(lp196
S'OK'
p197
as(I24
S'put HB5-2-biasvoltage[1-64]_f 64*24.000000'
p198
tp199
(lp200
S'OK'
p201
as(I42
S'get HB5-2-LeakageCurrent[1-64]_f_rr'
p202
tp203
(lp204
F6.344
aF9.028
aF5.368
aF8.54
aF7.076
aF13.664
aF9.76
aF13.176
aF8.784
aF9.516
aF10.492
aF12.444
aF8.052
aF13.42
aF7.076
aF12.2
aF6.1
aF8.784
aF8.784
aF13.664
aF12.444
aF9.516
aF8.784
aF12.688
aF6.1
aF10.736
aF7.564
aF7.32
aF9.516
aF14.396
aF9.516
aF7.076
aF8.54
aF10.492
aF9.028
aF13.908
aF6.832
aF10.004
aF13.664
aF13.42
aF12.2
aF6.832
aF9.76
aF13.176
aF9.028
aF8.296
aF11.712
aF7.564
aF10.004
aF10.492
aF14.396
aF6.832
aF16.592
aF5.124
aF6.832
aF10.98
aF2.196
aF8.54
aF11.712
aF9.516
aF12.2
aF8.784
aF9.028
aF8.54
as(I60
S'get HB5-2-LeakageCurrent[1-64]_f_rr'
p205
tp206
(lp207
F9.028
aF11.712
aF8.052
aF11.468
aF10.004
aF16.348
aF12.444
aF15.86
aF11.712
aF12.444
aF13.42
aF15.372
aF10.736
aF16.348
aF9.76
aF15.128
aF8.784
aF11.712
aF11.712
aF16.592
aF15.128
aF12.444
aF11.468
aF15.616
aF9.028
aF13.664
aF10.248
aF10.004
aF12.2
aF17.08
aF12.2
aF9.76
aF11.224
aF13.42
aF11.956
aF16.592
aF9.516
aF12.688
aF16.348
aF15.86
aF15.128
aF9.76
aF12.444
aF15.86
aF11.956
aF11.224
aF14.884
aF10.492
aF12.932
aF13.176
aF17.08
aF9.516
aF19.276
aF8.052
aF9.516
aF13.664
aF4.88
aF11.224
aF14.64
aF12.444
aF15.128
aF11.712
aF11.712
aF11.468
as(I8
S'put HB5-2-biasvoltage[1-64]_f 64*8.000000'
p208
tp209
(lp210
S'OK'
p211
as(I56
S'put HB5-2-biasvoltage[1-64]_f 64*56.000000'
p212
tp213
(lp214
S'OK'
p215
as(I10
S'get HB5-2-LeakageCurrent[1-64]_f_rr'
p216
tp217
(lp218
F2.196
aF3.904
aF1.708
aF3.66
aF2.196
aF8.784
aF4.636
aF7.808
aF4.148
aF4.392
aF6.1
aF7.564
aF3.416
aF8.54
aF2.684
aF7.076
aF1.708
aF3.904
aF3.66
aF8.784
aF7.808
aF4.636
aF3.904
aF7.808
aF1.952
aF5.856
aF2.928
aF2.684
aF4.636
aF9.76
aF4.392
aF2.44
aF3.416
aF5.612
aF4.392
aF8.784
aF2.196
aF5.124
aF8.784
aF8.54
aF7.32
aF2.44
aF5.124
aF8.052
aF4.148
aF3.416
aF6.588
aF2.684
aF5.124
aF5.612
aF9.272
aF2.44
aF11.712
aF1.952
aF2.196
aF5.856
aF1.708
aF3.66
aF6.832
aF4.88
aF7.32
aF4.148
aF4.148
aF3.172
as(I54
S'get HB5-2-biasmon[1-64]_f_rr'
p219
tp220
(lp221
F54.0171
aF54.0171
aF54.0171
aF54.0171
aF54.0366
aF54.0171
aF54.0366
aF54.0366
aF54.0366
aF54.0171
aF54.0171
aF54.0171
aF54.0366
aF54.0562
aF54.0366
aF54.0562
aF54.0171
aF54.0171
aF54.0171
aF54.0171
aF54.0366
aF54.0366
aF54.0366
aF54.0366
aF54.0171
aF54.0171
aF54.0366
aF54.0171
aF54.0366
aF54.0366
aF54.0366
aF54.0366
aF54.0171
aF54.0171
aF54.0171
aF54.0171
aF54.0366
aF54.0366
aF54.0366
aF54.0562
aF54.0171
aF54.0171
aF54.0171
aF54.0171
aF54.0366
aF54.0366
aF54.0171
aF54.0366
aF54.0171
aF54.0171
aF54.0171
aF54.0366
aF54.0366
aF54.0366
aF54.0366
aF54.0562
aF54.0171
aF54.0171
aF54.0171
aF54.0171
aF54.0366
aF54.0171
aF54.0171
aF54.0366
as(I18
S'get HB5-2-LeakageCurrent[1-64]_f_rr'
p222
tp223
(lp224
F2.928
aF5.124
aF1.952
aF4.88
aF3.416
aF9.76
aF5.856
aF9.272
aF5.124
aF5.856
aF7.076
aF9.028
aF4.392
aF9.516
aF3.416
aF8.296
aF2.44
aF4.88
aF4.88
aF10.004
aF9.028
aF5.856
aF5.124
aF9.272
aF2.684
aF7.076
aF3.904
aF3.66
aF5.856
aF10.736
aF5.612
aF3.416
aF4.636
aF6.832
aF5.612
aF10.248
aF3.416
aF6.344
aF10.004
aF9.516
aF8.54
aF3.416
aF6.344
aF9.272
aF5.368
aF4.636
aF8.052
aF3.904
aF6.588
aF6.832
aF10.492
aF3.416
aF12.932
aF1.952
aF2.928
aF7.076
aF1.708
aF4.88
aF8.052
aF5.856
aF8.54
aF5.124
aF5.368
aF4.636
as(I58
S'get HB5-2-biasmon[1-64]_f_rr'
p225
tp226
(lp227
F58.022
aF58.022
aF58.022
aF58.0024
aF58.0415
aF58.0415
aF58.0611
aF58.0611
aF58.0415
aF58.022
aF58.0415
aF58.0415
aF58.0415
aF58.0611
aF58.0415
aF58.0415
aF58.022
aF58.022
aF58.022
aF58.022
aF58.0415
aF58.0415
aF58.0415
aF58.0415
aF58.022
aF58.022
aF58.0415
aF58.022
aF58.0415
aF58.0415
aF58.0415
aF58.0415
aF58.022
aF58.0415
aF58.022
aF58.0415
aF58.0415
aF58.0415
aF58.0415
aF58.0611
aF58.0415
aF58.022
aF58.022
aF58.022
aF58.0415
aF58.0415
aF58.0415
aF58.022
aF58.022
aF58.0415
aF58.022
aF58.022
aF58.0415
aF58.0415
aF58.0415
aF58.0611
aF58.022
aF58.022
aF58.022
aF58.022
aF58.0415
aF58.0415
aF58.022
aF58.0415
as(I60
S'put HB5-2-biasvoltage[1-64]_f 64*60.000000'
p228
tp229
(lp230
S'OK'
p231
as(I4
S'get HB5-2-LeakageCurrent[1-64]_f_rr'
p232
tp233
(lp234
F1.708
aF3.172
aF1.708
aF2.928
aF1.708
aF8.052
aF3.66
aF6.832
aF2.928
aF3.904
aF5.612
aF6.832
aF2.44
aF7.564
aF1.952
aF6.1
aF1.708
aF3.172
aF2.684
aF8.052
aF7.32
aF3.66
aF2.928
aF7.076
aF1.708
aF4.636
aF1.952
aF2.196
aF3.904
aF9.028
aF3.66
aF2.196
aF2.928
aF4.392
aF3.416
aF7.564
aF1.708
aF4.148
aF8.296
aF7.564
aF5.856
aF2.196
aF4.148
aF7.076
aF3.66
aF2.928
aF6.1
aF1.952
aF4.148
aF4.392
aF7.808
aF2.196
aF10.492
aF1.952
aF1.708
aF4.636
aF1.708
aF3.172
aF5.612
aF3.66
aF6.588
aF3.416
aF3.66
aF2.44
as(I10
S'put HB5-2-biasvoltage[1-64]_f 64*10.000000'
p235
tp236
(lp237
S'OK'
p238
as(I40
S'get HB5-2-LeakageCurrent[1-64]_f_rr'
p239
tp240
(lp241
F6.1
aF8.54
aF5.124
aF8.296
aF6.832
aF13.42
aF9.516
aF12.688
aF8.54
aF9.272
aF10.248
aF12.2
aF7.564
aF13.176
aF6.588
aF11.956
aF5.856
aF8.54
aF8.54
aF13.664
aF12.2
aF9.272
aF8.54
aF12.444
aF5.856
aF10.492
aF7.076
aF6.832
aF9.028
aF14.152
aF9.272
aF6.832
aF8.052
aF10.248
aF8.784
aF13.664
aF6.588
aF9.516
aF13.42
aF12.932
aF11.956
aF6.832
aF9.516
aF12.688
aF8.784
aF8.052
aF11.712
aF7.32
aF9.76
aF10.004
aF13.908
aF6.588
aF16.348
aF4.88
aF6.344
aF10.736
aF1.952
aF8.052
aF11.712
aF9.516
aF11.956
aF8.54
aF8.54
aF8.052
as(I14
S'put HB5-2-biasvoltage[1-64]_f 64*14.000000'
p242
tp243
(lp244
S'OK'
p245
as(I30
S'get HB5-2-biasmon[1-64]_f_rr'
p246
tp247
(lp248
F30.0464
aF30.0464
aF30.0659
aF30.0464
aF30.0659
aF30.0659
aF30.0659
aF30.0659
aF30.0464
aF30.0464
aF30.0659
aF30.0659
aF30.0659
aF30.0659
aF30.0659
aF30.0659
aF30.0464
aF30.0464
aF30.0659
aF30.0464
aF30.0659
aF30.0659
aF30.0659
aF30.0659
aF30.0464
aF30.0659
aF30.0659
aF30.0659
aF30.0659
aF30.0659
aF30.0659
aF30.0659
aF30.0464
aF30.0659
aF30.0464
aF30.0464
aF30.0659
aF30.0659
aF30.0659
aF30.0659
aF30.0464
aF30.0659
aF30.0464
aF30.0464
aF30.0659
aF30.0659
aF30.0464
aF30.0464
aF30.0464
aF30.0659
aF30.0464
aF30.0659
aF30.0659
aF30.0659
aF30.0659
aF30.0659
aF30.0464
aF30.0659
aF30.0464
aF30.0464
aF30.0659
aF30.0659
aF30.0464
aF30.0659
as(I34
S'get HB5-2-biasmon[1-64]_f_rr'
p249
tp250
(lp251
F34.0122
aF34.0317
aF34.0317
aF34.0122
aF34.0513
aF34.0513
aF34.0513
aF34.0513
aF34.0317
aF34.0317
aF34.0317
aF34.0317
aF34.0513
aF34.0513
aF34.0513
aF34.0513
aF34.0317
aF34.0317
aF34.0317
aF34.0317
aF34.0513
aF34.0513
aF34.0317
aF34.0513
aF34.0317
aF34.0317
aF34.0513
aF34.0317
aF34.0317
aF34.0317
aF34.0317
aF34.0513
aF34.0122
aF34.0317
aF34.0317
aF34.0317
aF34.0513
aF34.0513
aF34.0317
aF34.0513
aF34.0317
aF34.0317
aF34.0317
aF34.0317
aF34.0513
aF34.0513
aF34.0317
aF34.0317
aF34.0317
aF34.0317
aF34.0317
aF34.0317
aF34.0513
aF34.0317
aF34.0513
aF34.0513
aF34.0317
aF34.0317
aF34.0317
aF34.0317
aF34.0317
aF34.0513
aF34.0317
aF34.0513
as(I40
S'get HB5-2-biasmon[1-64]_f_rr'
p252
tp253
(lp254
F40.0098
aF40.0293
aF40.0293
aF40.0098
aF40.0488
aF40.0293
aF40.0488
aF40.0488
aF40.0293
aF40.0293
aF40.0293
aF40.0293
aF40.0488
aF40.0488
aF40.0488
aF40.0293
aF40.0098
aF40.0293
aF40.0293
aF40.0098
aF40.0488
aF40.0293
aF40.0293
aF40.0488
aF40.0293
aF40.0293
aF40.0488
aF40.0293
aF40.0293
aF40.0488
aF40.0488
aF40.0488
aF40.0098
aF40.0293
aF40.0293
aF40.0293
aF40.0293
aF40.0488
aF40.0488
aF40.0488
aF40.0293
aF40.0293
aF40.0293
aF40.0293
aF40.0488
aF40.0488
aF40.0293
aF40.0293
aF40.0293
aF40.0293
aF40.0293
aF40.0293
aF40.0293
aF40.0488
aF40.0488
aF40.0488
aF40.0293
aF40.0293
aF40.0293
aF40.0293
aF40.0293
aF40.0293
aF40.0293
aF40.0488
as(I38
S'get HB5-2-LeakageCurrent[1-64]_f_rr'
p255
tp256
(lp257
F5.856
aF8.296
aF4.636
aF7.808
aF6.588
aF12.932
aF9.028
aF12.444
aF8.296
aF8.784
aF10.004
aF11.956
aF7.32
aF12.688
aF6.344
aF11.712
aF5.368
aF8.052
aF8.296
aF13.176
aF11.956
aF9.028
aF8.052
aF12.2
aF5.612
aF10.248
aF6.832
aF6.588
aF8.784
aF13.908
aF8.784
aF6.344
aF7.564
aF10.004
aF8.54
aF13.176
aF6.1
aF9.272
aF13.176
aF12.688
aF11.712
aF6.344
aF9.272
aF12.444
aF8.54
aF7.808
aF11.224
aF7.076
aF9.516
aF9.76
aF13.664
aF6.344
aF15.86
aF4.636
aF6.1
aF10.492
aF1.952
aF7.808
aF11.224
aF9.028
aF11.712
aF8.052
aF8.296
aF7.808
as(I60
S'get HB5-2-biasmon[1-64]_f_rr'
p258
tp259
(lp260
F59.9951
aF59.9951
aF60.0147
aF60.0147
aF60.0342
aF60.0342
aF60.0537
aF60.0342
aF60.0147
aF60.0147
aF60.0342
aF60.0147
aF60.0342
aF60.0537
aF60.0342
aF60.0342
aF60.0147
aF60.0147
aF60.0147
aF59.9951
aF60.0342
aF60.0342
aF60.0147
aF60.0342
aF60.0147
aF60.0147
aF60.0342
aF60.0147
aF60.0342
aF60.0342
aF60.0342
aF60.0342
aF60.0147
aF60.0147
aF60.0147
aF60.0342
aF60.0342
aF60.0342
aF60.0342
aF60.0342
aF60.0147
aF60.0147
aF60.0147
aF59.9951
aF60.0342
aF60.0342
aF60.0147
aF60.0147
aF60.0147
aF60.0147
aF60.0147
aF60.0342
aF60.0342
aF60.0342
aF60.0537
aF60.0342
aF60.0147
aF60.0147
aF60.0147
aF60.0147
aF60.0342
aF60.0147
aF60.0147
aF60.0342
as(I8
S'get HB5-2-LeakageCurrent[1-64]_f_rr'
p261
tp262
(lp263
F1.952
aF3.416
aF1.708
aF3.416
aF2.196
aF8.54
aF4.148
aF7.808
aF3.66
aF4.392
aF5.856
aF7.32
aF2.928
aF7.808
aF2.196
aF6.588
aF1.708
aF3.66
aF3.172
aF8.296
aF7.564
aF4.148
aF3.66
aF7.564
aF1.708
aF5.612
aF2.44
aF2.44
aF4.392
aF9.272
aF4.148
aF2.196
aF2.928
aF5.124
aF3.904
aF8.54
aF1.952
aF4.88
aF8.54
aF8.052
aF7.076
aF2.196
aF4.636
aF8.052
aF3.66
aF3.172
aF6.1
aF2.44
aF5.124
aF5.124
aF8.784
aF2.196
aF11.224
aF1.952
aF1.952
aF5.612
aF1.708
aF3.416
aF6.344
aF4.392
aF7.076
aF3.66
aF3.66
aF2.928
as(I16
S'get HB5-2-LeakageCurrent[1-64]_f_rr'
p264
tp265
(lp266
F2.928
aF4.88
aF1.708
aF4.392
aF3.172
aF9.516
aF5.612
aF9.028
aF4.88
aF5.368
aF6.832
aF8.54
aF4.148
aF9.272
aF3.172
aF8.052
aF2.196
aF4.636
aF4.636
aF9.76
aF8.54
aF5.612
aF4.88
aF8.784
aF2.44
aF6.832
aF3.66
aF3.416
aF5.612
aF10.492
aF5.368
aF3.172
aF4.148
aF6.588
aF5.368
aF9.76
aF2.928
aF6.1
aF9.76
aF9.272
aF8.052
aF2.928
aF6.1
aF9.028
aF4.88
aF4.392
aF7.564
aF3.66
aF6.1
aF6.588
aF10.004
aF3.172
aF12.444
aF1.952
aF2.928
aF6.832
aF1.708
aF4.636
aF7.564
aF5.856
aF8.052
aF4.88
aF5.124
aF4.392
as(I6
S'get HB5-2-biasmon[1-64]_f_rr'
p267
tp268
(lp269
F6.05617
aF6.05617
aF6.05617
aF6.03663
aF6.05617
aF6.05617
aF6.05617
aF6.0757
aF6.05617
aF6.05617
aF6.05617
aF6.05617
aF6.05617
aF6.05617
aF6.05617
aF6.05617
aF6.05617
aF6.05617
aF6.05617
aF6.05617
aF6.05617
aF6.05617
aF6.05617
aF6.05617
aF6.05617
aF6.03663
aF6.05617
aF6.05617
aF6.05617
aF6.05617
aF6.05617
aF6.05617
aF6.03663
aF6.05617
aF6.05617
aF6.05617
aF6.0757
aF6.0757
aF6.05617
aF6.05617
aF6.05617
aF6.05617
aF6.05617
aF6.05617
aF6.05617
aF6.05617
aF6.05617
aF6.05617
aF6.05617
aF6.05617
aF6.05617
aF6.05617
aF6.05617
aF6.05617
aF6.05617
aF6.05617
aF6.05617
aF6.0757
aF6.05617
aF6.0757
aF6.05617
aF6.05617
aF6.05617
aF6.05617
as(I10
S'get HB5-2-biasmon[1-64]_f_rr'
p270
tp271
(lp272
F10.0415
aF10.0611
aF10.0611
aF10.0611
aF10.0611
aF10.0611
aF10.0611
aF10.0611
aF10.0611
aF10.0611
aF10.0611
aF10.0611
aF10.0611
aF10.0611
aF10.0611
aF10.0611
aF10.0611
aF10.0611
aF10.0611
aF10.0611
aF10.0611
aF10.0611
aF10.0611
aF10.0611
aF10.0611
aF10.0611
aF10.0611
aF10.0611
aF10.0611
aF10.0611
aF10.0611
aF10.0611
aF10.0611
aF10.0611
aF10.0611
aF10.0611
aF10.0611
aF10.0611
aF10.0611
aF10.0611
aF10.0611
aF10.0611
aF10.0611
aF10.0611
aF10.0611
aF10.0611
aF10.0611
aF10.0611
aF10.0611
aF10.0611
aF10.0611
aF10.0611
aF10.0611
aF10.0611
aF10.0611
aF10.0611
aF10.0611
aF10.0611
aF10.0611
aF10.0611
aF10.0611
aF10.0611
aF10.0611
aF10.0611
as(I16
S'get HB5-2-biasmon[1-64]_f_rr'
p273
tp274
(lp275
F16.0391
aF16.0391
aF16.0586
aF16.0586
aF16.0586
aF16.0586
aF16.0586
aF16.0586
aF16.0586
aF16.0586
aF16.0586
aF16.0586
aF16.0586
aF16.0586
aF16.0586
aF16.0586
aF16.0586
aF16.0586
aF16.0586
aF16.0586
aF16.0586
aF16.0586
aF16.0586
aF16.0586
aF16.0586
aF16.0586
aF16.0781
aF16.0586
aF16.0586
aF16.0586
aF16.0586
aF16.0586
aF16.0391
aF16.0391
aF16.0586
aF16.0586
aF16.0586
aF16.0586
aF16.0586
aF16.0781
aF16.0586
aF16.0586
aF16.0586
aF16.0586
aF16.0586
aF16.0586
aF16.0586
aF16.0586
aF16.0586
aF16.0586
aF16.0586
aF16.0586
aF16.0586
aF16.0586
aF16.0586
aF16.0586
aF16.0586
aF16.0586
aF16.0586
aF16.0586
aF16.0586
aF16.0586
aF16.0586
aF16.0586
as(I48
S'put HB5-2-biasvoltage[1-64]_f 64*48.000000'
p276
tp277
(lp278
S'OK'
p279
as(I36
S'get HB5-2-biasmon[1-64]_f_rr'
p280
tp281
(lp282
F36.044
aF36.044
aF36.044
aF36.044
aF36.0635
aF36.0635
aF36.0635
aF36.0635
aF36.044
aF36.044
aF36.0635
aF36.0635
aF36.0635
aF36.0635
aF36.0635
aF36.0635
aF36.044
aF36.044
aF36.044
aF36.044
aF36.0635
aF36.0635
aF36.0635
aF36.0635
aF36.044
aF36.044
aF36.0635
aF36.044
aF36.0635
aF36.0635
aF36.0635
aF36.0635
aF36.044
aF36.044
aF36.044
aF36.044
aF36.0635
aF36.0635
aF36.0635
aF36.0635
aF36.044
aF36.044
aF36.044
aF36.044
aF36.0635
aF36.0635
aF36.0635
aF36.044
aF36.044
aF36.044
aF36.044
aF36.0635
aF36.0635
aF36.0635
aF36.0635
aF36.0635
aF36.044
aF36.044
aF36.044
aF36.044
aF36.0635
aF36.0635
aF36.044
aF36.0635
as(I50
S'get HB5-2-LeakageCurrent[1-64]_f_rr'
p283
tp284
(lp285
F7.564
aF10.248
aF6.588
aF9.76
aF8.296
aF14.64
aF10.98
aF14.396
aF10.004
aF10.98
aF11.712
aF13.664
aF9.272
aF14.64
aF8.052
aF13.664
aF7.32
aF10.004
aF10.004
aF15.128
aF13.664
aF10.98
aF10.004
aF14.152
aF7.564
aF11.956
aF8.784
aF8.54
aF10.736
aF15.616
aF10.736
aF8.296
aF9.516
aF11.956
aF10.248
aF15.128
aF8.052
aF11.224
aF14.884
aF14.396
aF13.664
aF8.052
aF10.98
aF14.396
aF10.492
aF9.516
aF13.176
aF8.784
aF11.468
aF11.712
aF15.372
aF8.052
aF17.812
aF6.588
aF7.808
aF12.2
aF3.416
aF9.76
aF13.176
aF10.98
aF13.42
aF10.004
aF10.248
aF9.76
as(I36
S'get HB5-2-LeakageCurrent[1-64]_f_rr'
p286
tp287
(lp288
F5.612
aF8.052
aF4.636
aF7.564
aF6.1
aF12.688
aF8.784
aF12.2
aF7.808
aF8.54
aF9.76
aF11.712
aF7.076
aF12.444
aF6.1
aF11.224
aF5.124
aF7.808
aF7.808
aF12.932
aF11.712
aF8.784
aF7.808
aF11.956
aF5.368
aF9.76
aF6.588
aF6.1
aF8.54
aF13.664
aF8.54
aF6.1
aF7.32
aF9.516
aF8.052
aF12.932
aF5.856
aF9.028
aF12.688
aF12.444
aF11.224
aF6.1
aF9.028
aF12.2
aF8.052
aF7.564
aF10.736
aF6.832
aF9.272
aF9.516
aF13.42
aF6.1
aF15.616
aF4.392
aF5.856
aF10.004
aF1.708
aF7.564
aF10.98
aF8.784
aF11.224
aF7.808
aF8.052
aF7.564
as(I54
S'put HB5-2-biasvoltage[1-64]_f 64*54.000000'
p289
tp290
(lp291
S'OK'
p292
as(I44
S'get HB5-2-LeakageCurrent[1-64]_f_rr'
p293
tp294
(lp295
F6.588
aF9.272
aF5.612
aF8.784
aF7.32
aF13.908
aF10.004
aF13.42
aF9.272
aF9.76
aF10.98
aF12.688
aF8.296
aF13.664
aF7.32
aF12.444
aF6.344
aF9.028
aF9.272
aF14.152
aF12.688
aF10.004
aF9.028
aF13.176
aF6.588
aF10.98
aF7.808
aF7.564
aF9.76
aF14.64
aF9.76
aF7.32
aF8.54
aF10.736
aF9.516
aF14.152
aF7.076
aF10.248
aF13.908
aF13.664
aF12.444
aF7.32
aF10.004
aF13.42
aF9.516
aF8.54
aF11.956
aF8.052
aF10.492
aF10.736
aF14.64
aF7.32
aF16.836
aF5.612
aF6.832
aF11.224
aF2.44
aF8.784
aF12.2
aF10.004
aF12.444
aF9.028
aF9.272
aF8.784
as(I20
S'put HB5-2-biasvoltage[1-64]_f 64*20.000000'
p296
tp297
(lp298
S'OK'
p299
as(I12
S'get HB5-2-biasmon[1-64]_f_rr'
p300
tp301
(lp302
F12.0342
aF12.0342
aF12.0537
aF12.0342
aF12.0537
aF12.0537
aF12.0537
aF12.0537
aF12.0537
aF12.0342
aF12.0537
aF12.0537
aF12.0537
aF12.0537
aF12.0537
aF12.0537
aF12.0342
aF12.0537
aF12.0537
aF12.0537
aF12.0537
aF12.0537
aF12.0537
aF12.0537
aF12.0342
aF12.0342
aF12.0537
aF12.0537
aF12.0537
aF12.0537
aF12.0537
aF12.0537
aF12.0342
aF12.0342
aF12.0342
aF12.0537
aF12.0537
aF12.0537
aF12.0537
aF12.0537
aF12.0537
aF12.0537
aF12.0537
aF12.0342
aF12.0537
aF12.0537
aF12.0537
aF12.0537
aF12.0537
aF12.0537
aF12.0537
aF12.0537
aF12.0537
aF12.0537
aF12.0537
aF12.0537
aF12.0537
aF12.0537
aF12.0537
aF12.0537
aF12.0537
aF12.0537
aF12.0537
aF12.0537
as(I26
S'put HB5-2-biasvoltage[1-64]_f 64*26.000000'
p303
tp304
(lp305
S'OK'
p306
as(I40
S'put HB5-2-biasvoltage[1-64]_f 64*40.000000'
p307
tp308
(lp309
S'OK'
p310
as.