(dp0
(I5
S'get HB10-2-LeakageCurrent[1-64]_f_rr'
p1
tp2
(lp3
F8.296
aF1.708
aF2.196
aF1.708
aF5.368
aF3.416
aF2.684
aF3.904
aF3.66
aF2.44
aF2.196
aF2.196
aF1.708
aF3.172
aF3.66
aF6.1
aF3.904
aF6.832
aF8.784
aF2.196
aF8.54
aF6.344
aF3.416
aF1.708
aF5.124
aF5.368
aF4.392
aF1.708
aF6.588
aF1.708
aF5.612
aF1.952
aF5.368
aF5.368
aF1.708
aF4.148
aF6.588
aF2.928
aF2.196
aF4.88
aF3.904
aF5.856
aF5.368
aF2.928
aF2.684
aF3.66
aF1.952
aF2.684
aF2.928
aF3.172
aF3.172
aF3.172
aF6.1
aF2.196
aF1.952
aF4.636
aF6.588
aF3.904
aF6.1
aF2.44
aF1.952
aF9.272
aF5.856
aF2.684
as(I25
S'get HB10-2-LeakageCurrent[1-64]_f_rr'
p4
tp5
(lp6
F11.712
aF1.708
aF4.636
aF3.416
aF8.54
aF6.344
aF5.856
aF6.832
aF6.588
aF5.856
aF4.88
aF4.636
aF2.44
aF6.344
aF6.832
aF9.272
aF6.832
aF9.272
aF12.2
aF4.636
aF11.956
aF9.516
aF6.588
aF2.196
aF7.808
aF8.54
aF7.32
aF1.708
aF10.004
aF2.44
aF8.052
aF3.66
aF8.296
aF8.54
aF3.416
aF7.32
aF9.516
aF5.856
aF5.368
aF7.564
aF6.588
aF9.272
aF8.784
aF6.1
aF5.856
aF6.588
aF4.636
aF5.856
aF5.612
aF6.344
aF6.1
aF6.1
aF9.028
aF4.88
aF4.636
aF8.052
aF9.516
aF6.832
aF9.76
aF5.368
aF4.636
aF12.932
aF8.784
aF5.612
as(I60
S'put HB10-2-biasvoltage[1-64]_f 64*60.000000'
p7
tp8
(lp9
S'OK'
p10
as(I0
S'get HB10-2-biasmon[1-64]_f_rr'
p11
tp12
(lp13
F0.0586081
aF0.0586081
aF0.0586081
aF0.0586081
aF0.0586081
aF0.0586081
aF0.0586081
aF0.0586081
aF0.0586081
aF0.0586081
aF0.0586081
aF0.0586081
aF0.0586081
aF0.0586081
aF0.0586081
aF0.0586081
aF0.0586081
aF0.0586081
aF0.0586081
aF0.0586081
aF0.0586081
aF0.0586081
aF0.0586081
aF0.0586081
aF0.0586081
aF0.0586081
aF0.0586081
aF0.0586081
aF0.0586081
aF0.0586081
aF0.0586081
aF0.0586081
aF0.0586081
aF0.0586081
aF0.0586081
aF0.0586081
aF0.0586081
aF0.0586081
aF0.0586081
aF0.0586081
aF0.0586081
aF0.0586081
aF0.0586081
aF0.0586081
aF0.0586081
aF0.0586081
aF0.0586081
aF0.0586081
aF0.0586081
aF0.0586081
aF0.0586081
aF0.0586081
aF0.0586081
aF0.0586081
aF0.0586081
aF0.0586081
aF0.0586081
aF0.0586081
aF0.0586081
aF0.0586081
aF0.0586081
aF0.0586081
aF0.0586081
aF0.0586081
as(I30
S'get HB10-2-LeakageCurrent[1-64]_f_rr'
p14
tp15
(lp16
F12.444
aF1.952
aF5.368
aF4.148
aF9.516
aF7.076
aF6.588
aF7.564
aF7.32
aF6.588
aF5.612
aF5.368
aF3.172
aF7.076
aF7.564
aF10.004
aF7.564
aF10.004
aF12.932
aF5.368
aF12.688
aF10.492
aF7.564
aF2.928
aF8.54
aF9.516
aF8.052
aF1.952
aF10.736
aF2.928
aF8.784
aF4.392
aF9.272
aF9.272
aF4.148
aF7.808
aF10.492
aF6.832
aF6.1
aF8.54
aF7.32
aF10.004
aF9.76
aF7.076
aF6.588
aF7.564
aF5.612
aF6.344
aF6.344
aF7.076
aF6.832
aF6.832
aF9.516
aF5.612
aF5.368
aF8.784
aF10.248
aF7.564
aF10.736
aF5.856
aF5.612
aF13.908
aF9.516
aF6.344
as(I35
S'get HB10-2-LeakageCurrent[1-64]_f_rr'
p17
tp18
(lp19
F13.176
aF2.44
aF6.1
aF4.636
aF10.248
aF7.808
aF7.32
aF8.54
aF8.052
aF7.32
aF6.344
aF6.1
aF3.904
aF7.808
aF8.296
aF10.98
aF8.296
aF10.736
aF13.664
aF6.1
aF13.42
aF11.224
aF8.296
aF3.66
aF9.272
aF10.248
aF8.784
aF2.44
aF11.712
aF3.66
aF9.516
aF5.124
aF9.76
aF10.004
aF4.88
aF8.784
aF11.224
aF7.564
aF6.832
aF9.272
aF8.052
aF10.736
aF10.492
aF7.808
aF7.32
aF8.052
aF6.1
aF7.32
aF7.076
aF7.808
aF7.564
aF7.564
aF10.492
aF6.588
aF5.856
aF9.516
aF10.98
aF8.052
aF11.468
aF6.832
aF6.1
aF14.64
aF10.004
aF7.32
as(I50
S'get HB10-2-biasmon[1-64]_f_rr'
p20
tp21
(lp22
F50.0513
aF50.0513
aF50.0317
aF50.0513
aF50.0513
aF50.0513
aF50.0317
aF50.0317
aF50.0513
aF50.0513
aF50.0513
aF50.0513
aF50.0513
aF50.0513
aF50.0513
aF50.0317
aF50.0513
aF50.0317
aF50.0513
aF50.0317
aF50.0513
aF50.0513
aF50.0317
aF50.0513
aF50.0513
aF50.0513
aF50.0513
aF50.0513
aF50.0513
aF50.0513
aF50.0513
aF50.0317
aF50.0513
aF50.0513
aF50.0513
aF50.0513
aF50.0513
aF50.0513
aF50.0513
aF50.0513
aF50.0513
aF50.0513
aF50.0513
aF50.0513
aF50.0513
aF50.0317
aF50.0317
aF50.0513
aF50.0513
aF50.0513
aF50.0513
aF50.0513
aF50.0513
aF50.0513
aF50.0513
aF50.0513
aF50.0513
aF50.0513
aF50.0513
aF50.0513
aF50.0513
aF50.0513
aF50.0513
aF50.0317
as(I45
S'get HB10-2-biasmon[1-64]_f_rr'
p23
tp24
(lp25
F45.0501
aF45.0501
aF45.0501
aF45.0501
aF45.0501
aF45.0501
aF45.0305
aF45.0501
aF45.0501
aF45.0501
aF45.0501
aF45.0501
aF45.0501
aF45.0501
aF45.0501
aF45.0501
aF45.0501
aF45.0305
aF45.0501
aF45.0305
aF45.0305
aF45.0501
aF45.0305
aF45.0501
aF45.0501
aF45.0501
aF45.0305
aF45.0501
aF45.0501
aF45.0501
aF45.0305
aF45.0501
aF45.0501
aF45.0501
aF45.0501
aF45.0501
aF45.0501
aF45.0501
aF45.0501
aF45.0501
aF45.0501
aF45.0501
aF45.0501
aF45.0501
aF45.0501
aF45.0305
aF45.0305
aF45.0501
aF45.0501
aF45.0501
aF45.0501
aF45.0501
aF45.0501
aF45.0501
aF45.0696
aF45.0501
aF45.0501
aF45.0501
aF45.0501
aF45.0501
aF45.0501
aF45.0501
aF45.0501
aF45.0305
as(I45
S'get HB10-2-LeakageCurrent[1-64]_f_rr'
p26
tp27
(lp28
F14.64
aF3.904
aF7.564
aF6.1
aF11.712
aF9.272
aF9.028
aF10.004
aF9.516
aF8.784
aF7.808
aF7.564
aF5.368
aF9.516
aF9.76
aF12.444
aF10.004
aF12.444
aF15.372
aF7.564
aF15.128
aF12.688
aF9.76
aF5.124
aF10.736
aF11.712
aF10.248
aF3.904
aF13.176
aF5.368
aF11.224
aF6.588
aF11.468
aF11.712
aF6.588
aF10.248
aF12.688
aF9.272
aF8.54
aF10.736
aF9.76
aF12.2
aF11.956
aF9.516
aF9.028
aF9.516
aF7.564
aF8.784
aF8.54
aF9.516
aF9.028
aF9.272
aF11.712
aF8.052
aF7.564
aF10.98
aF12.688
aF9.516
aF12.932
aF8.296
aF7.564
aF16.348
aF11.712
aF8.784
as(I0
S'get HB10-2-LeakageCurrent[1-64]_f_rr'
p29
tp30
(lp31
F7.564
aF1.708
aF1.708
aF1.708
aF4.88
aF2.928
aF2.196
aF2.928
aF2.684
aF1.952
aF1.708
aF1.952
aF1.708
aF2.44
aF3.416
aF5.368
aF3.172
aF5.856
aF8.052
aF1.952
aF7.564
aF5.612
aF2.928
aF1.708
aF4.392
aF4.88
aF3.66
aF1.952
aF6.1
aF1.708
aF4.636
aF1.708
aF4.392
aF4.392
aF1.708
aF3.66
aF5.612
aF2.196
aF1.952
aF3.904
aF2.928
aF5.368
aF4.88
aF2.196
aF2.196
aF3.172
aF1.708
aF2.196
aF2.196
aF2.684
aF2.684
aF2.684
aF5.856
aF1.708
aF1.708
aF4.392
aF5.856
aF3.416
aF5.612
aF2.196
aF1.708
aF8.54
aF5.368
aF2.196
as(I60
S'get HB10-2-biasmon[1-64]_f_rr'
p32
tp33
(lp34
F60.0537
aF60.0342
aF60.0342
aF60.0537
aF60.0537
aF60.0537
aF60.0342
aF60.0342
aF60.0537
aF60.0342
aF60.0537
aF60.0342
aF60.0342
aF60.0537
aF60.0342
aF60.0342
aF60.0537
aF60.0342
aF60.0342
aF60.0342
aF60.0342
aF60.0342
aF60.0342
aF60.0537
aF60.0537
aF60.0537
aF60.0537
aF60.0537
aF60.0342
aF60.0537
aF60.0342
aF60.0342
aF60.0537
aF60.0537
aF60.0537
aF60.0537
aF60.0342
aF60.0537
aF60.0342
aF60.0537
aF60.0342
aF60.0537
aF60.0342
aF60.0537
aF60.0342
aF60.0342
aF60.0342
aF60.0342
aF60.0342
aF60.0342
aF60.0342
aF60.0537
aF60.0537
aF60.0537
aF60.0537
aF60.0342
aF60.0342
aF60.0342
aF60.0537
aF60.0342
aF60.0537
aF60.0537
aF60.0342
aF60.0342
as(I20
S'put HB10-2-biasvoltage[1-64]_f 64*20.000000'
p35
tp36
(lp37
S'OK'
p38
as(I55
S'get HB10-2-biasmon[1-64]_f_rr'
p39
tp40
(lp41
F55.0525
aF55.0525
aF55.0525
aF55.0525
aF55.0525
aF55.0525
aF55.033
aF55.033
aF55.0525
aF55.0525
aF55.0525
aF55.0525
aF55.0525
aF55.0525
aF55.033
aF55.0525
aF55.0525
aF55.0525
aF55.0525
aF55.033
aF55.0525
aF55.0525
aF55.0525
aF55.0525
aF55.0525
aF55.0525
aF55.0525
aF55.0525
aF55.0525
aF55.0525
aF55.0525
aF55.033
aF55.0525
aF55.0525
aF55.0525
aF55.0525
aF55.0525
aF55.0525
aF55.0525
aF55.0525
aF55.0525
aF55.0525
aF55.0525
aF55.0525
aF55.0525
aF55.033
aF55.033
aF55.0525
aF55.0525
aF55.0525
aF55.0525
aF55.0525
aF55.072
aF55.0525
aF55.0525
aF55.0525
aF55.0525
aF55.0525
aF55.0525
aF55.0525
aF55.0525
aF55.0525
aF55.0525
aF55.0525
as(I55
S'get HB10-2-LeakageCurrent[1-64]_f_rr'
p42
tp43
(lp44
F16.348
aF5.368
aF9.272
aF7.564
aF13.42
aF10.98
aF10.492
aF11.712
aF11.224
aF10.492
aF9.516
aF9.272
aF6.832
aF10.98
aF11.468
aF14.152
aF11.468
aF13.908
aF16.836
aF9.272
aF16.592
aF14.396
aF11.468
aF6.832
aF12.444
aF13.176
aF11.956
aF5.368
aF14.64
aF6.832
aF12.688
aF8.052
aF12.932
aF13.176
aF8.052
aF11.712
aF14.396
aF10.736
aF10.004
aF12.444
aF11.224
aF13.908
aF13.664
aF10.98
aF10.492
aF11.224
aF9.516
aF10.492
aF10.248
aF10.98
aF10.736
aF10.736
aF13.42
aF9.516
aF9.028
aF12.444
aF14.152
aF11.224
aF14.64
aF9.76
aF9.272
aF17.812
aF13.176
aF10.248
as(I10
S'get HB10-2-biasmon[1-64]_f_rr'
p45
tp46
(lp47
F10.0611
aF10.0611
aF10.0611
aF10.0611
aF10.0806
aF10.0611
aF10.0611
aF10.0611
aF10.0611
aF10.0611
aF10.0611
aF10.0611
aF10.0611
aF10.0611
aF10.0611
aF10.0611
aF10.0611
aF10.0611
aF10.0611
aF10.0611
aF10.0611
aF10.0611
aF10.0611
aF10.0611
aF10.0611
aF10.0611
aF10.0611
aF10.0611
aF10.0611
aF10.0611
aF10.0611
aF10.0611
aF10.0611
aF10.0611
aF10.0611
aF10.0611
aF10.0611
aF10.0611
aF10.0611
aF10.0611
aF10.0611
aF10.0611
aF10.0611
aF10.0611
aF10.0611
aF10.0611
aF10.0611
aF10.0611
aF10.0611
aF10.0611
aF10.0611
aF10.0611
aF10.0611
aF10.0611
aF10.0611
aF10.0611
aF10.0611
aF10.0611
aF10.0611
aF10.0611
aF10.0611
aF10.0611
aF10.0611
aF10.0611
as(I5
S'get HB10-2-biasmon[1-64]_f_rr'
p48
tp49
(lp50
F5.05983
aF5.05983
aF5.05983
aF5.05983
aF5.05983
aF5.05983
aF5.05983
aF5.05983
aF5.05983
aF5.05983
aF5.05983
aF5.05983
aF5.05983
aF5.05983
aF5.05983
aF5.05983
aF5.05983
aF5.05983
aF5.05983
aF5.05983
aF5.05983
aF5.05983
aF5.05983
aF5.05983
aF5.05983
aF5.05983
aF5.05983
aF5.05983
aF5.05983
aF5.05983
aF5.05983
aF5.05983
aF5.05983
aF5.05983
aF5.05983
aF5.05983
aF5.05983
aF5.05983
aF5.05983
aF5.05983
aF5.05983
aF5.05983
aF5.05983
aF5.05983
aF5.05983
aF5.05983
aF5.05983
aF5.05983
aF5.05983
aF5.05983
aF5.05983
aF5.05983
aF5.05983
aF5.05983
aF5.05983
aF5.05983
aF5.05983
aF5.05983
aF5.05983
aF5.05983
aF5.05983
aF5.05983
aF5.05983
aF5.05983
as(I30
S'put HB10-2-biasvoltage[1-64]_f 64*30.000000'
p51
tp52
(lp53
S'OK'
p54
as(I20
S'get HB10-2-biasmon[1-64]_f_rr'
p55
tp56
(lp57
F20.0635
aF20.0635
aF20.0635
aF20.0635
aF20.0635
aF20.0635
aF20.0635
aF20.0635
aF20.0635
aF20.0635
aF20.0635
aF20.0635
aF20.0635
aF20.0635
aF20.0635
aF20.0635
aF20.0635
aF20.0635
aF20.0635
aF20.0635
aF20.0635
aF20.0635
aF20.0635
aF20.0635
aF20.0635
aF20.0635
aF20.0635
aF20.0635
aF20.0635
aF20.0635
aF20.0635
aF20.0635
aF20.0635
aF20.0635
aF20.0635
aF20.0635
aF20.0635
aF20.0635
aF20.0635
aF20.0635
aF20.0635
aF20.0635
aF20.0635
aF20.0635
aF20.0635
aF20.0635
aF20.0635
aF20.0635
aF20.0635
aF20.0635
aF20.0635
aF20.0635
aF20.0635
aF20.0635
aF20.0635
aF20.0635
aF20.0635
aF20.0635
aF20.0635
aF20.0635
aF20.0635
aF20.0635
aF20.0635
aF20.0635
as(I15
S'get HB10-2-biasmon[1-64]_f_rr'
p58
tp59
(lp60
F15.0623
aF15.0623
aF15.0623
aF15.0623
aF15.0623
aF15.0623
aF15.0623
aF15.0623
aF15.0623
aF15.0623
aF15.0623
aF15.0623
aF15.0623
aF15.0623
aF15.0623
aF15.0623
aF15.0623
aF15.0623
aF15.0623
aF15.0623
aF15.0623
aF15.0623
aF15.0623
aF15.0818
aF15.0623
aF15.0623
aF15.0623
aF15.0623
aF15.0623
aF15.0623
aF15.0623
aF15.0623
aF15.0623
aF15.0623
aF15.0623
aF15.0623
aF15.0623
aF15.0623
aF15.0623
aF15.0623
aF15.0623
aF15.0623
aF15.0623
aF15.0623
aF15.0623
aF15.0623
aF15.0623
aF15.0623
aF15.0623
aF15.0623
aF15.0623
aF15.0623
aF15.0623
aF15.0623
aF15.0818
aF15.0623
aF15.0623
aF15.0623
aF15.0623
aF15.0623
aF15.0623
aF15.0623
aF15.0623
aF15.0623
as(I15
S'get HB10-2-LeakageCurrent[1-64]_f_rr'
p61
tp62
(lp63
F10.004
aF1.708
aF2.928
aF2.196
aF7.076
aF4.88
aF4.148
aF5.368
aF5.124
aF4.148
aF3.416
aF3.172
aF1.708
aF4.636
aF5.368
aF7.564
aF5.368
aF7.808
aF10.492
aF3.172
aF10.248
aF8.052
aF5.124
aF1.708
aF6.344
aF7.076
aF5.856
aF1.952
aF8.54
aF1.708
aF6.832
aF2.44
aF6.832
aF6.832
aF1.952
aF5.856
aF8.052
aF4.392
aF3.66
aF6.1
aF5.124
aF7.564
aF7.32
aF4.636
aF4.392
aF5.124
aF3.172
aF4.148
aF4.148
aF4.88
aF4.636
aF4.636
aF7.564
aF3.416
aF2.928
aF6.344
aF7.808
aF5.368
aF8.052
aF3.904
aF3.416
aF11.224
aF7.32
aF4.148
as(I40
S'put HB10-2-biasvoltage[1-64]_f 64*40.000000'
p64
tp65
(lp66
S'OK'
p67
as(I25
S'put HB10-2-biasvoltage[1-64]_f 64*25.000000'
p68
tp69
(lp70
S'OK'
p71
as(I10
S'get HB10-2-LeakageCurrent[1-64]_f_rr'
p72
tp73
(lp74
F9.028
aF1.708
aF2.44
aF1.952
aF6.344
aF4.148
aF3.66
aF4.392
aF4.148
aF3.172
aF2.684
aF2.44
aF1.708
aF3.66
aF4.636
aF7.076
aF4.392
aF7.076
aF9.76
aF2.684
aF9.516
aF7.32
aF4.148
aF1.708
aF5.856
aF6.588
aF5.124
aF1.952
aF7.564
aF1.708
aF5.856
aF2.196
aF6.1
aF5.856
aF1.708
aF4.88
aF7.32
aF3.416
aF2.928
aF5.368
aF4.392
aF6.832
aF6.344
aF3.904
aF3.66
aF4.392
aF2.44
aF3.66
aF3.66
aF4.148
aF3.66
aF3.904
aF6.832
aF2.684
aF2.196
aF5.856
aF7.32
aF4.636
aF7.564
aF2.928
aF2.684
aF10.492
aF6.588
aF3.416
as(I0
S'put HB10-2-biasvoltage[1-64]_f 64*0.000000'
p75
tp76
(lp77
S'OK'
p78
as(I25
S'get HB10-2-biasmon[1-64]_f_rr'
p79
tp80
(lp81
F25.0647
aF25.0647
aF25.0647
aF25.0647
aF25.0647
aF25.0647
aF25.0647
aF25.0647
aF25.0647
aF25.0647
aF25.0647
aF25.0647
aF25.0647
aF25.0647
aF25.0647
aF25.0647
aF25.0647
aF25.0647
aF25.0647
aF25.0647
aF25.0647
aF25.0647
aF25.0647
aF25.0647
aF25.0647
aF25.0647
aF25.0647
aF25.0647
aF25.0647
aF25.0647
aF25.0647
aF25.0647
aF25.0647
aF25.0647
aF25.0647
aF25.0647
aF25.0647
aF25.0647
aF25.0647
aF25.0647
aF25.0647
aF25.0647
aF25.0647
aF25.0647
aF25.0647
aF25.0647
aF25.0647
aF25.0647
aF25.0647
aF25.0647
aF25.0647
aF25.0647
aF25.0647
aF25.0647
aF25.0647
aF25.0647
aF25.0647
aF25.0647
aF25.0647
aF25.0647
aF25.0647
aF25.0647
aF25.0647
aF25.0647
as(I20
S'get HB10-2-LeakageCurrent[1-64]_f_rr'
p82
tp83
(lp84
F10.736
aF1.708
aF3.904
aF2.684
aF7.808
aF5.612
aF5.124
aF6.1
aF5.856
aF4.88
aF4.148
aF3.66
aF1.952
aF5.612
aF6.1
aF8.54
aF6.1
aF8.54
aF11.224
aF3.904
aF10.98
aF8.784
aF5.856
aF1.952
aF7.076
aF7.808
aF6.588
aF1.952
aF9.272
aF1.952
aF7.564
aF2.928
aF7.564
aF7.564
aF2.684
aF6.588
aF8.784
aF5.124
aF4.636
aF6.832
aF5.856
aF8.54
aF8.052
aF5.368
aF5.124
aF5.856
aF3.904
aF4.88
aF4.88
aF5.612
aF5.368
aF5.368
aF8.296
aF4.148
aF3.66
aF7.32
aF8.54
aF6.1
aF8.784
aF4.636
aF3.904
aF12.2
aF8.052
aF4.88
as(I40
S'get HB10-2-LeakageCurrent[1-64]_f_rr'
p85
tp86
(lp87
F13.908
aF3.172
aF6.832
aF5.612
aF10.98
aF8.54
aF8.052
aF9.272
aF8.784
aF8.052
aF7.076
aF6.832
aF4.636
aF8.54
aF9.272
aF11.712
aF9.272
aF11.712
aF14.396
aF6.832
aF14.396
aF11.956
aF9.028
aF4.636
aF10.004
aF10.736
aF9.516
aF3.172
aF12.444
aF4.636
aF10.492
aF5.856
aF10.736
aF10.736
aF5.856
aF9.516
aF11.956
aF8.296
aF7.564
aF10.004
aF9.028
aF11.468
aF11.224
aF8.54
aF8.052
aF8.784
aF7.076
aF8.052
aF7.808
aF8.54
aF8.296
aF8.54
aF11.224
aF7.32
aF6.832
aF10.248
aF11.712
aF9.028
aF12.2
aF7.564
aF7.076
aF15.372
aF10.98
aF8.052
as(I40
S'get HB10-2-biasmon[1-64]_f_rr'
p88
tp89
(lp90
F40.0488
aF40.0488
aF40.0293
aF40.0488
aF40.0488
aF40.0488
aF40.0293
aF40.0488
aF40.0488
aF40.0488
aF40.0488
aF40.0488
aF40.0488
aF40.0488
aF40.0293
aF40.0488
aF40.0488
aF40.0488
aF40.0293
aF40.0293
aF40.0488
aF40.0488
aF40.0293
aF40.0488
aF40.0488
aF40.0488
aF40.0488
aF40.0488
aF40.0488
aF40.0488
aF40.0293
aF40.0293
aF40.0488
aF40.0488
aF40.0488
aF40.0488
aF40.0488
aF40.0488
aF40.0488
aF40.0488
aF40.0488
aF40.0488
aF40.0488
aF40.0488
aF40.0488
aF40.0293
aF40.0293
aF40.0488
aF40.0488
aF40.0488
aF40.0488
aF40.0488
aF40.0488
aF40.0488
aF40.0684
aF40.0293
aF40.0488
aF40.0488
aF40.0488
aF40.0488
aF40.0488
aF40.0488
aF40.0488
aF40.0293
as(I35
S'get HB10-2-biasmon[1-64]_f_rr'
p91
tp92
(lp93
F35.0672
aF35.0672
aF35.0672
aF35.0672
aF35.0672
aF35.0672
aF35.0672
aF35.0672
aF35.0672
aF35.0672
aF35.0672
aF35.0672
aF35.0672
aF35.0672
aF35.0672
aF35.0672
aF35.0672
aF35.0672
aF35.0672
aF35.0672
aF35.0672
aF35.0672
aF35.0672
aF35.0672
aF35.0672
aF35.0672
aF35.0672
aF35.0672
aF35.0672
aF35.0672
aF35.0672
aF35.0672
aF35.0672
aF35.0672
aF35.0672
aF35.0672
aF35.0672
aF35.0672
aF35.0672
aF35.0672
aF35.0672
aF35.0672
aF35.0672
aF35.0672
aF35.0672
aF35.0672
aF35.0672
aF35.0672
aF35.0672
aF35.0672
aF35.0672
aF35.0672
aF35.0672
aF35.0672
aF35.0867
aF35.0672
aF35.0672
aF35.0672
aF35.0672
aF35.0672
aF35.0672
aF35.0672
aF35.0672
aF35.0672
as(I15
S'put HB10-2-biasvoltage[1-64]_f 64*15.000000'
p94
tp95
(lp96
S'OK'
p97
as(I30
S'get HB10-2-biasmon[1-64]_f_rr'
p98
tp99
(lp100
F30.0659
aF30.0659
aF30.0659
aF30.0659
aF30.0659
aF30.0659
aF30.0659
aF30.0659
aF30.0659
aF30.0659
aF30.0659
aF30.0659
aF30.0659
aF30.0659
aF30.0659
aF30.0659
aF30.0659
aF30.0659
aF30.0659
aF30.0659
aF30.0659
aF30.0659
aF30.0659
aF30.0659
aF30.0659
aF30.0659
aF30.0659
aF30.0659
aF30.0659
aF30.0659
aF30.0659
aF30.0659
aF30.0659
aF30.0659
aF30.0659
aF30.0659
aF30.0659
aF30.0659
aF30.0659
aF30.0659
aF30.0659
aF30.0659
aF30.0659
aF30.0659
aF30.0659
aF30.0464
aF30.0659
aF30.0659
aF30.0659
aF30.0659
aF30.0659
aF30.0659
aF30.0659
aF30.0659
aF30.0659
aF30.0659
aF30.0659
aF30.0659
aF30.0659
aF30.0659
aF30.0659
aF30.0659
aF30.0659
aF30.0659
as(I5
S'put HB10-2-biasvoltage[1-64]_f 64*5.000000'
p101
tp102
(lp103
S'OK'
p104
as(I50
S'get HB10-2-LeakageCurrent[1-64]_f_rr'
p105
tp106
(lp107
F15.372
aF4.636
aF8.54
aF7.076
aF12.444
aF10.004
aF9.76
aF10.736
aF10.492
aF9.516
aF8.54
aF8.54
aF6.1
aF10.248
aF10.736
aF13.42
aF10.736
aF13.176
aF15.86
aF8.54
aF15.86
aF13.664
aF10.492
aF5.856
aF11.712
aF12.444
aF11.224
aF4.636
aF13.908
aF6.1
aF11.956
aF7.32
aF12.2
aF12.444
aF7.32
aF10.98
aF13.42
aF10.004
aF9.272
aF11.712
aF10.492
aF13.176
aF12.688
aF10.248
aF9.76
aF10.248
aF8.54
aF9.516
aF9.516
aF10.248
aF9.76
aF10.004
aF12.688
aF8.784
aF8.296
aF11.712
aF13.42
aF10.492
aF13.908
aF9.028
aF8.54
aF17.08
aF12.444
aF9.516
as(I35
S'put HB10-2-biasvoltage[1-64]_f 64*35.000000'
p108
tp109
(lp110
S'OK'
p111
as(I10
S'put HB10-2-biasvoltage[1-64]_f 64*10.000000'
p112
tp113
(lp114
S'OK'
p115
as(I60
S'get HB10-2-LeakageCurrent[1-64]_f_rr'
p116
tp117
(lp118
F17.08
aF6.1
aF10.004
aF8.54
aF14.152
aF11.712
aF11.468
aF12.444
aF11.956
aF11.224
aF10.248
aF10.004
aF7.564
aF11.712
aF12.2
aF14.884
aF12.2
aF14.64
aF17.568
aF10.004
aF17.324
aF15.372
aF12.2
aF7.564
aF13.176
aF13.908
aF12.444
aF6.1
aF15.616
aF7.564
aF13.42
aF8.54
aF13.908
aF13.908
aF8.784
aF12.444
aF14.884
aF11.468
aF10.98
aF13.176
aF12.2
aF14.64
aF14.396
aF11.712
aF11.224
aF11.956
aF10.004
aF11.224
aF10.98
aF11.712
aF11.468
aF11.468
aF13.908
aF10.248
aF9.76
aF13.42
aF14.884
aF11.956
aF15.372
aF10.736
aF10.004
aF18.544
aF13.908
aF10.98
as(I45
S'put HB10-2-biasvoltage[1-64]_f 64*45.000000'
p119
tp120
(lp121
S'OK'
p122
as(I50
S'put HB10-2-biasvoltage[1-64]_f 64*50.000000'
p123
tp124
(lp125
S'OK'
p126
as(I55
S'put HB10-2-biasvoltage[1-64]_f 64*55.000000'
p127
tp128
(lp129
S'OK'
p130
as.