(dp0
(I0
S'get HB11-1-LeakageCurrent[1-64]_f_rr'
p1
tp2
(lp3
F2.196
aF6.832
aF1.952
aF2.196
aF4.636
aF4.148
aF1.708
aF1.952
aF1.708
aF8.052
aF6.1
aF1.952
aF3.416
aF1.708
aF2.684
aF2.196
aF1.952
aF5.612
aF2.684
aF2.196
aF2.928
aF1.708
aF1.708
aF2.44
aF3.66
aF3.172
aF5.368
aF5.856
aF1.708
aF5.368
aF1.708
aF1.952
aF1.708
aF3.904
aF8.54
aF4.636
aF4.148
aF1.708
aF5.856
aF1.708
aF4.88
aF1.952
aF2.196
aF7.32
aF8.296
aF1.708
aF2.684
aF2.196
aF3.66
aF3.66
aF2.928
aF5.856
aF1.952
aF2.196
aF1.708
aF1.708
aF1.952
aF3.66
aF6.344
aF1.708
aF2.928
aF1.708
aF4.88
aF2.928
as(I10
S'put HB11-1-biasvoltage[1-64]_f 64*10.000000'
p4
tp5
(lp6
S'OK'
p7
as(I60
S'get HB11-1-LeakageCurrent[1-64]_f_rr'
p8
tp9
(lp10
F11.224
aF16.348
aF10.004
aF11.224
aF13.42
aF12.932
aF8.052
aF10.736
aF8.54
aF17.324
aF15.372
aF10.004
aF12.932
aF8.296
aF11.468
aF10.98
aF10.248
aF15.128
aF11.712
aF11.224
aF11.956
aF9.516
aF9.516
aF11.468
aF12.444
aF12.444
aF14.64
aF14.64
aF7.564
aF14.884
aF7.076
aF10.492
aF10.248
aF13.42
aF17.568
aF14.152
aF13.908
aF8.54
aF15.372
aF9.76
aF14.884
aF10.98
aF11.224
aF15.86
aF17.08
aF8.052
aF11.956
aF10.736
aF12.688
aF13.176
aF12.2
aF14.884
aF10.98
aF11.712
aF4.88
aF10.004
aF10.736
aF12.932
aF15.372
aF8.784
aF11.712
aF9.028
aF14.396
aF12.688
as(I40
S'get HB11-1-biasmon[1-64]_f_rr'
p11
tp12
(lp13
F39.9512
aF39.9512
aF39.9512
aF39.9512
aF39.9707
aF39.9707
aF39.9707
aF39.9707
aF39.9707
aF39.9512
aF39.9707
aF39.9707
aF39.9707
aF39.9707
aF39.9707
aF39.9707
aF39.9512
aF39.9512
aF39.9512
aF39.9512
aF39.9707
aF39.9707
aF39.9707
aF39.9707
aF39.9707
aF39.9512
aF39.9512
aF39.9512
aF39.9707
aF39.9707
aF39.9707
aF39.9902
aF39.9512
aF39.9512
aF39.9707
aF39.9707
aF39.9707
aF39.9707
aF39.9902
aF39.9707
aF39.9512
aF39.9512
aF39.9512
aF39.9707
aF39.9512
aF39.9512
aF39.9707
aF39.9707
aF39.9707
aF39.9707
aF39.9707
aF39.9512
aF39.9707
aF39.9707
aF39.9707
aF39.9707
aF39.9707
aF39.9512
aF39.9512
aF39.9707
aF39.9707
aF39.9512
aF39.9707
aF39.9707
as(I30
S'get HB11-1-biasmon[1-64]_f_rr'
p14
tp15
(lp16
F29.9878
aF29.9878
aF30.0073
aF30.0073
aF30.0073
aF30.0073
aF30.0073
aF30.0073
aF30.0073
aF30.0073
aF30.0073
aF30.0073
aF30.0073
aF30.0073
aF30.0073
aF30.0073
aF30.0073
aF30.0073
aF30.0073
aF30.0073
aF30.0073
aF30.0073
aF30.0073
aF30.0073
aF30.0073
aF30.0073
aF30.0073
aF30.0073
aF30.0073
aF30.0073
aF30.0073
aF30.0269
aF30.0073
aF30.0073
aF30.0073
aF30.0073
aF30.0269
aF30.0073
aF30.0269
aF30.0073
aF30.0073
aF30.0073
aF30.0073
aF30.0073
aF30.0073
aF30.0073
aF30.0073
aF30.0073
aF30.0073
aF30.0073
aF30.0073
aF30.0073
aF30.0073
aF30.0073
aF30.0073
aF30.0269
aF30.0073
aF30.0073
aF30.0073
aF30.0073
aF30.0073
aF30.0073
aF30.0073
aF30.0073
as(I40
S'put HB11-1-biasvoltage[1-64]_f 64*40.000000'
p17
tp18
(lp19
S'OK'
p20
as(I35
S'get HB11-1-biasmon[1-64]_f_rr'
p21
tp22
(lp23
F34.989
aF34.989
aF34.989
aF34.989
aF34.989
aF35.0085
aF35.0085
aF35.0085
aF34.989
aF34.989
aF35.0085
aF34.989
aF34.989
aF35.0085
aF35.0085
aF35.0085
aF34.989
aF34.989
aF34.989
aF34.989
aF35.0085
aF35.0085
aF35.0085
aF35.0085
aF34.989
aF34.989
aF34.989
aF34.989
aF35.0085
aF35.0085
aF35.0085
aF35.0085
aF34.989
aF34.989
aF34.989
aF34.989
aF35.0085
aF35.0085
aF35.0085
aF34.989
aF34.989
aF34.989
aF34.989
aF34.989
aF34.989
aF34.989
aF34.989
aF35.0085
aF34.989
aF34.989
aF34.989
aF34.989
aF35.0085
aF35.0085
aF35.0085
aF35.0085
aF34.989
aF34.989
aF34.989
aF34.989
aF35.0085
aF34.989
aF35.0085
aF34.989
as(I30
S'put HB11-1-biasvoltage[1-64]_f 64*30.000000'
p24
tp25
(lp26
S'OK'
p27
as(I20
S'put HB11-1-biasvoltage[1-64]_f 64*20.000000'
p28
tp29
(lp30
S'OK'
p31
as(I15
S'put HB11-1-biasvoltage[1-64]_f 64*15.000000'
p32
tp33
(lp34
S'OK'
p35
as(I25
S'put HB11-1-biasvoltage[1-64]_f 64*25.000000'
p36
tp37
(lp38
S'OK'
p39
as(I0
S'put HB11-1-biasvoltage[1-64]_f 64*0.000000'
p40
tp41
(lp42
S'OK'
p43
as(I25
S'get HB11-1-biasmon[1-64]_f_rr'
p44
tp45
(lp46
F24.9866
aF24.9866
aF24.9866
aF24.9866
aF24.9866
aF25.0061
aF25.0061
aF25.0061
aF25.0061
aF24.9866
aF24.9866
aF24.9866
aF24.9866
aF25.0061
aF25.0061
aF24.9866
aF24.9866
aF24.9866
aF24.9866
aF24.9866
aF25.0061
aF25.0061
aF25.0061
aF25.0061
aF24.9866
aF24.9866
aF25.0061
aF24.9866
aF25.0061
aF25.0061
aF25.0256
aF25.0256
aF24.9866
aF24.9866
aF24.9866
aF24.9866
aF25.0061
aF25.0061
aF25.0256
aF24.9866
aF24.9866
aF24.9866
aF24.9866
aF25.0061
aF24.9866
aF24.9866
aF25.0061
aF25.0061
aF24.9866
aF24.9866
aF25.0061
aF24.9866
aF25.0061
aF25.0256
aF25.0061
aF25.0061
aF25.0061
aF24.9866
aF25.0061
aF24.9866
aF25.0061
aF24.9866
aF25.0256
aF24.9866
as(I5
S'put HB11-1-biasvoltage[1-64]_f 64*5.000000'
p47
tp48
(lp49
S'OK'
p50
as(I50
S'get HB11-1-LeakageCurrent[1-64]_f_rr'
p51
tp52
(lp53
F9.516
aF14.64
aF8.54
aF9.516
aF11.956
aF11.468
aF6.344
aF9.272
aF6.832
aF15.86
aF13.908
aF8.54
aF11.468
aF6.832
aF10.004
aF9.516
aF8.54
aF13.42
aF10.248
aF9.516
aF10.248
aF8.052
aF7.808
aF9.76
aF10.98
aF10.736
aF12.932
aF13.176
aF5.856
aF13.42
aF5.612
aF8.784
aF8.784
aF11.712
aF15.86
aF12.444
aF12.2
aF7.076
aF13.908
aF8.296
aF13.176
aF9.272
aF9.516
aF14.396
aF15.372
aF6.588
aF10.492
aF9.272
aF11.224
aF11.712
aF10.736
aF13.42
aF9.516
aF10.004
aF3.416
aF8.54
aF9.272
aF11.468
aF13.908
aF7.32
aF10.004
aF7.564
aF12.688
aF11.224
as(I50
S'get HB11-1-biasmon[1-64]_f_rr'
p54
tp55
(lp56
F49.9145
aF49.9145
aF49.9145
aF49.9145
aF49.9341
aF49.9341
aF49.9536
aF49.9341
aF49.9341
aF49.9341
aF49.9341
aF49.9341
aF49.9341
aF49.9341
aF49.9341
aF49.9341
aF49.9145
aF49.9145
aF49.9145
aF49.9145
aF49.9341
aF49.9536
aF49.9341
aF49.9341
aF49.9341
aF49.9341
aF49.9341
aF49.9341
aF49.9341
aF49.9341
aF49.9536
aF49.9536
aF49.9145
aF49.9341
aF49.9341
aF49.9341
aF49.9536
aF49.9341
aF49.9536
aF49.9341
aF49.9341
aF49.9341
aF49.9145
aF49.9341
aF49.9341
aF49.9145
aF49.9341
aF49.9341
aF49.9341
aF49.9341
aF49.9341
aF49.9341
aF49.9341
aF49.9536
aF49.9536
aF49.9341
aF49.9341
aF49.9341
aF49.9341
aF49.9341
aF49.9341
aF49.9341
aF49.9341
aF49.9341
as(I0
S'get HB11-1-biasmon[1-64]_f_rr'
p57
tp58
(lp59
F0.0586081
aF0.0586081
aF0.0586081
aF0.0586081
aF0.0586081
aF0.0586081
aF0.0586081
aF0.0586081
aF0.0586081
aF0.0586081
aF0.0586081
aF0.0586081
aF0.0586081
aF0.0586081
aF0.0586081
aF0.0586081
aF0.0586081
aF0.0586081
aF0.0586081
aF0.0586081
aF0.0586081
aF0.0586081
aF0.0586081
aF0.0586081
aF0.0586081
aF0.0586081
aF0.0586081
aF0.0586081
aF0.0586081
aF0.0586081
aF0.0586081
aF0.0586081
aF0.0586081
aF0.0586081
aF0.0586081
aF0.0586081
aF0.0586081
aF0.0586081
aF0.0781441
aF0.0586081
aF0.0586081
aF0.0586081
aF0.0586081
aF0.0586081
aF0.0586081
aF0.0586081
aF0.0586081
aF0.0586081
aF0.0586081
aF0.0586081
aF0.0586081
aF0.0586081
aF0.0586081
aF0.0586081
aF0.0586081
aF0.0586081
aF0.0586081
aF0.0586081
aF0.0586081
aF0.0586081
aF0.0586081
aF0.0586081
aF0.0781441
aF0.0586081
as(I45
S'get HB11-1-biasmon[1-64]_f_rr'
p60
tp61
(lp62
F44.9328
aF44.9328
aF44.9328
aF44.9328
aF44.9524
aF44.9524
aF44.9524
aF44.9524
aF44.9524
aF44.9328
aF44.9524
aF44.9328
aF44.9524
aF44.9524
aF44.9524
aF44.9524
aF44.9328
aF44.9328
aF44.9328
aF44.9328
aF44.9524
aF44.9524
aF44.9524
aF44.9524
aF44.9524
aF44.9524
aF44.9524
aF44.9524
aF44.9524
aF44.9524
aF44.9524
aF44.9719
aF44.9524
aF44.9328
aF44.9524
aF44.9524
aF44.9524
aF44.9524
aF44.9524
aF44.9524
aF44.9328
aF44.9328
aF44.9328
aF44.9524
aF44.9328
aF44.9328
aF44.9524
aF44.9524
aF44.9524
aF44.9328
aF44.9524
aF44.9328
aF44.9524
aF44.9719
aF44.9524
aF44.9524
aF44.9328
aF44.9524
aF44.9524
aF44.9524
aF44.9524
aF44.9328
aF44.9524
aF44.9328
as(I55
S'get HB11-1-LeakageCurrent[1-64]_f_rr'
p63
tp64
(lp65
F10.492
aF15.372
aF9.516
aF10.492
aF12.688
aF12.444
aF7.32
aF10.004
aF7.564
aF16.592
aF14.884
aF9.272
aF11.956
aF7.564
aF10.736
aF10.248
aF9.516
aF14.152
aF10.98
aF10.248
aF11.224
aF8.784
aF8.54
aF10.492
aF11.712
aF11.712
aF13.664
aF13.908
aF6.588
aF13.908
aF6.344
aF9.516
aF9.516
aF12.688
aF16.836
aF13.42
aF12.932
aF7.808
aF14.64
aF9.028
aF13.908
aF10.004
aF10.492
aF15.128
aF16.104
aF7.564
aF11.224
aF10.004
aF11.956
aF12.444
aF11.468
aF14.152
aF10.248
aF10.736
aF4.148
aF9.272
aF10.004
aF11.956
aF14.64
aF8.052
aF10.736
aF8.296
aF13.42
aF11.956
as(I55
S'put HB11-1-biasvoltage[1-64]_f 64*55.000000'
p66
tp67
(lp68
S'OK'
p69
as(I35
S'put HB11-1-biasvoltage[1-64]_f 64*35.000000'
p70
tp71
(lp72
S'OK'
p73
as(I45
S'get HB11-1-LeakageCurrent[1-64]_f_rr'
p74
tp75
(lp76
F9.028
aF13.908
aF7.808
aF8.784
aF11.224
aF10.736
aF5.612
aF8.54
aF6.1
aF15.128
aF13.176
aF7.808
aF10.492
aF6.1
aF9.272
aF8.54
aF7.808
aF12.688
aF9.272
aF8.784
aF9.516
aF7.32
aF7.076
aF9.028
aF10.248
aF10.004
aF12.2
aF12.444
aF5.124
aF12.444
aF4.636
aF8.052
aF8.052
aF10.98
aF15.128
aF11.712
aF11.468
aF6.344
aF13.176
aF7.564
aF12.444
aF8.54
aF8.784
aF13.664
aF14.64
aF5.856
aF9.516
aF8.54
aF10.492
aF10.736
aF10.004
aF12.444
aF8.784
aF9.272
aF2.684
aF7.564
aF8.54
aF10.492
aF13.176
aF6.588
aF9.272
aF6.832
aF11.956
aF10.248
as(I50
S'put HB11-1-biasvoltage[1-64]_f 64*50.000000'
p77
tp78
(lp79
S'OK'
p80
as(I60
S'get HB11-1-biasmon[1-64]_f_rr'
p81
tp82
(lp83
F59.8974
aF59.8974
aF59.917
aF59.8974
aF59.917
aF59.9365
aF59.9365
aF59.9365
aF59.917
aF59.8974
aF59.917
aF59.917
aF59.917
aF59.917
aF59.9365
aF59.917
aF59.8974
aF59.917
aF59.8974
aF59.917
aF59.917
aF59.9365
aF59.917
aF59.917
aF59.917
aF59.917
aF59.917
aF59.917
aF59.9365
aF59.9365
aF59.9365
aF59.9365
aF59.917
aF59.917
aF59.8974
aF59.917
aF59.9365
aF59.9365
aF59.9365
aF59.917
aF59.8974
aF59.8974
aF59.8974
aF59.917
aF59.917
aF59.8974
aF59.917
aF59.917
aF59.917
aF59.8974
aF59.917
aF59.917
aF59.917
aF59.9365
aF59.9365
aF59.917
aF59.917
aF59.8974
aF59.917
aF59.917
aF59.9365
aF59.917
aF59.917
aF59.917
as(I30
S'get HB11-1-LeakageCurrent[1-64]_f_rr'
p84
tp85
(lp86
F6.588
aF11.712
aF5.612
aF6.588
aF8.784
aF8.54
aF3.416
aF6.1
aF3.66
aF12.688
aF10.98
aF5.612
aF8.052
aF3.66
aF6.832
aF6.588
aF5.856
aF10.248
aF7.076
aF6.588
aF7.32
aF4.88
aF4.88
aF6.832
aF7.808
aF7.564
aF9.76
aF10.004
aF2.928
aF10.004
aF2.684
aF5.856
aF5.612
aF8.54
aF12.932
aF9.516
aF9.028
aF4.148
aF10.736
aF5.124
aF10.004
aF6.1
aF6.588
aF11.468
aF12.444
aF3.66
aF7.32
aF6.344
aF8.052
aF8.296
aF7.564
aF10.248
aF6.344
aF6.832
aF1.708
aF5.368
aF6.1
aF8.296
aF10.736
aF4.392
aF7.076
aF4.636
aF9.516
aF7.808
as(I10
S'get HB11-1-biasmon[1-64]_f_rr'
p87
tp88
(lp89
F10.0415
aF10.0415
aF10.0415
aF10.0415
aF10.0415
aF10.0611
aF10.0611
aF10.0611
aF10.0415
aF10.0415
aF10.0611
aF10.0415
aF10.0415
aF10.0415
aF10.0415
aF10.0415
aF10.0415
aF10.0415
aF10.0415
aF10.0415
aF10.0611
aF10.0415
aF10.0415
aF10.0611
aF10.0415
aF10.0415
aF10.0415
aF10.0611
aF10.0611
aF10.0415
aF10.0611
aF10.0611
aF10.0415
aF10.0415
aF10.0611
aF10.0611
aF10.0611
aF10.0611
aF10.0611
aF10.0415
aF10.0415
aF10.0611
aF10.0415
aF10.0415
aF10.0415
aF10.0415
aF10.0611
aF10.0611
aF10.0415
aF10.0415
aF10.0415
aF10.0415
aF10.0611
aF10.0611
aF10.0611
aF10.0611
aF10.0611
aF10.0415
aF10.0415
aF10.0415
aF10.0611
aF10.0415
aF10.0611
aF10.0415
as(I55
S'get HB11-1-biasmon[1-64]_f_rr'
p90
tp91
(lp92
F54.9158
aF54.9158
aF54.9158
aF54.9158
aF54.9353
aF54.9353
aF54.9353
aF54.9353
aF54.9158
aF54.9158
aF54.9353
aF54.9353
aF54.9353
aF54.9353
aF54.9353
aF54.9353
aF54.9158
aF54.9158
aF54.9158
aF54.9158
aF54.9353
aF54.9353
aF54.9353
aF54.9353
aF54.9158
aF54.9353
aF54.9158
aF54.9158
aF54.9353
aF54.9353
aF54.9548
aF54.9548
aF54.9158
aF54.9353
aF54.9353
aF54.9353
aF54.9353
aF54.9353
aF54.9548
aF54.9353
aF54.9158
aF54.9353
aF54.9158
aF54.9353
aF54.9353
aF54.9158
aF54.9353
aF54.9353
aF54.9353
aF54.9353
aF54.9353
aF54.9158
aF54.9353
aF54.9353
aF54.9353
aF54.9353
aF54.9353
aF54.9158
aF54.9158
aF54.9158
aF54.9353
aF54.9353
aF54.9353
aF54.9158
as(I35
S'get HB11-1-LeakageCurrent[1-64]_f_rr'
p93
tp94
(lp95
F7.32
aF12.444
aF6.344
aF7.32
aF9.76
aF9.272
aF4.148
aF6.832
aF4.636
aF13.664
aF11.712
aF6.344
aF9.028
aF4.392
aF7.564
aF7.32
aF6.344
aF11.224
aF7.808
aF7.32
aF8.052
aF5.612
aF5.612
aF7.564
aF8.784
aF8.54
aF10.736
aF10.736
aF3.66
aF10.98
aF3.172
aF6.588
aF6.344
aF9.516
aF13.664
aF10.248
aF9.76
aF4.88
aF11.468
aF5.856
aF10.736
aF7.076
aF7.32
aF12.2
aF13.176
aF4.148
aF8.052
aF7.076
aF8.784
aF9.272
aF8.54
aF10.98
aF7.076
aF7.564
aF1.708
aF6.1
aF6.832
aF9.028
aF11.712
aF5.124
aF7.808
aF5.368
aF10.492
aF8.54
as(I5
S'get HB11-1-biasmon[1-64]_f_rr'
p96
tp97
(lp98
F5.04029
aF5.04029
aF5.04029
aF5.05983
aF5.04029
aF5.05983
aF5.05983
aF5.05983
aF5.05983
aF5.04029
aF5.05983
aF5.04029
aF5.04029
aF5.04029
aF5.05983
aF5.04029
aF5.04029
aF5.04029
aF5.04029
aF5.05983
aF5.05983
aF5.04029
aF5.05983
aF5.05983
aF5.05983
aF5.05983
aF5.05983
aF5.05983
aF5.04029
aF5.05983
aF5.05983
aF5.05983
aF5.04029
aF5.05983
aF5.05983
aF5.05983
aF5.05983
aF5.05983
aF5.05983
aF5.04029
aF5.04029
aF5.05983
aF5.04029
aF5.05983
aF5.04029
aF5.04029
aF5.05983
aF5.04029
aF5.05983
aF5.05983
aF5.04029
aF5.04029
aF5.05983
aF5.05983
aF5.05983
aF5.05983
aF5.04029
aF5.04029
aF5.05983
aF5.05983
aF5.05983
aF5.04029
aF5.05983
aF5.04029
as(I40
S'get HB11-1-LeakageCurrent[1-64]_f_rr'
p99
tp100
(lp101
F8.052
aF13.176
aF7.076
aF8.052
aF10.492
aF10.004
aF4.88
aF7.564
aF5.368
aF14.396
aF12.444
aF7.076
aF9.76
aF5.124
aF8.54
aF7.808
aF7.076
aF11.956
aF8.54
aF8.052
aF8.784
aF6.344
aF6.344
aF8.296
aF9.516
aF9.272
aF11.468
aF11.712
aF4.392
aF11.712
aF3.904
aF7.32
aF7.076
aF10.248
aF14.396
aF10.98
aF10.492
aF5.612
aF12.2
aF6.832
aF11.712
aF7.808
aF8.052
aF12.932
aF13.908
aF5.124
aF8.784
aF7.808
aF9.76
aF10.004
aF9.272
aF11.956
aF7.808
aF8.54
aF2.196
aF7.076
aF7.564
aF9.76
aF12.444
aF5.856
aF8.54
aF6.1
aF11.224
aF9.516
as(I15
S'get HB11-1-LeakageCurrent[1-64]_f_rr'
p102
tp103
(lp104
F4.392
aF9.028
aF3.416
aF4.148
aF6.588
aF6.344
aF1.708
aF3.66
aF1.708
aF10.492
aF8.54
aF3.416
aF5.856
aF1.952
aF4.636
aF4.148
aF3.66
aF8.052
aF4.636
aF4.148
aF5.124
aF2.684
aF2.684
aF4.392
aF5.856
aF5.368
aF7.564
aF7.808
aF1.708
aF7.808
aF1.708
aF3.416
aF3.416
aF6.344
aF10.736
aF7.32
aF6.832
aF2.196
aF8.296
aF2.928
aF7.564
aF3.904
aF4.148
aF9.272
aF10.248
aF1.952
aF5.124
aF4.148
aF5.856
aF6.1
aF5.368
aF8.052
aF3.904
aF4.636
aF1.708
aF2.928
aF3.66
aF5.856
aF8.54
aF2.44
aF4.88
aF2.44
aF7.32
aF5.368
as(I20
S'get HB11-1-LeakageCurrent[1-64]_f_rr'
p105
tp106
(lp107
F4.88
aF10.004
aF4.148
aF4.88
aF7.564
aF7.076
aF2.196
aF4.636
aF2.196
aF11.224
aF9.272
aF3.904
aF6.588
aF2.44
aF5.612
aF4.88
aF4.148
aF8.784
aF5.612
aF4.88
aF5.856
aF3.416
aF3.416
aF5.124
aF6.588
aF6.1
aF8.296
aF8.54
aF1.952
aF8.54
aF1.708
aF4.148
aF3.904
aF7.076
aF11.468
aF7.808
aF7.32
aF2.684
aF9.028
aF3.66
aF8.54
aF4.636
aF5.124
aF10.004
aF10.98
aF2.196
aF5.856
aF4.88
aF6.588
aF6.832
aF6.1
aF8.784
aF4.636
aF5.368
aF1.708
aF3.904
aF4.636
aF6.832
aF9.272
aF2.928
aF5.612
aF2.928
aF8.052
aF6.1
as(I45
S'put HB11-1-biasvoltage[1-64]_f 64*45.000000'
p108
tp109
(lp110
S'OK'
p111
as(I25
S'get HB11-1-LeakageCurrent[1-64]_f_rr'
p112
tp113
(lp114
F5.856
aF10.736
aF4.88
aF5.856
aF8.052
aF7.564
aF2.684
aF5.368
aF2.928
aF11.956
aF10.004
aF4.636
aF7.32
aF2.928
aF6.1
aF5.612
aF4.88
aF9.516
aF6.344
aF5.856
aF6.588
aF4.148
aF3.904
aF5.856
aF7.32
aF6.832
aF9.272
aF9.272
aF2.196
aF9.272
aF1.952
aF4.88
aF4.88
aF7.808
aF12.2
aF8.54
aF8.296
aF3.416
aF9.76
aF4.392
aF9.272
aF5.612
aF5.856
aF10.736
aF11.712
aF2.928
aF6.588
aF5.612
aF7.32
aF7.564
aF6.832
aF9.516
aF5.612
aF6.1
aF1.708
aF4.636
aF5.368
aF7.564
aF10.004
aF3.66
aF6.344
aF3.66
aF8.784
aF7.076
as(I5
S'get HB11-1-LeakageCurrent[1-64]_f_rr'
p115
tp116
(lp117
F2.684
aF7.32
aF2.44
aF2.684
aF5.368
aF4.88
aF1.708
aF2.196
aF1.708
aF8.54
aF6.832
aF2.196
aF4.636
aF1.708
aF3.66
aF2.928
aF2.44
aF6.588
aF3.416
aF2.684
aF3.66
aF1.708
aF1.708
aF2.928
aF4.148
aF3.66
aF6.1
aF6.344
aF1.708
aF5.856
aF1.708
aF2.196
aF1.952
aF5.124
aF9.028
aF5.368
aF5.368
aF1.708
aF6.588
aF1.952
aF5.856
aF2.196
aF2.928
aF8.052
aF9.028
aF1.708
aF3.66
aF2.684
aF4.636
aF4.392
aF3.66
aF6.344
aF2.684
aF2.684
aF1.708
aF1.952
aF2.684
aF4.392
aF7.32
aF1.708
aF3.416
aF1.708
aF6.1
aF3.904
as(I10
S'get HB11-1-LeakageCurrent[1-64]_f_rr'
p118
tp119
(lp120
F3.66
aF8.54
aF2.928
aF3.66
aF6.1
aF5.368
aF1.708
aF3.172
aF1.708
aF9.516
aF7.808
aF2.44
aF5.124
aF1.708
aF4.148
aF3.416
aF2.684
aF7.076
aF4.148
aF3.66
aF4.148
aF2.196
aF2.196
aF3.66
aF5.124
aF4.636
aF6.832
aF7.32
aF1.708
aF6.832
aF1.708
aF2.928
aF2.684
aF5.612
aF9.76
aF6.344
aF5.856
aF1.708
aF7.564
aF2.196
aF6.832
aF3.172
aF3.66
aF8.54
aF9.516
aF1.708
aF4.148
aF3.66
aF5.368
aF5.368
aF4.636
aF7.564
aF3.416
aF3.904
aF1.708
aF2.196
aF2.928
aF5.368
aF8.052
aF1.952
aF4.392
aF1.952
aF6.588
aF4.392
as(I20
S'get HB11-1-biasmon[1-64]_f_rr'
p121
tp122
(lp123
F20.0049
aF20.0049
aF20.0049
aF20.0244
aF20.0244
aF20.0244
aF20.0244
aF20.0244
aF20.0244
aF20.0049
aF20.0244
aF20.0244
aF20.0244
aF20.0244
aF20.0244
aF20.0244
aF20.0049
aF20.0244
aF20.0049
aF20.0244
aF20.0244
aF20.0244
aF20.0244
aF20.0244
aF20.0244
aF20.0244
aF20.0244
aF20.0244
aF20.0244
aF20.0244
aF20.0244
aF20.0244
aF20.0049
aF20.0244
aF20.0244
aF20.0244
aF20.0244
aF20.0244
aF20.0244
aF20.0244
aF20.0049
aF20.0244
aF20.0244
aF20.0244
aF20.0049
aF20.0049
aF20.0244
aF20.0244
aF20.0244
aF20.0244
aF20.0244
aF20.0049
aF20.0244
aF20.0244
aF20.0244
aF20.0244
aF20.0244
aF20.0244
aF20.0049
aF20.0244
aF20.0244
aF20.0244
aF20.0244
aF20.0244
as(I60
S'put HB11-1-biasvoltage[1-64]_f 64*60.000000'
p124
tp125
(lp126
S'OK'
p127
as(I15
S'get HB11-1-biasmon[1-64]_f_rr'
p128
tp129
(lp130
F15.0232
aF15.0232
aF15.0232
aF15.0232
aF15.0232
aF15.0427
aF15.0427
aF15.0427
aF15.0232
aF15.0232
aF15.0427
aF15.0232
aF15.0232
aF15.0427
aF15.0427
aF15.0232
aF15.0232
aF15.0232
aF15.0232
aF15.0232
aF15.0427
aF15.0232
aF15.0232
aF15.0427
aF15.0232
aF15.0232
aF15.0232
aF15.0232
aF15.0427
aF15.0427
aF15.0427
aF15.0427
aF15.0232
aF15.0232
aF15.0232
aF15.0427
aF15.0427
aF15.0427
aF15.0427
aF15.0427
aF15.0232
aF15.0232
aF15.0232
aF15.0427
aF15.0232
aF15.0232
aF15.0427
aF15.0232
aF15.0232
aF15.0232
aF15.0232
aF15.0232
aF15.0427
aF15.0427
aF15.0427
aF15.0232
aF15.0232
aF15.0232
aF15.0232
aF15.0232
aF15.0427
aF15.0232
aF15.0427
aF15.0232
as.