(dp0
(I10
S'get HB12-4-LeakageCurrent[1-64]_f_rr'
p1
tp2
(lp3
F6.588
aF4.148
aF7.076
aF5.368
aF3.416
aF4.148
aF1.708
aF7.32
aF2.684
aF4.88
aF3.66
aF9.76
aF5.856
aF2.928
aF6.832
aF2.196
aF4.148
aF4.636
aF3.904
aF5.368
aF2.684
aF6.832
aF1.708
aF5.612
aF6.588
aF7.076
aF2.44
aF5.856
aF4.636
aF2.44
aF1.708
aF4.636
aF3.416
aF3.66
aF4.636
aF4.88
aF2.928
aF5.124
aF4.148
aF1.708
aF2.928
aF3.66
aF2.928
aF6.832
aF7.076
aF7.808
aF7.564
aF5.856
aF1.708
aF7.564
aF1.708
aF3.172
aF4.636
aF2.44
aF4.636
aF4.88
aF5.368
aF5.124
aF5.368
aF5.612
aF4.636
aF3.416
aF6.832
aF5.368
as(I40
S'put HB12-4-biasvoltage[1-64]_f 64*40.000000'
p4
tp5
(lp6
S'OK'
p7
as(I25
S'get HB12-4-biasmon[1-64]_f_rr'
p8
tp9
(lp10
F25.0061
aF25.0061
aF25.0061
aF25.0061
aF25.0061
aF25.0061
aF25.0256
aF25.0256
aF24.9866
aF25.0061
aF25.0061
aF24.9866
aF25.0061
aF25.0256
aF25.0256
aF25.0061
aF24.9866
aF24.9866
aF24.9866
aF25.0061
aF25.0256
aF25.0256
aF25.0256
aF25.0061
aF25.0061
aF25.0256
aF25.0061
aF25.0061
aF25.0061
aF25.0061
aF25.0061
aF25.0256
aF24.9866
aF25.0256
aF25.0061
aF25.0061
aF25.0061
aF25.0256
aF25.0256
aF25.0256
aF25.0061
aF25.0256
aF24.9866
aF25.0061
aF25.0061
aF25.0061
aF25.0061
aF25.0256
aF24.9866
aF25.0061
aF25.0061
aF25.0256
aF25.0061
aF25.0061
aF25.0256
aF25.0061
aF25.0256
aF25.0061
aF25.0061
aF25.0256
aF25.0061
aF25.0061
aF25.0256
aF25.0061
as(I20
S'get HB12-4-LeakageCurrent[1-64]_f_rr'
p11
tp12
(lp13
F8.052
aF5.856
aF8.784
aF6.832
aF4.636
aF5.856
aF1.708
aF9.028
aF4.148
aF6.588
aF5.124
aF11.712
aF7.076
aF4.392
aF8.052
aF3.66
aF5.612
aF6.1
aF5.368
aF6.832
aF4.148
aF8.54
aF2.684
aF7.32
aF8.296
aF8.54
aF3.66
aF7.32
aF5.856
aF3.66
aF2.196
aF6.1
aF4.88
aF5.124
aF6.344
aF6.588
aF4.636
aF6.588
aF5.856
aF2.44
aF4.636
aF5.124
aF4.636
aF8.296
aF8.296
aF9.272
aF9.272
aF7.564
aF2.196
aF9.516
aF2.196
aF4.636
aF6.1
aF3.904
aF6.344
aF6.588
aF6.588
aF6.588
aF6.588
aF6.832
aF5.856
aF4.88
aF8.54
aF7.076
as(I40
S'get HB12-4-LeakageCurrent[1-64]_f_rr'
p14
tp15
(lp16
F10.98
aF8.784
aF11.712
aF9.76
aF7.808
aF9.028
aF1.708
aF11.956
aF7.076
aF9.516
aF8.296
aF14.64
aF10.004
aF7.32
aF11.224
aF6.832
aF8.54
aF8.784
aF8.54
aF10.004
aF7.32
aF11.712
aF5.612
aF10.248
aF11.468
aF11.712
aF6.832
aF10.492
aF8.784
aF6.832
aF4.88
aF9.516
aF8.052
aF8.052
aF9.516
aF9.516
aF7.808
aF9.76
aF8.784
aF5.368
aF7.808
aF8.296
aF7.564
aF11.468
aF11.224
aF12.444
aF12.444
aF10.736
aF5.124
aF12.444
aF5.124
aF7.808
aF9.272
aF7.076
aF9.516
aF9.516
aF9.516
aF9.516
aF9.516
aF10.004
aF9.028
aF7.808
aF11.712
aF10.004
as(I40
S'get HB12-4-biasmon[1-64]_f_rr'
p17
tp18
(lp19
F39.9707
aF39.9707
aF39.9512
aF39.9707
aF39.9707
aF39.9707
aF39.9707
aF39.9707
aF39.9707
aF39.9707
aF39.9707
aF39.9512
aF39.9707
aF39.9707
aF39.9707
aF39.9707
aF39.9512
aF39.9512
aF39.9707
aF39.9707
aF39.9707
aF39.9707
aF39.9707
aF39.9707
aF39.9707
aF39.9707
aF39.9707
aF39.9707
aF39.9707
aF39.9707
aF39.9707
aF39.9902
aF39.9707
aF39.9707
aF39.9707
aF39.9707
aF39.9707
aF39.9707
aF39.9707
aF39.9707
aF39.9707
aF39.9707
aF39.9512
aF39.9707
aF39.9707
aF39.9707
aF39.9707
aF39.9707
aF39.9707
aF39.9707
aF39.9707
aF39.9707
aF39.9707
aF39.9707
aF39.9707
aF39.9707
aF39.9707
aF39.9512
aF39.9707
aF39.9707
aF39.9707
aF39.9707
aF39.9707
aF39.9707
as(I35
S'get HB12-4-biasmon[1-64]_f_rr'
p20
tp21
(lp22
F34.989
aF34.989
aF34.989
aF34.989
aF34.989
aF34.989
aF35.0085
aF35.0085
aF34.989
aF34.989
aF34.989
aF34.989
aF34.989
aF35.0085
aF35.0085
aF35.0085
aF34.989
aF34.989
aF34.989
aF34.989
aF35.0085
aF35.0085
aF35.0085
aF34.989
aF34.989
aF34.989
aF35.0085
aF34.989
aF34.989
aF34.989
aF35.0085
aF35.0085
aF34.989
aF34.989
aF34.989
aF34.989
aF34.989
aF35.0085
aF35.0085
aF35.0085
aF34.989
aF35.0085
aF34.989
aF34.989
aF34.989
aF34.989
aF34.989
aF34.989
aF34.989
aF35.0085
aF34.989
aF35.0085
aF34.989
aF34.989
aF35.0085
aF34.989
aF35.0085
aF34.989
aF35.0085
aF35.0085
aF34.989
aF34.989
aF34.989
aF35.0085
as(I45
S'get HB12-4-biasmon[1-64]_f_rr'
p23
tp24
(lp25
F44.9524
aF44.9524
aF44.9524
aF44.9524
aF44.9524
aF44.9524
aF44.9719
aF44.9719
aF44.9524
aF44.9524
aF44.9524
aF44.9524
aF44.9719
aF44.9719
aF44.9719
aF44.9719
aF44.9328
aF44.9328
aF44.9524
aF44.9524
aF44.9719
aF44.9719
aF44.9719
aF44.9524
aF44.9719
aF44.9524
aF44.9524
aF44.9524
aF44.9524
aF44.9719
aF44.9719
aF44.9719
aF44.9524
aF44.9524
aF44.9524
aF44.9524
aF44.9524
aF44.9524
aF44.9719
aF44.9524
aF44.9524
aF44.9719
aF44.9524
aF44.9524
aF44.9524
aF44.9719
aF44.9524
aF44.9524
aF44.9524
aF44.9719
aF44.9524
aF44.9719
aF44.9524
aF44.9524
aF44.9719
aF44.9524
aF44.9524
aF44.9524
aF44.9524
aF44.9719
aF44.9524
aF44.9524
aF44.9524
aF44.9719
as(I30
S'get HB12-4-LeakageCurrent[1-64]_f_rr'
p26
tp27
(lp28
F9.516
aF7.32
aF10.248
aF8.052
aF6.344
aF7.564
aF1.708
aF10.492
aF5.612
aF8.052
aF6.832
aF13.176
aF8.54
aF5.856
aF9.76
aF5.368
aF7.076
aF7.564
aF6.832
aF8.54
aF5.612
aF10.004
aF3.904
aF8.54
aF9.76
aF10.004
aF5.368
aF8.784
aF7.32
aF5.124
aF3.416
aF7.808
aF6.588
aF6.588
aF7.808
aF8.052
aF6.1
aF8.052
aF7.32
aF3.904
aF6.1
aF6.832
aF6.1
aF9.76
aF9.76
aF10.98
aF10.736
aF9.028
aF3.66
aF10.98
aF3.66
aF6.1
aF7.564
aF5.368
aF7.808
aF8.052
aF8.052
aF8.052
aF8.052
aF8.54
aF7.564
aF6.344
aF10.004
aF8.54
as(I30
S'get HB12-4-biasmon[1-64]_f_rr'
p29
tp30
(lp31
F30.0073
aF30.0073
aF30.0073
aF30.0073
aF30.0073
aF30.0073
aF30.0073
aF30.0073
aF30.0073
aF30.0073
aF30.0073
aF30.0073
aF30.0073
aF30.0073
aF30.0073
aF30.0073
aF30.0073
aF30.0073
aF30.0073
aF30.0073
aF30.0073
aF30.0073
aF30.0073
aF30.0073
aF30.0073
aF30.0073
aF30.0073
aF30.0073
aF30.0073
aF30.0073
aF30.0073
aF30.0269
aF30.0073
aF30.0073
aF30.0073
aF30.0073
aF30.0073
aF30.0073
aF30.0073
aF30.0073
aF30.0073
aF30.0269
aF30.0073
aF30.0073
aF30.0073
aF30.0073
aF30.0073
aF30.0073
aF30.0073
aF30.0073
aF30.0073
aF30.0073
aF30.0073
aF30.0073
aF30.0073
aF30.0073
aF30.0073
aF30.0073
aF30.0073
aF30.0073
aF30.0073
aF30.0073
aF30.0073
aF30.0073
as(I50
S'put HB12-4-biasvoltage[1-64]_f 64*50.000000'
p32
tp33
(lp34
S'OK'
p35
as(I20
S'put HB12-4-biasvoltage[1-64]_f 64*20.000000'
p36
tp37
(lp38
S'OK'
p39
as(I50
S'get HB12-4-LeakageCurrent[1-64]_f_rr'
p40
tp41
(lp42
F12.688
aF10.492
aF13.42
aF11.224
aF9.272
aF10.736
aF2.44
aF13.664
aF8.54
aF10.98
aF9.76
aF16.348
aF11.712
aF9.028
aF12.688
aF8.296
aF10.004
aF10.492
aF10.004
aF11.712
aF8.784
aF13.176
aF7.076
aF11.712
aF12.932
aF13.176
aF8.54
aF11.956
aF10.248
aF8.052
aF6.344
aF10.98
aF9.516
aF9.76
aF10.98
aF10.98
aF9.516
aF11.224
aF10.492
aF6.832
aF9.272
aF9.76
aF9.272
aF12.932
aF12.688
aF13.908
aF13.908
aF12.2
aF6.832
aF14.152
aF6.588
aF9.516
aF10.736
aF8.54
aF10.98
aF10.98
aF11.224
aF11.224
aF11.224
aF11.468
aF10.492
aF9.272
aF13.176
aF11.712
as(I60
S'get HB12-4-LeakageCurrent[1-64]_f_rr'
p43
tp44
(lp45
F14.152
aF11.956
aF14.884
aF12.688
aF10.98
aF12.2
aF3.904
aF15.128
aF10.004
aF12.688
aF11.224
aF17.812
aF13.176
aF10.492
aF14.152
aF10.004
aF11.712
aF11.956
aF11.468
aF13.176
aF10.248
aF14.64
aF8.54
aF13.42
aF14.64
aF14.884
aF10.004
aF13.664
aF11.956
aF9.76
aF7.808
aF12.688
aF10.98
aF11.224
aF12.444
aF12.444
aF11.224
aF12.932
aF11.956
aF8.296
aF10.736
aF11.468
aF10.736
aF14.396
aF14.152
aF15.372
aF15.372
aF13.664
aF8.296
aF15.616
aF8.052
aF10.98
aF12.444
aF10.004
aF12.444
aF12.688
aF12.688
aF12.688
aF12.688
aF13.176
aF11.956
aF10.98
aF14.64
aF13.176
as(I60
S'put HB12-4-biasvoltage[1-64]_f 64*60.000000'
p46
tp47
(lp48
S'OK'
p49
as(I30
S'put HB12-4-biasvoltage[1-64]_f 64*30.000000'
p50
tp51
(lp52
S'OK'
p53
as(I15
S'get HB12-4-biasmon[1-64]_f_rr'
p54
tp55
(lp56
F15.0232
aF15.0232
aF15.0232
aF15.0232
aF15.0232
aF15.0232
aF15.0232
aF15.0427
aF15.0232
aF15.0232
aF15.0427
aF15.0232
aF15.0232
aF15.0427
aF15.0427
aF15.0232
aF15.0232
aF15.0232
aF15.0232
aF15.0232
aF15.0427
aF15.0232
aF15.0427
aF15.0232
aF15.0232
aF15.0427
aF15.0232
aF15.0232
aF15.0232
aF15.0232
aF15.0232
aF15.0427
aF15.0232
aF15.0232
aF15.0232
aF15.0232
aF15.0232
aF15.0427
aF15.0232
aF15.0232
aF15.0232
aF15.0427
aF15.0232
aF15.0232
aF15.0232
aF15.0232
aF15.0232
aF15.0232
aF15.0232
aF15.0427
aF15.0232
aF15.0232
aF15.0232
aF15.0232
aF15.0232
aF15.0232
aF15.0427
aF15.0232
aF15.0232
aF15.0427
aF15.0232
aF15.0232
aF15.0232
aF15.0427
as(I15
S'get HB12-4-LeakageCurrent[1-64]_f_rr'
p57
tp58
(lp59
F7.32
aF5.124
aF8.052
aF6.1
aF4.148
aF5.368
aF1.708
aF8.052
aF3.416
aF5.856
aF4.392
aF10.736
aF6.344
aF3.66
aF7.32
aF2.928
aF4.636
aF5.368
aF4.636
aF6.1
aF3.416
aF7.564
aF1.952
aF6.588
aF7.564
aF7.564
aF2.928
aF6.588
aF5.124
aF2.928
aF1.952
aF5.368
aF4.148
aF4.148
aF5.612
aF5.612
aF3.904
aF5.856
aF4.88
aF1.952
aF3.904
aF4.148
aF3.904
aF7.564
aF7.564
aF8.54
aF8.54
aF6.832
aF1.952
aF8.54
aF1.952
aF3.904
aF5.368
aF3.172
aF5.368
aF5.612
aF5.856
aF5.856
aF5.856
aF6.1
aF5.368
aF4.148
aF7.808
aF6.1
as(I5
S'get HB12-4-LeakageCurrent[1-64]_f_rr'
p60
tp61
(lp62
F5.612
aF3.66
aF6.344
aF4.636
aF2.684
aF3.416
aF1.708
aF6.588
aF1.952
aF3.904
aF3.172
aF9.028
aF4.636
aF2.44
aF6.1
aF1.708
aF3.172
aF3.66
aF3.172
aF4.148
aF2.196
aF5.856
aF1.708
aF5.124
aF6.1
aF5.856
aF1.952
aF4.636
aF3.904
aF1.952
aF1.708
aF3.66
aF2.44
aF2.684
aF4.148
aF4.636
aF2.196
aF4.148
aF3.416
aF1.708
aF2.44
aF3.172
aF2.44
aF6.344
aF6.1
aF7.32
aF6.832
aF5.368
aF1.708
aF6.832
aF1.708
aF2.928
aF3.66
aF1.952
aF3.66
aF4.392
aF4.636
aF4.636
aF4.636
aF4.88
aF3.416
aF2.928
aF6.832
aF5.124
as(I25
S'put HB12-4-biasvoltage[1-64]_f 64*25.000000'
p63
tp64
(lp65
S'OK'
p66
as(I25
S'get HB12-4-LeakageCurrent[1-64]_f_rr'
p67
tp68
(lp69
F8.784
aF6.588
aF9.516
aF7.564
aF5.612
aF6.588
aF1.708
aF9.76
aF4.88
aF7.32
aF5.856
aF12.444
aF7.808
aF5.124
aF8.784
aF4.636
aF6.344
aF6.832
aF6.1
aF7.564
aF4.636
aF9.272
aF3.172
aF8.052
aF9.028
aF9.272
aF4.636
aF8.052
aF6.588
aF4.392
aF2.928
aF7.076
aF5.612
aF5.856
aF7.076
aF7.32
aF5.368
aF7.564
aF6.588
aF3.172
aF5.368
aF5.856
aF5.368
aF9.028
aF9.028
aF10.004
aF10.004
aF8.54
aF2.928
aF10.248
aF2.928
aF5.612
aF6.832
aF4.636
aF7.076
aF7.32
aF7.32
aF7.32
aF7.32
aF7.564
aF6.832
aF5.612
aF9.516
aF7.808
as(I0
S'put HB12-4-biasvoltage[1-64]_f 64*0.000000'
p70
tp71
(lp72
S'OK'
p73
as(I55
S'get HB12-4-biasmon[1-64]_f_rr'
p74
tp75
(lp76
F54.9353
aF54.9353
aF54.9158
aF54.9158
aF54.9353
aF54.9353
aF54.9548
aF54.9548
aF54.9158
aF54.9353
aF54.9353
aF54.9158
aF54.9353
aF54.9353
aF54.9548
aF54.9353
aF54.9158
aF54.9158
aF54.9158
aF54.9353
aF54.9353
aF54.9353
aF54.9353
aF54.9353
aF54.9353
aF54.9353
aF54.9353
aF54.9158
aF54.9353
aF54.9548
aF54.9353
aF54.9548
aF54.9353
aF54.9353
aF54.9353
aF54.9158
aF54.9353
aF54.9353
aF54.9353
aF54.9353
aF54.9353
aF54.9548
aF54.9158
aF54.9353
aF54.9353
aF54.9353
aF54.9353
aF54.9353
aF54.9353
aF54.9353
aF54.9353
aF54.9353
aF54.9353
aF54.9353
aF54.9353
aF54.9353
aF54.9353
aF54.9158
aF54.9353
aF54.9353
aF54.9353
aF54.9353
aF54.9353
aF54.9353
as(I0
S'get HB12-4-biasmon[1-64]_f_rr'
p77
tp78
(lp79
F0.0586081
aF0.0586081
aF0.0586081
aF0.0586081
aF0.0586081
aF0.0586081
aF0.0586081
aF0.0586081
aF0.0586081
aF0.0586081
aF0.0586081
aF0.0586081
aF0.0586081
aF0.0586081
aF0.0586081
aF0.0586081
aF0.0586081
aF0.0586081
aF0.0586081
aF0.0586081
aF0.0586081
aF0.0586081
aF0.0586081
aF0.0586081
aF0.0586081
aF0.0586081
aF0.0586081
aF0.0586081
aF0.0586081
aF0.0586081
aF0.0586081
aF0.0781441
aF0.0586081
aF0.0586081
aF0.0586081
aF0.0586081
aF0.0586081
aF0.0781441
aF0.0586081
aF0.0586081
aF0.0586081
aF0.0586081
aF0.0586081
aF0.0586081
aF0.0586081
aF0.0586081
aF0.0586081
aF0.0586081
aF0.0586081
aF0.0586081
aF0.0586081
aF0.0586081
aF0.0586081
aF0.0586081
aF0.0586081
aF0.0586081
aF0.0586081
aF0.0586081
aF0.0586081
aF0.0781441
aF0.0586081
aF0.0586081
aF0.0586081
aF0.0586081
as(I55
S'put HB12-4-biasvoltage[1-64]_f 64*55.000000'
p80
tp81
(lp82
S'OK'
p83
as(I35
S'get HB12-4-LeakageCurrent[1-64]_f_rr'
p84
tp85
(lp86
F10.248
aF8.052
aF10.98
aF9.028
aF7.076
aF8.296
aF1.708
aF11.224
aF6.344
aF8.784
aF7.564
aF13.908
aF9.272
aF6.588
aF10.248
aF6.1
aF7.808
aF8.052
aF7.564
aF9.272
aF6.344
aF10.736
aF4.636
aF9.516
aF10.492
aF10.736
aF6.1
aF9.516
aF8.052
aF5.856
aF4.148
aF8.54
aF7.32
aF7.32
aF8.54
aF8.784
aF7.076
aF9.028
aF8.052
aF4.636
aF6.832
aF7.564
aF6.832
aF10.492
aF10.492
aF11.712
aF11.712
aF9.76
aF4.392
aF11.712
aF4.392
aF7.076
aF8.54
aF6.344
aF8.54
aF8.784
aF8.784
aF8.784
aF8.784
aF9.272
aF8.052
aF7.076
aF10.98
aF9.272
as(I50
S'get HB12-4-biasmon[1-64]_f_rr'
p87
tp88
(lp89
F49.9341
aF49.9341
aF49.9341
aF49.9341
aF49.9536
aF49.9341
aF49.9536
aF49.9536
aF49.9341
aF49.9341
aF49.9536
aF49.9341
aF49.9536
aF49.9536
aF49.9536
aF49.9536
aF49.9145
aF49.9341
aF49.9341
aF49.9341
aF49.9536
aF49.9536
aF49.9536
aF49.9341
aF49.9536
aF49.9341
aF49.9341
aF49.9341
aF49.9341
aF49.9536
aF49.9536
aF49.9536
aF49.9341
aF49.9536
aF49.9341
aF49.9341
aF49.9341
aF49.9536
aF49.9536
aF49.9341
aF49.9341
aF49.9536
aF49.9341
aF49.9341
aF49.9341
aF49.9341
aF49.9341
aF49.9341
aF49.9341
aF49.9536
aF49.9341
aF49.9536
aF49.9536
aF49.9341
aF49.9536
aF49.9536
aF49.9536
aF49.9341
aF49.9341
aF49.9536
aF49.9536
aF49.9536
aF49.9341
aF49.9536
as(I15
S'put HB12-4-biasvoltage[1-64]_f 64*15.000000'
p90
tp91
(lp92
S'OK'
p93
as(I45
S'get HB12-4-LeakageCurrent[1-64]_f_rr'
p94
tp95
(lp96
F11.956
aF9.516
aF12.444
aF10.492
aF8.54
aF10.004
aF1.952
aF12.932
aF7.808
aF10.248
aF9.028
aF15.372
aF10.98
aF8.052
aF11.956
aF7.564
aF9.516
aF9.516
aF9.272
aF10.736
aF8.052
aF12.444
aF6.344
aF10.98
aF12.2
aF12.444
aF7.564
aF11.224
aF9.516
aF7.564
aF5.856
aF10.248
aF8.784
aF8.784
aF10.004
aF10.248
aF8.54
aF10.492
aF9.516
aF6.1
aF8.54
aF9.028
aF8.54
aF12.2
aF11.956
aF13.176
aF13.176
aF11.468
aF5.856
aF13.42
aF5.856
aF8.54
aF10.004
aF7.808
aF10.248
aF10.248
aF10.492
aF10.492
aF10.492
aF10.736
aF9.76
aF8.54
aF12.444
aF10.98
as(I5
S'put HB12-4-biasvoltage[1-64]_f 64*5.000000'
p97
tp98
(lp99
S'OK'
p100
as(I60
S'get HB12-4-biasmon[1-64]_f_rr'
p101
tp102
(lp103
F59.917
aF59.917
aF59.8974
aF59.917
aF59.917
aF59.917
aF59.9365
aF59.9365
aF59.917
aF59.917
aF59.917
aF59.917
aF59.9365
aF59.9365
aF59.9365
aF59.917
aF59.8974
aF59.8974
aF59.917
aF59.917
aF59.917
aF59.9365
aF59.9365
aF59.917
aF59.917
aF59.917
aF59.917
aF59.917
aF59.917
aF59.9365
aF59.9365
aF59.9365
aF59.917
aF59.917
aF59.917
aF59.917
aF59.917
aF59.9365
aF59.9365
aF59.9365
aF59.917
aF59.9365
aF59.917
aF59.917
aF59.917
aF59.917
aF59.917
aF59.917
aF59.917
aF59.917
aF59.917
aF59.9365
aF59.917
aF59.917
aF59.9365
aF59.917
aF59.917
aF59.917
aF59.917
aF59.9365
aF59.917
aF59.917
aF59.917
aF59.9365
as(I35
S'put HB12-4-biasvoltage[1-64]_f 64*35.000000'
p104
tp105
(lp106
S'OK'
p107
as(I55
S'get HB12-4-LeakageCurrent[1-64]_f_rr'
p108
tp109
(lp110
F13.42
aF11.224
aF14.152
aF11.956
aF10.004
aF11.468
aF3.172
aF14.396
aF9.272
aF11.956
aF10.492
aF17.08
aF12.444
aF9.76
aF13.42
aF9.272
aF10.98
aF11.224
aF10.736
aF12.444
aF9.516
aF14.152
aF7.808
aF12.444
aF13.664
aF13.908
aF9.272
aF12.932
aF10.98
aF9.028
aF7.076
aF11.712
aF10.492
aF10.492
aF11.712
aF11.712
aF10.004
aF12.2
aF11.224
aF7.564
aF10.004
aF10.492
aF10.004
aF13.664
aF13.42
aF14.64
aF14.64
aF12.932
aF7.564
aF15.128
aF7.564
aF10.248
aF11.712
aF9.516
aF11.712
aF11.956
aF11.712
aF11.956
aF11.956
aF12.2
aF11.224
aF10.248
aF13.908
aF12.444
as(I10
S'put HB12-4-biasvoltage[1-64]_f 64*10.000000'
p111
tp112
(lp113
S'OK'
p114
as(I10
S'get HB12-4-biasmon[1-64]_f_rr'
p115
tp116
(lp117
F10.0415
aF10.0415
aF10.0415
aF10.0415
aF10.0415
aF10.0415
aF10.0611
aF10.0415
aF10.0415
aF10.0415
aF10.0415
aF10.0415
aF10.0415
aF10.0415
aF10.0415
aF10.0611
aF10.0415
aF10.0415
aF10.0415
aF10.0415
aF10.0611
aF10.0611
aF10.0415
aF10.0415
aF10.0415
aF10.0415
aF10.0415
aF10.0415
aF10.0415
aF10.0611
aF10.0415
aF10.0611
aF10.0415
aF10.0415
aF10.0415
aF10.0415
aF10.0415
aF10.0611
aF10.0415
aF10.0415
aF10.0415
aF10.0611
aF10.0415
aF10.0415
aF10.0415
aF10.0415
aF10.0415
aF10.0415
aF10.0415
aF10.0415
aF10.0415
aF10.0415
aF10.0415
aF10.0415
aF10.0415
aF10.0415
aF10.0611
aF10.0415
aF10.0415
aF10.0611
aF10.0415
aF10.0415
aF10.0415
aF10.0611
as(I45
S'put HB12-4-biasvoltage[1-64]_f 64*45.000000'
p118
tp119
(lp120
S'OK'
p121
as(I5
S'get HB12-4-biasmon[1-64]_f_rr'
p122
tp123
(lp124
F5.05983
aF5.05983
aF5.05983
aF5.05983
aF5.05983
aF5.05983
aF5.05983
aF5.05983
aF5.05983
aF5.05983
aF5.05983
aF5.05983
aF5.05983
aF5.05983
aF5.05983
aF5.05983
aF5.04029
aF5.04029
aF5.05983
aF5.05983
aF5.05983
aF5.05983
aF5.05983
aF5.05983
aF5.05983
aF5.05983
aF5.05983
aF5.05983
aF5.05983
aF5.05983
aF5.04029
aF5.05983
aF5.04029
aF5.05983
aF5.05983
aF5.05983
aF5.05983
aF5.05983
aF5.05983
aF5.04029
aF5.04029
aF5.05983
aF5.04029
aF5.04029
aF5.05983
aF5.05983
aF5.04029
aF5.05983
aF5.04029
aF5.05983
aF5.04029
aF5.05983
aF5.05983
aF5.05983
aF5.05983
aF5.05983
aF5.05983
aF5.05983
aF5.05983
aF5.05983
aF5.05983
aF5.05983
aF5.05983
aF5.05983
as(I20
S'get HB12-4-biasmon[1-64]_f_rr'
p125
tp126
(lp127
F20.0244
aF20.0244
aF20.0244
aF20.0244
aF20.0244
aF20.0244
aF20.0244
aF20.044
aF20.0244
aF20.0244
aF20.0244
aF20.0244
aF20.0244
aF20.0244
aF20.0244
aF20.0244
aF20.0049
aF20.0049
aF20.0244
aF20.0244
aF20.0244
aF20.0244
aF20.0244
aF20.0244
aF20.0244
aF20.0244
aF20.0244
aF20.0244
aF20.0244
aF20.0244
aF20.0244
aF20.044
aF20.0244
aF20.0244
aF20.0244
aF20.0244
aF20.0244
aF20.0244
aF20.0244
aF20.0244
aF20.0244
aF20.044
aF20.0244
aF20.0244
aF20.0244
aF20.0244
aF20.0244
aF20.0244
aF20.0244
aF20.0244
aF20.0244
aF20.0244
aF20.0244
aF20.0244
aF20.0244
aF20.0244
aF20.0244
aF20.0244
aF20.0244
aF20.0244
aF20.0244
aF20.0244
aF20.0244
aF20.0244
as(I0
S'get HB12-4-LeakageCurrent[1-64]_f_rr'
p128
tp129
(lp130
F4.88
aF2.928
aF5.856
aF4.148
aF2.196
aF2.928
aF1.708
aF5.856
aF1.708
aF3.66
aF2.196
aF8.54
aF3.904
aF1.708
aF5.368
aF1.708
aF2.684
aF3.172
aF2.684
aF3.66
aF1.708
aF5.368
aF1.708
aF4.392
aF5.368
aF5.368
aF1.708
aF4.148
aF3.172
aF1.708
aF1.708
aF3.172
aF2.196
aF2.196
aF3.416
aF3.416
aF1.952
aF3.66
aF2.684
aF1.708
aF1.952
aF2.196
aF1.952
aF5.368
aF5.612
aF6.588
aF6.1
aF4.636
aF1.708
aF6.344
aF1.708
aF2.196
aF3.172
aF1.708
aF3.172
aF3.416
aF3.66
aF3.904
aF3.904
aF3.66
aF3.172
aF2.196
aF5.612
aF4.148
as.