(dp0
(I35
S'get HB12-2-LeakageCurrent[1-64]_f_rr'
p1
tp2
(lp3
F5.856
aF9.516
aF5.124
aF10.736
aF7.564
aF10.004
aF8.052
aF7.564
aF10.248
aF9.516
aF7.564
aF11.956
aF4.636
aF8.052
aF5.856
aF12.688
aF8.784
aF8.052
aF6.588
aF10.736
aF12.932
aF7.808
aF8.296
aF8.54
aF9.516
aF10.004
aF7.076
aF7.32
aF8.54
aF8.54
aF11.468
aF10.492
aF8.052
aF9.272
aF6.832
aF8.784
aF8.784
aF8.052
aF8.296
aF5.856
aF6.1
aF6.1
aF11.712
aF5.124
aF5.856
aF9.272
aF6.588
aF8.54
aF8.296
aF5.368
aF5.124
aF9.516
aF9.272
aF6.1
aF5.856
aF6.588
aF13.664
aF6.344
aF6.588
aF6.832
aF6.588
aF3.904
aF9.516
aF3.904
as(I0
S'get HB12-2-LeakageCurrent[1-64]_f_rr'
p4
tp5
(lp6
F1.708
aF4.392
aF1.708
aF5.124
aF2.928
aF4.88
aF2.928
aF2.196
aF4.636
aF4.392
aF2.44
aF6.588
aF1.708
aF2.684
aF1.708
aF7.076
aF3.904
aF2.928
aF1.708
aF5.124
aF7.564
aF2.928
aF2.928
aF3.416
aF3.904
aF4.88
aF1.952
aF1.952
aF3.416
aF2.928
aF6.1
aF4.636
aF2.684
aF4.148
aF1.952
aF3.66
aF3.416
aF2.928
aF3.172
aF1.708
aF1.952
aF1.708
aF6.1
aF1.708
aF1.708
aF3.416
aF1.952
aF3.172
aF3.172
aF1.708
aF1.708
aF4.148
aF4.392
aF1.708
aF1.708
aF1.952
aF8.54
aF1.708
aF1.952
aF2.196
aF1.708
aF1.708
aF4.148
aF1.708
as(I5
S'get HB12-2-LeakageCurrent[1-64]_f_rr'
p7
tp8
(lp9
F1.708
aF5.368
aF1.708
aF6.1
aF3.66
aF5.368
aF3.416
aF2.928
aF5.368
aF4.88
aF2.928
aF7.564
aF1.708
aF3.416
aF1.708
aF7.564
aF4.392
aF3.416
aF2.196
aF5.856
aF8.54
aF3.66
aF3.416
aF3.904
aF4.88
aF5.612
aF2.196
aF2.684
aF3.904
aF3.66
aF6.832
aF5.368
aF3.172
aF4.636
aF2.44
aF4.636
aF4.392
aF3.66
aF4.148
aF1.708
aF2.196
aF1.952
aF7.076
aF1.708
aF1.708
aF3.904
aF2.196
aF3.66
aF3.66
aF1.708
aF1.708
aF4.636
aF5.368
aF2.196
aF1.708
aF2.196
aF9.516
aF2.196
aF2.44
aF2.928
aF2.44
aF1.708
aF5.368
aF1.708
as(I0
S'put HB12-2-biasvoltage[1-64]_f 64*0.000000'
p10
tp11
(lp12
S'OK'
p13
as(I40
S'put HB12-2-biasvoltage[1-64]_f 64*40.000000'
p14
tp15
(lp16
S'OK'
p17
as(I10
S'get HB12-2-LeakageCurrent[1-64]_f_rr'
p18
tp19
(lp20
F2.196
aF5.856
aF1.708
aF6.832
aF4.148
aF6.1
aF4.392
aF3.66
aF6.344
aF5.856
aF3.66
aF8.052
aF1.708
aF4.148
aF2.196
aF8.784
aF5.124
aF4.148
aF2.684
aF6.832
aF9.028
aF4.148
aF4.392
aF4.636
aF5.612
aF6.1
aF3.172
aF2.928
aF4.636
aF4.392
aF7.564
aF6.588
aF4.148
aF5.612
aF2.928
aF4.88
aF4.88
aF4.392
aF4.636
aF2.44
aF2.684
aF2.196
aF7.564
aF1.952
aF2.196
aF4.88
aF2.928
aF4.636
aF4.636
aF1.952
aF1.952
aF5.856
aF5.612
aF2.44
aF2.196
aF2.928
aF9.76
aF2.44
aF2.928
aF3.416
aF2.684
aF1.708
aF5.612
aF1.708
as(I40
S'get HB12-2-LeakageCurrent[1-64]_f_rr'
p21
tp22
(lp23
F6.832
aF10.492
aF5.856
aF11.468
aF8.54
aF10.736
aF8.784
aF8.54
aF10.98
aF10.248
aF8.54
aF12.688
aF5.368
aF9.028
aF6.832
aF13.42
aF9.516
aF8.784
aF7.32
aF11.468
aF13.664
aF8.54
aF9.028
aF9.516
aF10.248
aF10.736
aF7.564
aF7.808
aF9.272
aF9.272
aF12.2
aF11.224
aF8.784
aF10.004
aF7.564
aF9.516
aF9.516
aF8.784
aF9.028
aF6.588
aF6.832
aF6.832
aF12.2
aF5.856
aF6.588
aF10.004
aF7.32
aF9.272
aF9.272
aF6.1
aF5.856
aF10.248
aF10.248
aF6.832
aF6.588
aF7.32
aF14.396
aF7.076
aF7.076
aF7.564
aF7.32
aF4.636
aF10.248
aF4.636
as(I10
S'put HB12-2-biasvoltage[1-64]_f 64*10.000000'
p24
tp25
(lp26
S'OK'
p27
as(I55
S'put HB12-2-biasvoltage[1-64]_f 64*55.000000'
p28
tp29
(lp30
S'OK'
p31
as(I20
S'get HB12-2-biasmon[1-64]_f_rr'
p32
tp33
(lp34
F20.0244
aF20.0244
aF20.0244
aF20.0244
aF20.0244
aF20.0244
aF20.0244
aF20.0244
aF20.0244
aF20.0244
aF20.0049
aF20.0244
aF20.0244
aF20.0244
aF20.0049
aF20.0244
aF20.0049
aF20.0049
aF20.0244
aF20.0244
aF20.0244
aF20.0244
aF20.0244
aF20.0244
aF20.0244
aF20.0244
aF20.0244
aF20.0244
aF20.0244
aF20.0244
aF20.0244
aF20.0244
aF20.0244
aF20.0244
aF20.0244
aF20.0049
aF20.0244
aF20.0244
aF20.0244
aF20.0244
aF20.0244
aF20.0244
aF20.0244
aF20.0244
aF20.0244
aF20.0244
aF20.0244
aF20.0244
aF20.0244
aF20.0244
aF20.0244
aF20.0244
aF20.0244
aF20.0244
aF20.0244
aF20.0244
aF20.0244
aF20.0244
aF20.0244
aF20.0244
aF20.0244
aF20.0244
aF20.0244
aF20.0244
as(I45
S'get HB12-2-LeakageCurrent[1-64]_f_rr'
p35
tp36
(lp37
F7.564
aF11.224
aF6.588
aF12.2
aF9.272
aF11.712
aF9.516
aF9.272
aF11.712
aF10.98
aF9.272
aF13.664
aF6.1
aF9.76
aF7.564
aF14.152
aF10.248
aF9.516
aF8.052
aF12.2
aF14.64
aF9.516
aF9.76
aF10.248
aF10.98
aF11.712
aF8.54
aF8.784
aF10.004
aF10.004
aF12.932
aF11.956
aF9.516
aF10.736
aF8.54
aF10.492
aF10.492
aF9.76
aF9.76
aF7.32
aF7.564
aF7.564
aF13.176
aF6.588
aF7.32
aF10.98
aF8.052
aF10.004
aF9.76
aF6.832
aF6.832
aF10.98
aF10.98
aF7.564
aF7.32
aF8.296
aF15.128
aF7.808
aF8.052
aF8.54
aF8.052
aF5.612
aF11.224
aF5.368
as(I5
S'put HB12-2-biasvoltage[1-64]_f 64*5.000000'
p38
tp39
(lp40
S'OK'
p41
as(I0
S'get HB12-2-biasmon[1-64]_f_rr'
p42
tp43
(lp44
F0.0586081
aF0.0586081
aF0.0586081
aF0.0586081
aF0.0586081
aF0.0586081
aF0.0586081
aF0.0586081
aF0.0586081
aF0.0586081
aF0.0586081
aF0.0586081
aF0.0586081
aF0.0586081
aF0.0586081
aF0.0586081
aF0.0586081
aF0.0586081
aF0.0586081
aF0.0586081
aF0.0586081
aF0.0586081
aF0.0586081
aF0.0586081
aF0.0586081
aF0.0586081
aF0.0586081
aF0.0586081
aF0.0586081
aF0.0586081
aF0.0586081
aF0.0586081
aF0.0586081
aF0.0586081
aF0.0586081
aF0.0586081
aF0.0586081
aF0.0586081
aF0.0781441
aF0.0586081
aF0.0586081
aF0.0586081
aF0.0586081
aF0.0586081
aF0.0586081
aF0.0586081
aF0.0586081
aF0.0586081
aF0.0586081
aF0.0586081
aF0.0586081
aF0.0586081
aF0.0586081
aF0.0586081
aF0.0586081
aF0.0586081
aF0.0586081
aF0.0586081
aF0.0586081
aF0.0586081
aF0.0586081
aF0.0586081
aF0.0586081
aF0.0586081
as(I45
S'get HB12-2-biasmon[1-64]_f_rr'
p45
tp46
(lp47
F44.9524
aF44.9719
aF44.9524
aF44.9719
aF44.9524
aF44.9719
aF44.9719
aF44.9524
aF44.9719
aF44.9719
aF44.9524
aF44.9524
aF44.9524
aF44.9719
aF44.9524
aF44.9524
aF44.9524
aF44.9524
aF44.9524
aF44.9524
aF44.9719
aF44.9719
aF44.9719
aF44.9719
aF44.9524
aF44.9524
aF44.9524
aF44.9524
aF44.9524
aF44.9719
aF44.9524
aF44.9524
aF44.9524
aF44.9719
aF44.9524
aF44.9524
aF44.9719
aF44.9719
aF44.9719
aF44.9719
aF44.9524
aF44.9524
aF44.9719
aF44.9524
aF44.9524
aF44.9719
aF44.9524
aF44.9524
aF44.9524
aF44.9524
aF44.9719
aF44.9719
aF44.9719
aF44.9719
aF44.9719
aF44.9524
aF44.9719
aF44.9524
aF44.9524
aF44.9719
aF44.9524
aF44.9719
aF44.9524
aF44.9524
as(I25
S'get HB12-2-LeakageCurrent[1-64]_f_rr'
p48
tp49
(lp50
F4.392
aF8.052
aF3.66
aF9.028
aF6.344
aF8.54
aF6.588
aF6.1
aF8.54
aF8.052
aF6.1
aF10.492
aF3.172
aF6.588
aF4.392
aF10.98
aF7.32
aF6.588
aF4.88
aF9.028
aF11.468
aF6.344
aF6.832
aF7.076
aF7.808
aF8.54
aF5.368
aF5.612
aF7.076
aF6.832
aF10.004
aF8.784
aF6.588
aF7.564
aF5.368
aF7.32
aF7.32
aF6.588
aF6.832
aF4.148
aF4.636
aF4.392
aF10.004
aF3.66
aF4.148
aF7.564
aF5.124
aF6.832
aF6.832
aF3.904
aF3.66
aF7.808
aF7.808
aF4.636
aF4.148
aF5.124
aF12.2
aF4.636
aF4.88
aF5.368
aF4.88
aF2.44
aF8.052
aF2.44
as(I25
S'get HB12-2-biasmon[1-64]_f_rr'
p51
tp52
(lp53
F25.0061
aF25.0061
aF24.9866
aF25.0061
aF25.0061
aF25.0256
aF25.0256
aF25.0061
aF25.0256
aF25.0256
aF24.9866
aF25.0256
aF25.0061
aF25.0256
aF24.9866
aF24.9866
aF24.9866
aF24.9866
aF24.9866
aF25.0061
aF25.0256
aF25.0256
aF25.0256
aF25.0256
aF25.0061
aF25.0061
aF25.0061
aF25.0061
aF25.0061
aF25.0256
aF25.0061
aF25.0256
aF25.0061
aF25.0256
aF25.0061
aF24.9866
aF25.0061
aF25.0256
aF25.0256
aF25.0256
aF25.0061
aF25.0061
aF25.0256
aF25.0256
aF25.0061
aF25.0256
aF25.0061
aF25.0061
aF24.9866
aF25.0061
aF25.0061
aF25.0061
aF25.0061
aF25.0256
aF25.0256
aF25.0061
aF25.0256
aF25.0061
aF25.0061
aF25.0061
aF25.0061
aF25.0061
aF25.0061
aF25.0061
as(I15
S'get HB12-2-biasmon[1-64]_f_rr'
p54
tp55
(lp56
F15.0232
aF15.0232
aF15.0232
aF15.0427
aF15.0232
aF15.0427
aF15.0427
aF15.0427
aF15.0427
aF15.0427
aF15.0232
aF15.0427
aF15.0232
aF15.0427
aF15.0232
aF15.0232
aF15.0232
aF15.0232
aF15.0232
aF15.0232
aF15.0427
aF15.0427
aF15.0427
aF15.0427
aF15.0232
aF15.0232
aF15.0427
aF15.0232
aF15.0232
aF15.0427
aF15.0232
aF15.0232
aF15.0232
aF15.0427
aF15.0232
aF15.0232
aF15.0427
aF15.0427
aF15.0427
aF15.0427
aF15.0232
aF15.0427
aF15.0427
aF15.0427
aF15.0427
aF15.0427
aF15.0232
aF15.0232
aF15.0232
aF15.0232
aF15.0427
aF15.0427
aF15.0427
aF15.0427
aF15.0427
aF15.0232
aF15.0427
aF15.0232
aF15.0232
aF15.0427
aF15.0232
aF15.0232
aF15.0232
aF15.0232
as(I30
S'get HB12-2-biasmon[1-64]_f_rr'
p57
tp58
(lp59
F30.0073
aF30.0073
aF30.0073
aF30.0073
aF30.0073
aF30.0073
aF30.0073
aF30.0073
aF30.0073
aF30.0073
aF30.0073
aF30.0073
aF30.0073
aF30.0073
aF30.0073
aF30.0073
aF29.9878
aF30.0073
aF30.0073
aF30.0073
aF30.0073
aF30.0073
aF30.0073
aF30.0073
aF30.0073
aF30.0073
aF30.0073
aF30.0073
aF30.0073
aF30.0073
aF30.0073
aF30.0073
aF30.0073
aF30.0073
aF30.0073
aF30.0073
aF30.0073
aF30.0073
aF30.0269
aF30.0073
aF30.0073
aF30.0073
aF30.0073
aF30.0073
aF30.0073
aF30.0073
aF30.0073
aF30.0073
aF30.0073
aF30.0073
aF30.0073
aF30.0073
aF30.0073
aF30.0073
aF30.0073
aF30.0073
aF30.0073
aF30.0073
aF30.0073
aF30.0073
aF30.0073
aF30.0073
aF30.0073
aF30.0073
as(I55
S'get HB12-2-LeakageCurrent[1-64]_f_rr'
p60
tp61
(lp62
F9.272
aF12.688
aF8.052
aF13.664
aF10.736
aF13.176
aF11.224
aF10.98
aF13.42
aF12.444
aF10.736
aF15.128
aF7.808
aF11.468
aF9.028
aF15.616
aF11.712
aF11.224
aF9.76
aF13.908
aF16.104
aF10.98
aF11.468
aF11.712
aF12.444
aF13.176
aF10.004
aF10.248
aF11.468
aF11.712
aF14.64
aF13.664
aF11.224
aF12.2
aF10.004
aF11.956
aF11.956
aF11.224
aF11.468
aF8.784
aF9.028
aF9.028
aF14.64
aF8.296
aF9.028
aF12.444
aF9.516
aF11.712
aF11.468
aF8.296
aF8.296
aF12.444
aF12.444
aF9.272
aF8.784
aF9.76
aF16.592
aF9.272
aF9.516
aF10.004
aF9.516
aF7.076
aF12.688
aF6.832
as(I15
S'put HB12-2-biasvoltage[1-64]_f 64*15.000000'
p63
tp64
(lp65
S'OK'
p66
as(I55
S'get HB12-2-biasmon[1-64]_f_rr'
p67
tp68
(lp69
F54.9353
aF54.9548
aF54.9353
aF54.9353
aF54.9548
aF54.9548
aF54.9548
aF54.9353
aF54.9548
aF54.9548
aF54.9353
aF54.9353
aF54.9353
aF54.9548
aF54.9353
aF54.9353
aF54.9353
aF54.9353
aF54.9353
aF54.9353
aF54.9548
aF54.9548
aF54.9548
aF54.9548
aF54.9353
aF54.9353
aF54.9353
aF54.9353
aF54.9353
aF54.9548
aF54.9353
aF54.9548
aF54.9353
aF54.9548
aF54.9353
aF54.9353
aF54.9548
aF54.9548
aF54.9548
aF54.9548
aF54.9353
aF54.9353
aF54.9353
aF54.9353
aF54.9548
aF54.9548
aF54.9353
aF54.9353
aF54.9353
aF54.9353
aF54.9353
aF54.9548
aF54.9353
aF54.9548
aF54.9548
aF54.9353
aF54.9548
aF54.9353
aF54.9353
aF54.9548
aF54.9353
aF54.9353
aF54.9353
aF54.9353
as(I40
S'get HB12-2-biasmon[1-64]_f_rr'
p70
tp71
(lp72
F39.9707
aF39.9707
aF39.9707
aF39.9707
aF39.9707
aF39.9902
aF39.9902
aF39.9707
aF39.9902
aF39.9707
aF39.9707
aF39.9707
aF39.9707
aF39.9707
aF39.9707
aF39.9707
aF39.9707
aF39.9707
aF39.9707
aF39.9707
aF39.9902
aF39.9902
aF39.9902
aF39.9902
aF39.9707
aF39.9707
aF39.9707
aF39.9707
aF39.9707
aF39.9902
aF39.9707
aF39.9707
aF39.9707
aF39.9707
aF39.9707
aF39.9707
aF39.9902
aF39.9707
aF39.9902
aF39.9902
aF39.9707
aF39.9707
aF39.9902
aF39.9707
aF39.9707
aF39.9707
aF39.9707
aF39.9707
aF39.9707
aF39.9707
aF39.9902
aF39.9707
aF39.9707
aF39.9707
aF39.9902
aF39.9707
aF39.9707
aF39.9707
aF39.9707
aF39.9707
aF39.9707
aF39.9707
aF39.9707
aF39.9707
as(I35
S'get HB12-2-biasmon[1-64]_f_rr'
p73
tp74
(lp75
F35.0085
aF35.0085
aF34.989
aF35.0085
aF35.0085
aF35.0085
aF35.0085
aF34.989
aF35.0085
aF35.0085
aF34.989
aF34.989
aF34.989
aF35.0085
aF34.989
aF34.989
aF34.989
aF34.989
aF34.989
aF35.0085
aF35.0085
aF35.0085
aF35.0085
aF35.0085
aF34.989
aF34.989
aF34.989
aF34.989
aF34.989
aF35.0085
aF34.989
aF35.0085
aF34.989
aF35.0085
aF34.989
aF34.989
aF35.0085
aF35.0085
aF35.0085
aF35.0085
aF35.0085
aF34.989
aF35.0085
aF35.0085
aF34.989
aF35.0085
aF34.989
aF35.0085
aF34.989
aF34.989
aF35.0085
aF35.0085
aF35.0085
aF35.0085
aF35.0085
aF35.0085
aF35.0085
aF34.989
aF34.989
aF35.0085
aF34.989
aF35.0085
aF35.0085
aF35.0085
as(I35
S'put HB12-2-biasvoltage[1-64]_f 64*35.000000'
p76
tp77
(lp78
S'OK'
p79
as(I10
S'get HB12-2-biasmon[1-64]_f_rr'
p80
tp81
(lp82
F10.0415
aF10.0415
aF10.0415
aF10.0611
aF10.0415
aF10.0611
aF10.0611
aF10.0415
aF10.0611
aF10.0415
aF10.0415
aF10.0611
aF10.0415
aF10.0415
aF10.0415
aF10.0415
aF10.0415
aF10.022
aF10.0415
aF10.0415
aF10.0611
aF10.0611
aF10.0611
aF10.0611
aF10.0415
aF10.0415
aF10.0415
aF10.0415
aF10.0415
aF10.0611
aF10.0415
aF10.0611
aF10.0415
aF10.0611
aF10.0415
aF10.0415
aF10.0611
aF10.0611
aF10.0611
aF10.0611
aF10.0611
aF10.0415
aF10.0611
aF10.0611
aF10.0415
aF10.0611
aF10.0415
aF10.0415
aF10.022
aF10.0415
aF10.0611
aF10.0611
aF10.0415
aF10.0611
aF10.0415
aF10.0415
aF10.0611
aF10.0415
aF10.0611
aF10.0415
aF10.0415
aF10.0415
aF10.0415
aF10.0415
as(I60
S'get HB12-2-biasmon[1-64]_f_rr'
p83
tp84
(lp85
F59.917
aF59.9365
aF59.917
aF59.9365
aF59.9365
aF59.9365
aF59.9365
aF59.9365
aF59.9365
aF59.9365
aF59.917
aF59.917
aF59.917
aF59.9365
aF59.917
aF59.917
aF59.917
aF59.917
aF59.917
aF59.917
aF59.956
aF59.9365
aF59.956
aF59.9365
aF59.917
aF59.917
aF59.917
aF59.917
aF59.917
aF59.9365
aF59.9365
aF59.9365
aF59.917
aF59.9365
aF59.917
aF59.917
aF59.9365
aF59.9365
aF59.9365
aF59.9365
aF59.9365
aF59.9365
aF59.9365
aF59.9365
aF59.9365
aF59.9365
aF59.917
aF59.9365
aF59.917
aF59.917
aF59.9365
aF59.9365
aF59.9365
aF59.9365
aF59.956
aF59.9365
aF59.9365
aF59.917
aF59.9365
aF59.9365
aF59.9365
aF59.9365
aF59.9365
aF59.9365
as(I15
S'get HB12-2-LeakageCurrent[1-64]_f_rr'
p86
tp87
(lp88
F2.928
aF6.588
aF1.952
aF7.564
aF4.636
aF7.076
aF4.88
aF4.392
aF7.32
aF6.588
aF4.636
aF8.784
aF1.952
aF4.88
aF2.928
aF9.516
aF5.856
aF4.88
aF3.416
aF7.564
aF9.76
aF4.88
aF5.124
aF5.612
aF6.344
aF7.076
aF3.904
aF3.904
aF5.368
aF5.368
aF8.296
aF7.32
aF5.124
aF6.344
aF3.66
aF5.856
aF5.856
aF4.88
aF5.368
aF2.928
aF3.172
aF2.928
aF8.54
aF2.196
aF2.684
aF5.856
aF3.66
aF5.612
aF5.368
aF2.44
aF2.196
aF6.344
aF6.588
aF3.416
aF2.684
aF3.66
aF10.736
aF3.172
aF3.416
aF3.904
aF3.416
aF1.708
aF6.344
aF1.708
as(I20
S'put HB12-2-biasvoltage[1-64]_f 64*20.000000'
p89
tp90
(lp91
S'OK'
p92
as(I25
S'put HB12-2-biasvoltage[1-64]_f 64*25.000000'
p93
tp94
(lp95
S'OK'
p96
as(I50
S'get HB12-2-biasmon[1-64]_f_rr'
p97
tp98
(lp99
F49.9341
aF49.9536
aF49.9341
aF49.9536
aF49.9536
aF49.9536
aF49.9536
aF49.9536
aF49.9536
aF49.9536
aF49.9341
aF49.9341
aF49.9341
aF49.9536
aF49.9341
aF49.9341
aF49.9341
aF49.9341
aF49.9341
aF49.9341
aF49.9536
aF49.9536
aF49.9536
aF49.9536
aF49.9341
aF49.9341
aF49.9341
aF49.9341
aF49.9536
aF49.9536
aF49.9536
aF49.9536
aF49.9341
aF49.9536
aF49.9536
aF49.9536
aF49.9536
aF49.9536
aF49.9536
aF49.9536
aF49.9536
aF49.9341
aF49.9536
aF49.9536
aF49.9536
aF49.9536
aF49.9536
aF49.9536
aF49.9341
aF49.9341
aF49.9536
aF49.9536
aF49.9536
aF49.9536
aF49.9536
aF49.9536
aF49.9536
aF49.9341
aF49.9536
aF49.9536
aF49.9341
aF49.9341
aF49.9536
aF49.9536
as(I5
S'get HB12-2-biasmon[1-64]_f_rr'
p100
tp101
(lp102
F5.04029
aF5.05983
aF5.04029
aF5.05983
aF5.05983
aF5.05983
aF5.05983
aF5.05983
aF5.05983
aF5.05983
aF5.04029
aF5.05983
aF5.05983
aF5.05983
aF5.04029
aF5.04029
aF5.04029
aF5.04029
aF5.04029
aF5.05983
aF5.05983
aF5.05983
aF5.05983
aF5.05983
aF5.05983
aF5.04029
aF5.05983
aF5.04029
aF5.04029
aF5.05983
aF5.05983
aF5.05983
aF5.04029
aF5.05983
aF5.05983
aF5.04029
aF5.05983
aF5.05983
aF5.05983
aF5.05983
aF5.05983
aF5.05983
aF5.05983
aF5.05983
aF5.05983
aF5.05983
aF5.05983
aF5.05983
aF5.04029
aF5.05983
aF5.05983
aF5.04029
aF5.05983
aF5.05983
aF5.05983
aF5.05983
aF5.05983
aF5.04029
aF5.05983
aF5.05983
aF5.04029
aF5.05983
aF5.05983
aF5.05983
as(I50
S'put HB12-2-biasvoltage[1-64]_f 64*50.000000'
p103
tp104
(lp105
S'OK'
p106
as(I20
S'get HB12-2-LeakageCurrent[1-64]_f_rr'
p107
tp108
(lp109
F3.66
aF7.564
aF2.684
aF8.296
aF5.612
aF7.808
aF5.856
aF5.368
aF7.808
aF7.32
aF5.368
aF9.516
aF2.44
aF5.856
aF3.66
aF10.248
aF6.588
aF5.856
aF4.148
aF8.296
aF10.736
aF5.612
aF5.856
aF6.344
aF7.076
aF7.808
aF4.636
aF4.636
aF6.1
aF6.1
aF9.028
aF8.052
aF5.856
aF7.076
aF4.636
aF6.588
aF6.588
aF5.856
aF6.1
aF3.66
aF3.904
aF3.66
aF9.272
aF2.928
aF3.416
aF6.832
aF4.392
aF6.1
aF6.1
aF3.172
aF2.928
aF7.076
aF7.076
aF3.904
aF3.416
aF4.148
aF11.468
aF3.904
aF4.148
aF4.636
aF4.148
aF1.952
aF7.32
aF1.952
as(I50
S'get HB12-2-LeakageCurrent[1-64]_f_rr'
p110
tp111
(lp112
F8.296
aF11.956
aF7.32
aF13.176
aF10.004
aF12.444
aF10.248
aF10.004
aF12.444
aF11.712
aF10.004
aF14.396
aF7.076
aF10.492
aF8.296
aF15.128
aF10.98
aF10.248
aF8.784
aF13.176
aF15.372
aF10.004
aF10.736
aF10.98
aF11.712
aF12.444
aF9.516
aF9.516
aF10.736
aF10.736
aF13.664
aF12.932
aF10.492
aF11.712
aF9.272
aF11.224
aF11.224
aF10.492
aF10.492
aF8.052
aF8.296
aF8.296
aF13.908
aF7.564
aF8.052
aF11.712
aF8.784
aF10.736
aF10.736
aF7.564
aF7.564
aF11.712
aF11.712
aF8.54
aF8.052
aF9.028
aF15.86
aF8.54
aF8.784
aF9.272
aF8.784
aF6.1
aF11.712
aF5.856
as(I60
S'put HB12-2-biasvoltage[1-64]_f 64*60.000000'
p113
tp114
(lp115
S'OK'
p116
as(I30
S'put HB12-2-biasvoltage[1-64]_f 64*30.000000'
p117
tp118
(lp119
S'OK'
p120
as(I45
S'put HB12-2-biasvoltage[1-64]_f 64*45.000000'
p121
tp122
(lp123
S'OK'
p124
as(I60
S'get HB12-2-LeakageCurrent[1-64]_f_rr'
p125
tp126
(lp127
F10.004
aF13.664
aF9.028
aF14.64
aF11.468
aF13.908
aF11.712
aF11.712
aF14.152
aF13.176
aF11.712
aF15.86
aF8.54
aF11.956
aF9.76
aF16.592
aF12.444
aF11.956
aF10.492
aF14.64
aF16.836
aF11.712
aF12.2
aF12.688
aF13.42
aF13.908
aF10.736
aF11.224
aF12.2
aF12.444
aF15.372
aF14.64
aF11.956
aF13.176
aF10.736
aF12.688
aF12.688
aF11.956
aF12.2
aF9.516
aF10.004
aF10.004
aF15.372
aF9.028
aF9.76
aF13.176
aF10.492
aF12.444
aF12.2
aF9.272
aF9.028
aF13.42
aF13.176
aF10.004
aF9.516
aF10.736
aF17.324
aF10.004
aF10.248
aF10.736
aF10.248
aF7.564
aF13.42
aF7.564
as(I30
S'get HB12-2-LeakageCurrent[1-64]_f_rr'
p128
tp129
(lp130
F5.124
aF8.784
aF4.148
aF9.76
aF7.076
aF9.272
aF7.32
aF6.832
aF9.516
aF8.54
aF6.832
aF11.224
aF3.904
aF7.32
aF5.124
aF11.712
aF7.808
aF7.32
aF5.856
aF9.76
aF12.2
aF7.076
aF7.564
aF7.808
aF8.54
aF9.272
aF6.1
aF6.344
aF7.564
aF7.808
aF10.736
aF9.516
aF7.32
aF8.54
aF6.1
aF8.052
aF8.052
aF7.32
aF7.564
aF5.124
aF5.368
aF5.124
aF10.736
aF4.392
aF4.88
aF8.296
aF5.856
aF7.564
aF7.564
aF4.636
aF4.392
aF8.54
aF8.54
aF5.368
aF4.88
aF5.856
aF12.932
aF5.612
aF5.856
aF6.1
aF5.612
aF3.172
aF8.784
aF2.928
as.