(dp0
(I50
S'put HB2-1-biasvoltage[1-64]_f 64*50.000000'
p1
tp2
(lp3
S'OK'
p4
as(I35
S'put HB2-1-biasvoltage[1-64]_f 64*35.000000'
p5
tp6
(lp7
S'OK'
p8
as(I20
S'put HB2-1-biasvoltage[1-64]_f 64*20.000000'
p9
tp10
(lp11
S'OK'
p12
as(I30
S'get HB2-1-biasmon[1-64]_f_rr'
p13
tp14
(lp15
F30.0073
aF30.0073
aF30.0073
aF30.0073
aF30.0073
aF30.0269
aF30.0073
aF30.0269
aF30.0269
aF30.0269
aF30.0073
aF30.0073
aF30.0073
aF30.0269
aF30.0073
aF30.0073
aF30.0073
aF30.0073
aF30.0073
aF30.0073
aF30.0073
aF30.0269
aF30.0073
aF30.0269
aF30.0073
aF30.0073
aF30.0073
aF30.0073
aF30.0073
aF30.0269
aF30.0073
aF30.0073
aF30.0073
aF30.0073
aF30.0073
aF30.0073
aF30.0073
aF30.0269
aF30.0269
aF30.0269
aF30.0073
aF30.0073
aF30.0073
aF30.0073
aF30.0269
aF30.0073
aF30.0073
aF30.0073
aF30.0073
aF30.0269
aF29.9878
aF30.0073
aF30.0073
aF30.0073
aF30.0073
aF30.0269
aF30.0073
aF30.0073
aF30.0073
aF30.0073
aF30.0269
aF30.0073
aF30.0269
aF30.0269
as(I0
S'put HB2-1-biasvoltage[1-64]_f 64*0.000000'
p16
tp17
(lp18
S'OK'
p19
as(I5
S'get HB2-1-LeakageCurrent[1-64]_f_rr'
p20
tp21
(lp22
F1.952
aF3.66
aF3.416
aF7.564
aF1.708
aF1.708
aF4.636
aF7.564
aF1.708
aF3.416
aF4.148
aF1.708
aF4.88
aF4.636
aF3.416
aF10.248
aF4.148
aF4.392
aF2.928
aF1.708
aF1.708
aF1.708
aF2.44
aF3.904
aF4.88
aF6.1
aF2.684
aF1.708
aF3.172
aF6.344
aF3.66
aF1.708
aF7.564
aF7.564
aF4.392
aF2.928
aF2.44
aF4.392
aF6.1
aF7.076
aF2.928
aF13.176
aF1.708
aF2.44
aF5.368
aF1.952
aF4.636
aF3.416
aF4.636
aF2.684
aF4.636
aF7.076
aF1.952
aF4.148
aF1.708
aF4.148
aF3.904
aF6.832
aF2.44
aF3.904
aF3.904
aF5.368
aF2.684
aF8.54
as(I15
S'get HB2-1-biasmon[1-64]_f_rr'
p23
tp24
(lp25
F15.0232
aF15.0232
aF15.0232
aF15.0232
aF15.0427
aF15.0427
aF15.0232
aF15.0427
aF15.0427
aF15.0427
aF15.0427
aF15.0232
aF15.0232
aF15.0427
aF15.0232
aF15.0232
aF15.0427
aF15.0232
aF15.0232
aF15.0427
aF15.0232
aF15.0427
aF15.0232
aF15.0427
aF15.0427
aF15.0427
aF15.0232
aF15.0232
aF15.0232
aF15.0427
aF15.0427
aF15.0427
aF15.0232
aF15.0427
aF15.0232
aF15.0232
aF15.0427
aF15.0427
aF15.0427
aF15.0427
aF15.0427
aF15.0232
aF15.0232
aF15.0232
aF15.0427
aF15.0232
aF15.0427
aF15.0427
aF15.0232
aF15.0427
aF15.0232
aF15.0427
aF15.0232
aF15.0232
aF15.0427
aF15.0427
aF15.0232
aF15.0232
aF15.0232
aF15.0232
aF15.0427
aF15.0427
aF15.0427
aF15.0427
as(I55
S'get HB2-1-LeakageCurrent[1-64]_f_rr'
p26
tp27
(lp28
F9.516
aF11.224
aF10.736
aF15.372
aF8.784
aF7.808
aF12.444
aF15.372
aF7.076
aF10.736
aF12.2
aF8.54
aF12.444
aF12.2
aF11.224
aF18.056
aF11.712
aF11.712
aF11.224
aF6.344
aF7.808
aF7.564
aF10.98
aF11.224
aF12.932
aF13.908
aF10.248
aF8.784
aF10.736
aF13.908
aF11.224
aF8.54
aF14.884
aF15.372
aF11.712
aF10.492
aF10.248
aF12.2
aF13.664
aF14.64
aF10.736
aF20.496
aF7.564
aF10.004
aF12.688
aF9.028
aF12.444
aF11.468
aF12.444
aF9.76
aF11.956
aF14.884
aF9.272
aF11.712
aF6.1
aF11.956
aF10.98
aF14.64
aF10.248
aF11.224
aF11.956
aF12.932
aF10.736
aF16.348
as(I20
S'get HB2-1-biasmon[1-64]_f_rr'
p29
tp30
(lp31
F20.0244
aF20.0244
aF20.0244
aF20.0244
aF20.0244
aF20.0244
aF20.0244
aF20.0244
aF20.044
aF20.0244
aF20.0244
aF20.0244
aF20.0244
aF20.0244
aF20.0244
aF20.0244
aF20.0244
aF20.0244
aF20.0244
aF20.0244
aF20.0244
aF20.044
aF20.0244
aF20.0244
aF20.0244
aF20.0244
aF20.0244
aF20.0244
aF20.0244
aF20.0244
aF20.0244
aF20.0244
aF20.0244
aF20.0244
aF20.0244
aF20.0244
aF20.0244
aF20.0244
aF20.044
aF20.044
aF20.0244
aF20.0244
aF20.0244
aF20.0244
aF20.0244
aF20.0244
aF20.0244
aF20.0244
aF20.0244
aF20.044
aF20.0049
aF20.0244
aF20.0244
aF20.0244
aF20.0244
aF20.0244
aF20.0244
aF20.0244
aF20.0244
aF20.0244
aF20.0244
aF20.0244
aF20.0244
aF20.0244
as(I25
S'get HB2-1-biasmon[1-64]_f_rr'
p32
tp33
(lp34
F25.0061
aF25.0061
aF25.0061
aF24.9866
aF25.0256
aF25.0256
aF25.0061
aF25.0256
aF25.0256
aF25.0256
aF25.0256
aF24.9866
aF25.0061
aF25.0256
aF25.0061
aF25.0256
aF25.0256
aF25.0061
aF25.0061
aF25.0061
aF25.0256
aF25.0061
aF25.0061
aF25.0256
aF25.0256
aF25.0061
aF25.0061
aF25.0061
aF25.0061
aF25.0256
aF25.0061
aF25.0256
aF25.0061
aF25.0256
aF24.9866
aF25.0061
aF25.0061
aF25.0256
aF25.0256
aF25.0256
aF25.0061
aF25.0061
aF25.0061
aF25.0061
aF25.0256
aF25.0256
aF25.0256
aF25.0061
aF25.0061
aF25.0256
aF24.9866
aF25.0256
aF25.0061
aF25.0061
aF25.0256
aF25.0256
aF25.0256
aF25.0061
aF25.0256
aF25.0256
aF25.0256
aF25.0256
aF25.0256
aF25.0256
as(I5
S'get HB2-1-biasmon[1-64]_f_rr'
p35
tp36
(lp37
F5.04029
aF5.04029
aF5.04029
aF5.04029
aF5.05983
aF5.05983
aF5.05983
aF5.05983
aF5.05983
aF5.05983
aF5.05983
aF5.04029
aF5.04029
aF5.05983
aF5.04029
aF5.05983
aF5.05983
aF5.04029
aF5.04029
aF5.05983
aF5.05983
aF5.05983
aF5.05983
aF5.05983
aF5.05983
aF5.05983
aF5.05983
aF5.04029
aF5.04029
aF5.05983
aF5.04029
aF5.05983
aF5.04029
aF5.04029
aF5.04029
aF5.05983
aF5.04029
aF5.05983
aF5.05983
aF5.05983
aF5.05983
aF5.05983
aF5.04029
aF5.05983
aF5.05983
aF5.05983
aF5.05983
aF5.05983
aF5.04029
aF5.05983
aF5.04029
aF5.05983
aF5.05983
aF5.05983
aF5.05983
aF5.05983
aF5.05983
aF5.05983
aF5.05983
aF5.05983
aF5.05983
aF5.05983
aF5.05983
aF5.05983
as(I10
S'get HB2-1-biasmon[1-64]_f_rr'
p38
tp39
(lp40
F10.0415
aF10.0415
aF10.0415
aF10.0415
aF10.0611
aF10.0611
aF10.0415
aF10.0611
aF10.0611
aF10.0415
aF10.0611
aF10.0415
aF10.0415
aF10.0415
aF10.0415
aF10.0611
aF10.0415
aF10.0415
aF10.0415
aF10.0415
aF10.0415
aF10.0611
aF10.0611
aF10.0415
aF10.0415
aF10.0415
aF10.0415
aF10.0415
aF10.0415
aF10.0611
aF10.0415
aF10.0415
aF10.0415
aF10.0415
aF10.0415
aF10.0415
aF10.0415
aF10.0611
aF10.0611
aF10.0611
aF10.0415
aF10.0415
aF10.0415
aF10.0415
aF10.0415
aF10.0415
aF10.0415
aF10.0611
aF10.0415
aF10.0611
aF10.0415
aF10.0415
aF10.0415
aF10.0415
aF10.0611
aF10.0611
aF10.0415
aF10.0415
aF10.0415
aF10.0611
aF10.0415
aF10.0415
aF10.0611
aF10.0415
as(I30
S'get HB2-1-LeakageCurrent[1-64]_f_rr'
p41
tp42
(lp43
F5.612
aF7.564
aF6.832
aF11.712
aF5.124
aF4.148
aF8.784
aF11.468
aF3.172
aF7.076
aF8.296
aF4.636
aF8.54
aF8.296
aF7.564
aF14.152
aF7.808
aF7.808
aF7.32
aF2.44
aF4.392
aF3.66
aF6.832
aF7.564
aF9.028
aF10.004
aF6.588
aF4.88
aF6.832
aF10.004
aF7.564
aF4.88
aF10.98
aF11.468
aF8.052
aF6.588
aF6.344
aF8.296
aF9.76
aF10.736
aF6.832
aF16.348
aF3.416
aF6.1
aF9.028
aF5.124
aF8.54
aF7.32
aF8.54
aF6.1
aF8.296
aF10.98
aF5.368
aF8.052
aF2.44
aF8.052
aF7.32
aF10.736
aF6.344
aF7.32
aF8.052
aF9.028
aF6.832
aF12.444
as(I45
S'get HB2-1-LeakageCurrent[1-64]_f_rr'
p44
tp45
(lp46
F7.808
aF9.76
aF9.272
aF13.908
aF7.32
aF6.344
aF10.98
aF13.664
aF5.612
aF9.516
aF10.736
aF7.076
aF10.736
aF10.736
aF9.76
aF16.348
aF10.248
aF10.004
aF9.516
aF4.636
aF6.344
aF6.1
aF9.272
aF9.76
aF11.468
aF12.2
aF8.784
aF7.32
aF9.272
aF12.444
aF9.76
aF7.076
aF13.42
aF13.908
aF10.248
aF8.784
aF8.784
aF10.736
aF12.2
aF13.176
aF9.028
aF19.032
aF5.856
aF8.54
aF11.224
aF7.564
aF10.98
aF9.516
aF10.98
aF8.296
aF10.492
aF13.42
aF7.564
aF10.248
aF4.636
aF10.492
aF9.516
aF13.176
aF8.54
aF9.516
aF10.492
aF11.224
aF9.028
aF14.64
as(I55
S'get HB2-1-biasmon[1-64]_f_rr'
p47
tp48
(lp49
F54.9353
aF54.9548
aF54.9353
aF54.9353
aF54.9548
aF54.9744
aF54.9548
aF54.9548
aF54.9548
aF54.9548
aF54.9548
aF54.9353
aF54.9548
aF54.9548
aF54.9548
aF54.9548
aF54.9548
aF54.9548
aF54.9353
aF54.9353
aF54.9548
aF54.9548
aF54.9548
aF54.9548
aF54.9548
aF54.9548
aF54.9353
aF54.9353
aF54.9548
aF54.9744
aF54.9548
aF54.9548
aF54.9353
aF54.9548
aF54.9353
aF54.9353
aF54.9548
aF54.9548
aF54.9548
aF54.9548
aF54.9353
aF54.9548
aF54.9353
aF54.9548
aF54.9548
aF54.9548
aF54.9548
aF54.9548
aF54.9548
aF54.9548
aF54.9353
aF54.9548
aF54.9548
aF54.9548
aF54.9548
aF54.9548
aF54.9548
aF54.9353
aF54.9548
aF54.9548
aF54.9548
aF54.9548
aF54.9548
aF54.9548
as(I60
S'get HB2-1-biasmon[1-64]_f_rr'
p50
tp51
(lp52
F59.9365
aF59.9365
aF59.9365
aF59.9365
aF59.956
aF59.956
aF59.9365
aF59.9365
aF59.956
aF59.9365
aF59.9365
aF59.9365
aF59.9365
aF59.956
aF59.9365
aF59.9365
aF59.9365
aF59.9365
aF59.9365
aF59.9365
aF59.956
aF59.956
aF59.9365
aF59.9365
aF59.9365
aF59.9365
aF59.917
aF59.9365
aF59.9365
aF59.956
aF59.956
aF59.9365
aF59.9365
aF59.9365
aF59.917
aF59.9365
aF59.9365
aF59.9365
aF59.956
aF59.956
aF59.9365
aF59.9365
aF59.9365
aF59.9365
aF59.956
aF59.9365
aF59.9365
aF59.9365
aF59.9365
aF59.9365
aF59.917
aF59.9365
aF59.9365
aF59.9365
aF59.9365
aF59.9365
aF59.9365
aF59.917
aF59.9365
aF59.9365
aF59.9365
aF59.9365
aF59.956
aF59.956
as(I40
S'get HB2-1-LeakageCurrent[1-64]_f_rr'
p53
tp54
(lp55
F7.076
aF9.028
aF8.54
aF13.176
aF6.588
aF5.612
aF10.248
aF12.932
aF4.636
aF8.54
aF9.76
aF6.1
aF10.004
aF9.76
aF9.028
aF15.616
aF9.516
aF9.516
aF8.784
aF3.904
aF5.856
aF5.368
aF8.54
aF8.784
aF10.736
aF11.712
aF8.052
aF6.588
aF8.296
aF11.712
aF9.028
aF6.344
aF12.444
aF13.176
aF9.516
aF8.052
aF7.808
aF9.76
aF11.468
aF12.444
aF8.296
aF18.056
aF5.124
aF7.564
aF10.492
aF6.832
aF10.004
aF9.028
aF10.248
aF7.564
aF9.76
aF12.444
aF6.832
aF9.516
aF3.904
aF9.516
aF8.784
aF12.2
aF7.808
aF8.784
aF9.516
aF10.492
aF8.296
aF13.908
as(I45
S'get HB2-1-biasmon[1-64]_f_rr'
p56
tp57
(lp58
F44.9524
aF44.9524
aF44.9524
aF44.9524
aF44.9719
aF44.9719
aF44.9719
aF44.9719
aF44.9719
aF44.9719
aF44.9719
aF44.9524
aF44.9719
aF44.9719
aF44.9719
aF44.9719
aF44.9719
aF44.9719
aF44.9524
aF44.9719
aF44.9719
aF44.9719
aF44.9719
aF44.9719
aF44.9719
aF44.9719
aF44.9719
aF44.9719
aF44.9719
aF44.9719
aF44.9719
aF44.9719
aF44.9524
aF44.9719
aF44.9524
aF44.9719
aF44.9719
aF44.9719
aF44.9719
aF44.9915
aF44.9524
aF44.9719
aF44.9524
aF44.9719
aF44.9719
aF44.9719
aF44.9719
aF44.9719
aF44.9719
aF44.9719
aF44.9524
aF44.9719
aF44.9719
aF44.9719
aF44.9719
aF44.9719
aF44.9719
aF44.9524
aF44.9719
aF44.9719
aF44.9719
aF44.9719
aF44.9719
aF44.9719
as(I50
S'get HB2-1-biasmon[1-64]_f_rr'
p59
tp60
(lp61
F49.9536
aF49.9536
aF49.9536
aF49.9536
aF49.9731
aF49.9536
aF49.9536
aF49.9536
aF49.9536
aF49.9536
aF49.9536
aF49.9536
aF49.9536
aF49.9536
aF49.9536
aF49.9536
aF49.9536
aF49.9536
aF49.9341
aF49.9536
aF49.9536
aF49.9536
aF49.9536
aF49.9731
aF49.9536
aF49.9536
aF49.9536
aF49.9536
aF49.9536
aF49.9731
aF49.9536
aF49.9536
aF49.9536
aF49.9731
aF49.9536
aF49.9536
aF49.9536
aF49.9536
aF49.9731
aF49.9731
aF49.9536
aF49.9536
aF49.9341
aF49.9536
aF49.9536
aF49.9536
aF49.9536
aF49.9536
aF49.9536
aF49.9731
aF49.9341
aF49.9536
aF49.9536
aF49.9536
aF49.9536
aF49.9536
aF49.9536
aF49.9536
aF49.9536
aF49.9536
aF49.9536
aF49.9536
aF49.9536
aF49.9731
as(I20
S'get HB2-1-LeakageCurrent[1-64]_f_rr'
p62
tp63
(lp64
F4.148
aF6.1
aF5.612
aF10.248
aF3.66
aF2.684
aF7.32
aF10.004
aF1.952
aF5.612
aF6.832
aF3.416
aF6.832
aF6.832
aF5.856
aF12.444
aF6.344
aF6.344
aF5.612
aF1.708
aF2.928
aF2.44
aF5.124
aF5.856
aF7.564
aF8.54
aF4.88
aF3.416
aF5.368
aF8.54
aF6.1
aF3.416
aF9.516
aF10.004
aF6.588
aF5.124
aF4.88
aF6.588
aF8.296
aF9.272
aF5.368
aF15.128
aF2.196
aF4.636
aF7.564
aF3.66
aF7.076
aF5.856
aF7.076
aF4.636
aF6.832
aF9.272
aF3.904
aF6.588
aF1.708
aF6.588
aF5.856
aF9.028
aF4.88
aF5.856
aF6.344
aF7.564
aF5.368
aF10.736
as(I55
S'put HB2-1-biasvoltage[1-64]_f 64*55.000000'
p65
tp66
(lp67
S'OK'
p68
as(I25
S'put HB2-1-biasvoltage[1-64]_f 64*25.000000'
p69
tp70
(lp71
S'OK'
p72
as(I35
S'get HB2-1-LeakageCurrent[1-64]_f_rr'
p73
tp74
(lp75
F6.344
aF8.296
aF7.808
aF12.444
aF5.856
aF4.88
aF9.516
aF12.2
aF3.904
aF7.808
aF9.028
aF5.368
aF9.272
aF9.028
aF8.052
aF14.884
aF8.54
aF8.54
aF8.052
aF3.172
aF4.88
aF4.636
aF7.564
aF8.052
aF9.76
aF10.736
aF7.32
aF5.856
aF7.564
aF10.98
aF8.296
aF5.612
aF11.712
aF12.444
aF8.784
aF7.32
aF7.076
aF9.272
aF10.736
aF11.712
aF7.564
aF17.324
aF4.148
aF6.832
aF9.76
aF5.856
aF9.272
aF8.052
aF9.516
aF6.832
aF9.028
aF11.712
aF6.1
aF8.784
aF3.172
aF8.784
aF8.052
aF11.468
aF7.076
aF8.052
aF8.784
aF9.76
aF7.564
aF13.176
as(I60
S'put HB2-1-biasvoltage[1-64]_f 64*60.000000'
p76
tp77
(lp78
S'OK'
p79
as(I10
S'get HB2-1-LeakageCurrent[1-64]_f_rr'
p80
tp81
(lp82
F2.928
aF4.636
aF3.904
aF8.54
aF2.196
aF1.952
aF5.856
aF8.54
aF1.708
aF3.904
aF5.124
aF2.196
aF5.368
aF5.368
aF4.636
aF10.98
aF4.88
aF4.636
aF3.904
aF1.708
aF1.952
aF1.708
aF3.416
aF4.392
aF5.856
aF6.832
aF3.66
aF1.952
aF3.904
aF7.076
aF4.636
aF2.196
aF8.052
aF8.296
aF5.124
aF3.66
aF3.416
aF5.124
aF6.832
aF7.564
aF3.66
aF13.664
aF1.708
aF2.928
aF6.1
aF2.196
aF5.856
aF4.148
aF5.856
aF3.172
aF5.124
aF7.564
aF2.44
aF5.124
aF1.708
aF5.124
aF4.636
aF7.32
aF3.172
aF4.392
aF5.124
aF6.1
aF3.904
aF8.784
as(I60
S'get HB2-1-LeakageCurrent[1-64]_f_rr'
p83
tp84
(lp85
F10.248
aF12.2
aF11.712
aF16.348
aF9.516
aF8.54
aF13.42
aF16.104
aF7.808
aF11.712
aF12.932
aF9.272
aF12.932
aF12.932
aF12.2
aF18.788
aF12.688
aF12.444
aF11.956
aF7.076
aF8.54
aF8.296
aF11.712
aF11.956
aF13.664
aF14.64
aF11.224
aF9.516
aF11.468
aF14.64
aF11.956
aF9.516
aF15.616
aF16.348
aF12.444
aF11.224
aF10.98
aF13.176
aF14.396
aF15.372
aF11.468
aF21.228
aF8.296
aF10.98
aF13.664
aF9.76
aF13.176
aF11.956
aF13.42
aF10.492
aF12.688
aF15.616
aF9.76
aF12.444
aF6.832
aF12.688
aF11.712
aF15.372
aF10.98
aF11.956
aF12.688
aF13.664
aF11.468
aF17.08
as(I5
S'put HB2-1-biasvoltage[1-64]_f 64*5.000000'
p86
tp87
(lp88
S'OK'
p89
as(I40
S'put HB2-1-biasvoltage[1-64]_f 64*40.000000'
p90
tp91
(lp92
S'OK'
p93
as(I0
S'get HB2-1-biasmon[1-64]_f_rr'
p94
tp95
(lp96
F0.0586081
aF0.0586081
aF0.0586081
aF0.0586081
aF0.0586081
aF0.0586081
aF0.0586081
aF0.0586081
aF0.0586081
aF0.0586081
aF0.0586081
aF0.0586081
aF0.0586081
aF0.0586081
aF0.0586081
aF0.0586081
aF0.0586081
aF0.0586081
aF0.0586081
aF0.0586081
aF0.0586081
aF0.0586081
aF0.0586081
aF0.0586081
aF0.0586081
aF0.0586081
aF0.0586081
aF0.0586081
aF0.0586081
aF0.0586081
aF0.0586081
aF0.0586081
aF0.0586081
aF0.0586081
aF0.0586081
aF0.0586081
aF0.0586081
aF0.0586081
aF0.0586081
aF0.0586081
aF0.0586081
aF0.0586081
aF0.0586081
aF0.0586081
aF0.0586081
aF0.0586081
aF0.0586081
aF0.0586081
aF0.0586081
aF0.0586081
aF0.0586081
aF0.0586081
aF0.0586081
aF0.0586081
aF0.0586081
aF0.0586081
aF0.0586081
aF0.0586081
aF0.0586081
aF0.0586081
aF0.0586081
aF0.0586081
aF0.0586081
aF0.0586081
as(I15
S'put HB2-1-biasvoltage[1-64]_f 64*15.000000'
p97
tp98
(lp99
S'OK'
p100
as(I35
S'get HB2-1-biasmon[1-64]_f_rr'
p101
tp102
(lp103
F34.989
aF35.0085
aF35.0085
aF34.989
aF35.0085
aF35.0085
aF35.0085
aF35.0085
aF35.0085
aF35.0085
aF35.0085
aF34.989
aF35.0085
aF35.0085
aF34.989
aF35.0085
aF35.0085
aF35.0085
aF34.989
aF35.0085
aF35.0085
aF35.0085
aF35.0085
aF35.0085
aF35.0085
aF35.0085
aF35.0085
aF35.0085
aF35.0085
aF35.0085
aF35.0085
aF35.0085
aF34.989
aF35.0085
aF34.989
aF35.0085
aF35.0085
aF35.0085
aF35.0085
aF35.0085
aF34.989
aF35.0085
aF34.989
aF35.0085
aF35.0085
aF35.0085
aF35.0085
aF35.0085
aF34.989
aF35.0085
aF34.989
aF34.989
aF35.0085
aF35.0085
aF35.0085
aF35.0085
aF35.0085
aF35.0085
aF35.0085
aF35.0085
aF35.0085
aF35.0085
aF35.0085
aF35.0085
as(I0
S'get HB2-1-LeakageCurrent[1-64]_f_rr'
p104
tp105
(lp106
F1.708
aF3.172
aF2.684
aF7.076
aF1.708
aF1.708
aF4.148
aF7.076
aF1.708
aF2.44
aF3.66
aF1.708
aF3.904
aF3.66
aF2.928
aF9.272
aF3.172
aF3.416
aF2.196
aF1.708
aF1.708
aF1.708
aF1.952
aF3.172
aF4.148
aF5.856
aF2.196
aF1.708
aF2.44
aF5.856
aF3.416
aF1.708
aF6.588
aF6.588
aF3.66
aF2.196
aF1.952
aF3.416
aF5.124
aF6.344
aF2.44
aF11.956
aF1.708
aF1.952
aF4.636
aF1.708
aF4.148
aF2.684
aF3.904
aF1.952
aF3.904
aF6.1
aF1.708
aF3.66
aF1.708
aF3.416
aF3.416
aF5.856
aF1.952
aF2.928
aF3.416
aF4.392
aF2.196
aF7.32
as(I10
S'put HB2-1-biasvoltage[1-64]_f 64*10.000000'
p107
tp108
(lp109
S'OK'
p110
as(I45
S'put HB2-1-biasvoltage[1-64]_f 64*45.000000'
p111
tp112
(lp113
S'OK'
p114
as(I50
S'get HB2-1-LeakageCurrent[1-64]_f_rr'
p115
tp116
(lp117
F8.54
aF10.736
aF10.004
aF14.884
aF8.052
aF7.076
aF11.712
aF14.396
aF6.344
aF10.004
aF11.468
aF7.564
aF11.468
aF11.468
aF10.492
aF17.324
aF10.98
aF10.98
aF10.492
aF5.612
aF7.32
aF6.832
aF10.004
aF10.492
aF12.2
aF13.176
aF9.516
aF8.052
aF9.76
aF13.176
aF10.492
aF7.808
aF14.152
aF14.64
aF10.98
aF9.516
aF9.516
aF11.468
aF12.932
aF13.908
aF9.76
aF19.764
aF6.588
aF9.272
aF11.956
aF8.296
aF11.712
aF10.492
aF11.712
aF9.028
aF11.224
aF14.152
aF8.296
aF11.224
aF5.368
aF11.224
aF10.248
aF13.908
aF9.516
aF10.248
aF10.98
aF11.956
aF9.76
aF15.372
as(I40
S'get HB2-1-biasmon[1-64]_f_rr'
p118
tp119
(lp120
F39.9707
aF39.9707
aF39.9707
aF39.9707
aF39.9902
aF39.9902
aF39.9707
aF39.9902
aF39.9902
aF39.9902
aF39.9707
aF39.9707
aF39.9707
aF39.9902
aF39.9707
aF39.9902
aF39.9902
aF39.9707
aF39.9707
aF39.9707
aF39.9902
aF39.9902
aF39.9707
aF39.9902
aF39.9707
aF39.9707
aF39.9707
aF39.9707
aF39.9902
aF39.9902
aF39.9707
aF39.9707
aF39.9707
aF39.9707
aF39.9707
aF39.9707
aF39.9707
aF39.9902
aF39.9902
aF39.9902
aF39.9707
aF39.9902
aF39.9707
aF39.9707
aF39.9707
aF39.9902
aF39.9902
aF39.9707
aF39.9707
aF39.9902
aF39.9707
aF39.9707
aF39.9902
aF39.9902
aF39.9707
aF39.9902
aF39.9707
aF39.9707
aF39.9707
aF39.9902
aF39.9902
aF39.9902
aF39.9902
aF39.9902
as(I30
S'put HB2-1-biasvoltage[1-64]_f 64*30.000000'
p121
tp122
(lp123
S'OK'
p124
as(I25
S'get HB2-1-LeakageCurrent[1-64]_f_rr'
p125
tp126
(lp127
F4.88
aF6.832
aF6.1
aF10.98
aF4.392
aF3.416
aF8.052
aF10.736
aF2.684
aF6.344
aF7.564
aF3.904
aF7.564
aF7.564
aF6.588
aF13.42
aF7.076
aF7.076
aF6.344
aF1.952
aF3.66
aF3.172
aF5.856
aF6.588
aF8.296
aF9.272
aF5.856
aF4.148
aF6.1
aF9.272
aF6.832
aF4.148
aF10.248
aF10.736
aF7.32
aF5.856
aF5.612
aF7.564
aF9.028
aF10.004
aF6.1
aF15.86
aF2.928
aF5.368
aF8.296
aF4.392
aF7.808
aF6.588
aF7.808
aF5.368
aF7.564
aF10.004
aF4.636
aF7.32
aF1.952
aF7.32
aF6.588
aF9.76
aF5.612
aF6.588
aF7.32
aF8.296
aF6.1
aF11.468
as(I15
S'get HB2-1-LeakageCurrent[1-64]_f_rr'
p128
tp129
(lp130
F3.416
aF5.368
aF4.636
aF9.516
aF2.928
aF2.196
aF6.588
aF9.272
aF1.708
aF4.636
aF6.1
aF2.684
aF6.1
aF6.1
aF5.124
aF11.712
aF5.612
aF5.612
aF4.636
aF1.708
aF2.196
aF1.952
aF4.148
aF5.124
aF6.588
aF7.808
aF4.148
aF2.684
aF4.636
aF7.808
aF5.368
aF2.684
aF8.784
aF9.028
aF5.612
aF4.148
aF4.148
aF5.856
aF7.564
aF8.54
aF4.636
aF14.396
aF1.708
aF3.904
aF6.832
aF2.928
aF6.344
aF4.88
aF6.344
aF3.904
aF6.1
aF8.54
aF3.172
aF5.612
aF1.708
aF5.856
aF5.124
aF8.296
aF3.904
aF5.124
aF5.612
aF6.588
aF4.392
aF9.76
as.