(dp0
(I5
S'get HB6-2-LeakageCurrent[1-64]_f_rr'
p1
tp2
(lp3
F3.66
aF2.196
aF5.856
aF1.952
aF4.636
aF1.708
aF4.148
aF6.588
aF5.368
aF2.196
aF3.904
aF1.708
aF6.1
aF1.708
aF1.708
aF8.54
aF3.66
aF4.392
aF5.368
aF2.928
aF5.368
aF1.708
aF3.172
aF1.708
aF2.196
aF5.612
aF5.368
aF3.172
aF4.636
aF6.588
aF3.904
aF4.88
aF1.708
aF4.88
aF1.708
aF3.416
aF1.708
aF7.076
aF3.904
aF2.928
aF4.392
aF2.196
aF5.856
aF1.708
aF3.172
aF6.832
aF3.172
aF5.856
aF4.636
aF4.392
aF9.516
aF5.856
aF3.904
aF2.928
aF2.684
aF6.1
aF1.952
aF6.588
aF4.148
aF2.684
aF3.416
aF1.708
aF3.416
aF1.708
as(I50
S'put HB6-2-biasvoltage[1-64]_f 64*50.000000'
p4
tp5
(lp6
S'OK'
p7
as(I40
S'get HB6-2-biasmon[1-64]_f_rr'
p8
tp9
(lp10
F40.2442
aF40.2247
aF40.2442
aF40.2442
aF40.2442
aF40.2442
aF40.2442
aF40.2442
aF40.2442
aF40.2442
aF40.2442
aF40.2442
aF40.2442
aF40.2442
aF40.2442
aF40.2442
aF40.2442
aF40.2442
aF40.2442
aF40.2442
aF40.2442
aF40.2442
aF40.2442
aF40.2442
aF40.2442
aF40.2442
aF40.2442
aF40.2442
aF40.2442
aF40.2442
aF40.2442
aF40.2637
aF40.2247
aF40.2442
aF40.2442
aF40.2442
aF40.2637
aF40.2442
aF40.2442
aF40.2442
aF40.2442
aF40.2442
aF40.2442
aF40.2442
aF40.2442
aF40.2442
aF40.2442
aF40.2442
aF40.2442
aF40.2442
aF40.2442
aF40.2442
aF40.2442
aF40.2442
aF40.2442
aF40.2442
aF40.2442
aF40.2442
aF40.2442
aF40.2442
aF40.2442
aF40.2442
aF40.2442
aF40.2442
as(I0
S'put HB6-2-biasvoltage[1-64]_f 64*0.000000'
p11
tp12
(lp13
S'OK'
p14
as(I35
S'get HB6-2-biasmon[1-64]_f_rr'
p15
tp16
(lp17
F35.2234
aF35.2234
aF35.2234
aF35.2234
aF35.243
aF35.243
aF35.2234
aF35.243
aF35.243
aF35.2234
aF35.2234
aF35.2234
aF35.2234
aF35.243
aF35.243
aF35.2234
aF35.2234
aF35.243
aF35.2234
aF35.2234
aF35.2234
aF35.243
aF35.2234
aF35.243
aF35.243
aF35.2234
aF35.2234
aF35.243
aF35.2234
aF35.243
aF35.2234
aF35.243
aF35.2234
aF35.2234
aF35.2234
aF35.2234
aF35.243
aF35.243
aF35.243
aF35.243
aF35.2234
aF35.2234
aF35.2234
aF35.2234
aF35.243
aF35.243
aF35.2234
aF35.2234
aF35.2234
aF35.243
aF35.2234
aF35.2234
aF35.243
aF35.243
aF35.243
aF35.243
aF35.2234
aF35.2234
aF35.243
aF35.243
aF35.2234
aF35.243
aF35.2234
aF35.243
as(I5
S'put HB6-2-biasvoltage[1-64]_f 64*5.000000'
p18
tp19
(lp20
S'OK'
p21
as(I60
S'get HB6-2-LeakageCurrent[1-64]_f_rr'
p22
tp23
(lp24
F11.956
aF10.248
aF14.396
aF9.76
aF12.688
aF9.272
aF13.176
aF15.372
aF13.664
aF10.492
aF12.688
aF9.028
aF14.64
aF6.344
aF9.272
aF16.836
aF11.712
aF12.444
aF13.908
aF11.468
aF13.908
aF7.32
aF11.468
aF8.784
aF11.224
aF13.664
aF14.396
aF11.224
aF12.932
aF15.128
aF13.42
aF13.908
aF8.784
aF13.42
aF6.588
aF11.224
aF9.272
aF15.372
aF12.688
aF11.224
aF13.664
aF11.224
aF13.664
aF9.028
aF11.468
aF16.104
aF11.712
aF15.372
aF12.932
aF12.444
aF17.568
aF13.908
aF12.444
aF11.468
aF10.98
aF14.396
aF9.516
aF15.128
aF12.688
aF10.98
aF10.98
aF8.54
aF11.712
aF9.028
as(I50
S'get HB6-2-biasmon[1-64]_f_rr'
p25
tp26
(lp27
F50.2857
aF50.2857
aF50.2857
aF50.2857
aF50.3053
aF50.2857
aF50.2857
aF50.3053
aF50.3053
aF50.2857
aF50.2857
aF50.2857
aF50.2857
aF50.3053
aF50.3053
aF50.2857
aF50.2857
aF50.2857
aF50.2857
aF50.2857
aF50.2857
aF50.3053
aF50.2857
aF50.3053
aF50.3053
aF50.2857
aF50.2857
aF50.2857
aF50.3053
aF50.3053
aF50.2857
aF50.3053
aF50.2857
aF50.2857
aF50.2857
aF50.3053
aF50.3053
aF50.2857
aF50.3053
aF50.2857
aF50.2857
aF50.3053
aF50.2857
aF50.2857
aF50.3053
aF50.2857
aF50.2857
aF50.2857
aF50.2857
aF50.3053
aF50.2857
aF50.3053
aF50.3053
aF50.3053
aF50.3053
aF50.3053
aF50.2857
aF50.2857
aF50.3053
aF50.3053
aF50.2857
aF50.3053
aF50.2857
aF50.3053
as(I45
S'put HB6-2-biasvoltage[1-64]_f 64*45.000000'
p28
tp29
(lp30
S'OK'
p31
as(I10
S'put HB6-2-biasvoltage[1-64]_f 64*10.000000'
p32
tp33
(lp34
S'OK'
p35
as(I40
S'put HB6-2-biasvoltage[1-64]_f 64*40.000000'
p36
tp37
(lp38
S'OK'
p39
as(I30
S'get HB6-2-LeakageCurrent[1-64]_f_rr'
p40
tp41
(lp42
F7.32
aF5.612
aF9.516
aF5.368
aF8.052
aF4.636
aF8.296
aF10.736
aF9.028
aF5.856
aF8.052
aF4.636
aF9.76
aF1.952
aF4.636
aF11.956
aF7.076
aF7.808
aF9.272
aF6.832
aF9.272
aF2.928
aF6.832
aF3.904
aF6.344
aF9.028
aF9.516
aF6.588
aF8.296
aF10.492
aF8.54
aF9.272
aF4.148
aF8.784
aF2.44
aF6.588
aF4.636
aF10.98
aF8.052
aF6.832
aF8.54
aF6.344
aF9.028
aF4.636
aF6.588
aF11.224
aF7.076
aF10.492
aF8.296
aF7.808
aF13.176
aF9.272
aF7.808
aF6.832
aF6.344
aF9.516
aF5.124
aF10.492
aF8.052
aF6.344
aF6.588
aF3.66
aF7.076
aF4.636
as(I60
S'get HB6-2-biasmon[1-64]_f_rr'
p43
tp44
(lp45
F60.3468
aF60.3272
aF60.3272
aF60.3272
aF60.3468
aF60.3272
aF60.3272
aF60.3468
aF60.3468
aF60.3272
aF60.3272
aF60.3272
aF60.3468
aF60.3468
aF60.3468
aF60.3468
aF60.3272
aF60.3272
aF60.3272
aF60.3272
aF60.3468
aF60.3468
aF60.3468
aF60.3468
aF60.3468
aF60.3272
aF60.3272
aF60.3468
aF60.3468
aF60.3468
aF60.3272
aF60.3468
aF60.3272
aF60.3468
aF60.3272
aF60.3468
aF60.3468
aF60.3272
aF60.3468
aF60.3468
aF60.3272
aF60.3468
aF60.3272
aF60.3468
aF60.3468
aF60.3272
aF60.3272
aF60.3272
aF60.3272
aF60.3468
aF60.3468
aF60.3468
aF60.3468
aF60.3468
aF60.3468
aF60.3468
aF60.3272
aF60.3272
aF60.3468
aF60.3468
aF60.3272
aF60.3468
aF60.3272
aF60.3468
as(I10
S'get HB6-2-LeakageCurrent[1-64]_f_rr'
p46
tp47
(lp48
F4.148
aF2.684
aF6.832
aF2.684
aF5.612
aF1.952
aF4.88
aF7.32
aF6.1
aF2.928
aF4.88
aF1.952
aF6.588
aF1.708
aF1.952
aF9.028
aF4.392
aF4.88
aF6.1
aF3.66
aF6.1
aF1.708
aF3.904
aF1.708
aF3.172
aF6.1
aF6.1
aF3.66
aF5.368
aF7.564
aF5.124
aF6.1
aF1.708
aF5.856
aF1.708
aF3.66
aF1.952
aF7.564
aF4.88
aF3.904
aF5.368
aF3.172
aF6.1
aF1.952
aF3.416
aF8.296
aF3.904
aF7.076
aF5.124
aF4.88
aF10.248
aF6.588
aF4.88
aF3.904
aF3.416
aF6.832
aF2.196
aF7.564
aF4.88
aF3.416
aF3.904
aF1.708
aF4.148
aF1.952
as(I60
S'put HB6-2-biasvoltage[1-64]_f 64*60.000000'
p49
tp50
(lp51
S'OK'
p52
as(I20
S'put HB6-2-biasvoltage[1-64]_f 64*20.000000'
p53
tp54
(lp55
S'OK'
p56
as(I55
S'get HB6-2-LeakageCurrent[1-64]_f_rr'
p57
tp58
(lp59
F11.224
aF9.516
aF13.664
aF9.028
aF11.956
aF8.54
aF12.2
aF14.396
aF12.932
aF9.516
aF11.956
aF8.296
aF13.664
aF5.612
aF8.54
aF16.104
aF10.98
aF11.712
aF12.932
aF10.736
aF13.176
aF6.588
aF10.736
aF7.808
aF10.492
aF12.932
aF13.664
aF10.248
aF12.2
aF14.396
aF12.444
aF13.176
aF8.052
aF12.688
aF5.856
aF10.492
aF8.54
aF14.64
aF11.956
aF10.492
aF12.688
aF10.248
aF12.932
aF8.296
aF10.492
aF15.372
aF10.98
aF14.64
aF11.956
aF11.712
aF16.836
aF13.176
aF11.712
aF10.736
aF10.004
aF13.664
aF8.784
aF14.396
aF11.956
aF10.248
aF10.248
aF7.808
aF10.98
aF8.296
as(I15
S'put HB6-2-biasvoltage[1-64]_f 64*15.000000'
p60
tp61
(lp62
S'OK'
p63
as(I0
S'get HB6-2-biasmon[1-64]_f_rr'
p64
tp65
(lp66
F0.0586081
aF0.0586081
aF0.0586081
aF0.0586081
aF0.0781441
aF0.0586081
aF0.0586081
aF0.0586081
aF0.0586081
aF0.0586081
aF0.0586081
aF0.0586081
aF0.0586081
aF0.0586081
aF0.0586081
aF0.0586081
aF0.0586081
aF0.0586081
aF0.0586081
aF0.0586081
aF0.0586081
aF0.0586081
aF0.0586081
aF0.0586081
aF0.0586081
aF0.0586081
aF0.0586081
aF0.0586081
aF0.0586081
aF0.0586081
aF0.0586081
aF0.0586081
aF0.0586081
aF0.0586081
aF0.0586081
aF0.0586081
aF0.0586081
aF0.0586081
aF0.0781441
aF0.0586081
aF0.0586081
aF0.0586081
aF0.0586081
aF0.0586081
aF0.0586081
aF0.0586081
aF0.0586081
aF0.0586081
aF0.0586081
aF0.0586081
aF0.0586081
aF0.0586081
aF0.0586081
aF0.0586081
aF0.0586081
aF0.0586081
aF0.0586081
aF0.0586081
aF0.0586081
aF0.0781441
aF0.0586081
aF0.0586081
aF0.0586081
aF0.0586081
as(I55
S'get HB6-2-biasmon[1-64]_f_rr'
p67
tp68
(lp69
F55.326
aF55.3065
aF55.3065
aF55.3065
aF55.326
aF55.3065
aF55.3065
aF55.326
aF55.326
aF55.3065
aF55.3065
aF55.3065
aF55.326
aF55.326
aF55.326
aF55.326
aF55.3065
aF55.3065
aF55.3065
aF55.326
aF55.3065
aF55.326
aF55.326
aF55.326
aF55.326
aF55.3065
aF55.3065
aF55.3065
aF55.326
aF55.326
aF55.3065
aF55.326
aF55.3065
aF55.326
aF55.3065
aF55.326
aF55.326
aF55.326
aF55.326
aF55.3065
aF55.3065
aF55.3065
aF55.3065
aF55.326
aF55.326
aF55.3065
aF55.3065
aF55.3065
aF55.3065
aF55.326
aF55.326
aF55.326
aF55.326
aF55.326
aF55.326
aF55.326
aF55.3065
aF55.3065
aF55.326
aF55.326
aF55.3065
aF55.326
aF55.3065
aF55.326
as(I25
S'get HB6-2-biasmon[1-64]_f_rr'
p70
tp71
(lp72
F25.1819
aF25.1819
aF25.1819
aF25.1819
aF25.1819
aF25.1819
aF25.1819
aF25.1819
aF25.1819
aF25.1819
aF25.1819
aF25.1819
aF25.1819
aF25.1819
aF25.1819
aF25.1819
aF25.1819
aF25.1819
aF25.1624
aF25.1819
aF25.1819
aF25.1819
aF25.1819
aF25.1819
aF25.1819
aF25.1819
aF25.1819
aF25.1819
aF25.1819
aF25.1819
aF25.1819
aF25.1819
aF25.1624
aF25.1819
aF25.1819
aF25.1819
aF25.1819
aF25.1819
aF25.1819
aF25.1819
aF25.1819
aF25.1819
aF25.1819
aF25.1819
aF25.1819
aF25.1819
aF25.1624
aF25.1819
aF25.1819
aF25.1819
aF25.1819
aF25.1819
aF25.1819
aF25.1819
aF25.1819
aF25.1819
aF25.1819
aF25.1624
aF25.1819
aF25.2015
aF25.1819
aF25.1819
aF25.1819
aF25.1819
as(I55
S'put HB6-2-biasvoltage[1-64]_f 64*55.000000'
p73
tp74
(lp75
S'OK'
p76
as(I30
S'put HB6-2-biasvoltage[1-64]_f 64*30.000000'
p77
tp78
(lp79
S'OK'
p80
as(I45
S'get HB6-2-biasmon[1-64]_f_rr'
p81
tp82
(lp83
F45.265
aF45.2454
aF45.265
aF45.265
aF45.2845
aF45.265
aF45.265
aF45.2845
aF45.265
aF45.265
aF45.265
aF45.265
aF45.265
aF45.265
aF45.265
aF45.265
aF45.265
aF45.265
aF45.2454
aF45.265
aF45.265
aF45.265
aF45.265
aF45.265
aF45.265
aF45.265
aF45.265
aF45.265
aF45.265
aF45.265
aF45.265
aF45.2845
aF45.2454
aF45.265
aF45.265
aF45.265
aF45.2845
aF45.265
aF45.2845
aF45.265
aF45.265
aF45.265
aF45.265
aF45.265
aF45.265
aF45.265
aF45.2454
aF45.265
aF45.265
aF45.2845
aF45.265
aF45.265
aF45.265
aF45.2845
aF45.265
aF45.265
aF45.265
aF45.2454
aF45.265
aF45.2845
aF45.265
aF45.2845
aF45.265
aF45.265
as(I35
S'put HB6-2-biasvoltage[1-64]_f 64*35.000000'
p84
tp85
(lp86
S'OK'
p87
as(I35
S'get HB6-2-LeakageCurrent[1-64]_f_rr'
p88
tp89
(lp90
F8.052
aF6.344
aF10.492
aF6.1
aF9.028
aF5.368
aF9.028
aF11.468
aF9.76
aF6.588
aF8.784
aF5.368
aF10.736
aF2.44
aF5.368
aF12.932
aF7.808
aF8.54
aF10.004
aF7.564
aF10.004
aF3.66
aF7.564
aF4.636
aF7.076
aF9.76
aF10.492
aF7.32
aF9.272
aF11.224
aF9.272
aF10.004
aF5.124
aF9.516
aF2.928
aF7.32
aF5.368
aF11.712
aF8.784
aF7.564
aF9.516
aF7.076
aF9.76
aF5.368
aF7.32
aF11.956
aF7.808
aF11.468
aF9.028
aF8.54
aF13.664
aF10.004
aF8.54
aF7.564
aF7.076
aF10.492
aF5.856
aF11.224
aF8.784
aF7.076
aF7.32
aF4.636
aF7.808
aF5.368
as(I40
S'get HB6-2-LeakageCurrent[1-64]_f_rr'
p91
tp92
(lp93
F8.784
aF7.32
aF11.224
aF6.832
aF9.76
aF6.1
aF10.004
aF12.2
aF10.736
aF7.564
aF9.516
aF5.856
aF11.468
aF3.172
aF6.1
aF13.664
aF8.54
aF9.516
aF10.736
aF8.296
aF10.736
aF4.148
aF8.296
aF5.612
aF8.052
aF10.736
aF11.224
aF8.052
aF9.76
aF11.956
aF10.004
aF10.736
aF5.856
aF10.248
aF3.66
aF8.052
aF6.1
aF12.444
aF9.516
aF8.052
aF10.492
aF7.808
aF10.736
aF6.1
aF8.052
aF12.932
aF8.54
aF12.2
aF9.76
aF9.272
aF14.64
aF10.736
aF9.516
aF8.296
aF7.808
aF11.224
aF6.588
aF11.956
aF9.516
aF7.808
aF7.808
aF5.368
aF8.54
aF6.1
as(I20
S'get HB6-2-biasmon[1-64]_f_rr'
p94
tp95
(lp96
F20.1612
aF20.1416
aF20.1612
aF20.1612
aF20.1612
aF20.1612
aF20.1612
aF20.1612
aF20.1612
aF20.1612
aF20.1612
aF20.1612
aF20.1416
aF20.1612
aF20.1612
aF20.1612
aF20.1612
aF20.1612
aF20.1416
aF20.1612
aF20.1612
aF20.1612
aF20.1612
aF20.1612
aF20.1612
aF20.1612
aF20.1612
aF20.1612
aF20.1612
aF20.1612
aF20.1612
aF20.1612
aF20.1416
aF20.1612
aF20.1416
aF20.1612
aF20.1612
aF20.1612
aF20.1612
aF20.1612
aF20.1612
aF20.1612
aF20.1612
aF20.1612
aF20.1612
aF20.1612
aF20.1416
aF20.1612
aF20.1416
aF20.1612
aF20.1612
aF20.1612
aF20.1612
aF20.1612
aF20.1612
aF20.1612
aF20.1612
aF20.1416
aF20.1612
aF20.1612
aF20.1612
aF20.1612
aF20.1612
aF20.1612
as(I15
S'get HB6-2-biasmon[1-64]_f_rr'
p97
tp98
(lp99
F15.1404
aF15.1209
aF15.1404
aF15.1404
aF15.1404
aF15.1404
aF15.1404
aF15.1404
aF15.1404
aF15.1404
aF15.1404
aF15.1404
aF15.1209
aF15.1404
aF15.1404
aF15.1404
aF15.1404
aF15.1404
aF15.1209
aF15.1404
aF15.1404
aF15.1404
aF15.1404
aF15.1404
aF15.1404
aF15.1209
aF15.1404
aF15.1404
aF15.1404
aF15.1404
aF15.1404
aF15.1404
aF15.1209
aF15.1404
aF15.1209
aF15.1404
aF15.1404
aF15.1404
aF15.1404
aF15.1404
aF15.1209
aF15.1404
aF15.1404
aF15.1404
aF15.1404
aF15.1404
aF15.1209
aF15.1404
aF15.1404
aF15.1404
aF15.1209
aF15.1404
aF15.1404
aF15.1404
aF15.1404
aF15.1404
aF15.1404
aF15.1404
aF15.1404
aF15.1404
aF15.1404
aF15.1404
aF15.1404
aF15.1404
as(I25
S'get HB6-2-LeakageCurrent[1-64]_f_rr'
p100
tp101
(lp102
F6.588
aF4.88
aF8.784
aF4.392
aF7.564
aF3.904
aF7.564
aF9.76
aF8.296
aF5.124
aF7.32
aF3.66
aF9.028
aF1.708
aF3.904
aF11.224
aF6.344
aF7.076
aF8.296
aF6.1
aF8.54
aF2.196
aF6.1
aF3.172
aF5.612
aF8.296
aF8.784
aF5.856
aF7.564
aF9.76
aF7.564
aF8.54
aF3.66
aF8.052
aF1.952
aF5.856
aF3.904
aF10.004
aF7.32
aF5.856
aF7.808
aF5.612
aF8.296
aF3.904
aF5.856
aF10.492
aF6.1
aF9.76
aF7.564
aF7.076
aF12.444
aF8.54
aF7.076
aF5.856
aF5.612
aF8.784
aF4.148
aF9.76
aF7.32
aF5.612
aF5.856
aF2.928
aF6.1
aF3.66
as(I10
S'get HB6-2-biasmon[1-64]_f_rr'
p103
tp104
(lp105
F10.1197
aF10.1197
aF10.1001
aF10.1197
aF10.1197
aF10.1197
aF10.1197
aF10.1197
aF10.1197
aF10.1197
aF10.1197
aF10.1001
aF10.1001
aF10.1197
aF10.1197
aF10.1197
aF10.1197
aF10.1197
aF10.1001
aF10.1197
aF10.1197
aF10.1197
aF10.1197
aF10.1197
aF10.1197
aF10.1197
aF10.1197
aF10.1197
aF10.1197
aF10.1197
aF10.1001
aF10.1197
aF10.1001
aF10.1197
aF10.1001
aF10.1001
aF10.1197
aF10.1197
aF10.1197
aF10.1197
aF10.1197
aF10.1197
aF10.1197
aF10.1197
aF10.1197
aF10.1197
aF10.1197
aF10.1197
aF10.1001
aF10.1197
aF10.1197
aF10.1197
aF10.1197
aF10.1197
aF10.1197
aF10.1197
aF10.1197
aF10.1001
aF10.1197
aF10.1197
aF10.1197
aF10.1197
aF10.1001
aF10.1197
as(I5
S'get HB6-2-biasmon[1-64]_f_rr'
p106
tp107
(lp108
F5.07937
aF5.07937
aF5.07937
aF5.07937
aF5.0989
aF5.07937
aF5.07937
aF5.0989
aF5.07937
aF5.07937
aF5.07937
aF5.07937
aF5.07937
aF5.07937
aF5.07937
aF5.07937
aF5.07937
aF5.07937
aF5.07937
aF5.07937
aF5.07937
aF5.07937
aF5.07937
aF5.07937
aF5.0989
aF5.07937
aF5.07937
aF5.07937
aF5.07937
aF5.0989
aF5.07937
aF5.07937
aF5.07937
aF5.07937
aF5.07937
aF5.07937
aF5.07937
aF5.0989
aF5.0989
aF5.07937
aF5.07937
aF5.07937
aF5.07937
aF5.0989
aF5.07937
aF5.07937
aF5.07937
aF5.07937
aF5.07937
aF5.07937
aF5.07937
aF5.07937
aF5.07937
aF5.07937
aF5.07937
aF5.07937
aF5.07937
aF5.07937
aF5.07937
aF5.0989
aF5.07937
aF5.0989
aF5.07937
aF5.0989
as(I50
S'get HB6-2-LeakageCurrent[1-64]_f_rr'
p109
tp110
(lp111
F10.492
aF8.784
aF12.688
aF8.296
aF11.224
aF7.564
aF11.468
aF13.664
aF12.2
aF8.784
aF11.224
aF7.564
aF12.932
aF4.636
aF7.564
aF15.128
aF10.248
aF10.98
aF12.444
aF10.004
aF12.444
aF5.856
aF9.76
aF7.076
aF9.516
aF12.2
aF12.688
aF9.516
aF11.468
aF13.664
aF11.712
aF12.444
aF7.32
aF11.712
aF5.124
aF9.516
aF7.564
aF13.908
aF11.224
aF9.516
aF11.956
aF9.516
aF11.956
aF7.564
aF9.76
aF14.396
aF10.248
aF13.664
aF11.468
aF10.736
aF16.104
aF12.444
aF10.98
aF9.76
aF9.516
aF12.688
aF8.052
aF13.664
aF11.224
aF9.516
aF9.516
aF6.832
aF10.248
aF7.564
as(I25
S'put HB6-2-biasvoltage[1-64]_f 64*25.000000'
p112
tp113
(lp114
S'OK'
p115
as(I0
S'get HB6-2-LeakageCurrent[1-64]_f_rr'
p116
tp117
(lp118
F2.928
aF1.708
aF4.88
aF1.708
aF3.904
aF1.708
aF3.416
aF6.1
aF4.636
aF1.952
aF3.416
aF1.708
aF5.124
aF1.708
aF1.708
aF7.32
aF2.928
aF3.66
aF4.636
aF2.44
aF4.88
aF1.708
aF2.44
aF1.708
aF1.952
aF4.636
aF4.636
aF2.44
aF3.66
aF5.856
aF3.172
aF4.392
aF1.708
aF4.148
aF1.708
aF2.44
aF1.708
aF6.588
aF3.416
aF2.44
aF3.66
aF1.952
aF4.88
aF1.708
aF2.196
aF6.344
aF2.44
aF5.368
aF3.66
aF3.66
aF8.54
aF4.636
aF3.172
aF2.44
aF1.952
aF5.124
aF1.708
aF6.1
aF3.172
aF2.196
aF2.684
aF1.708
aF2.44
aF1.708
as(I15
S'get HB6-2-LeakageCurrent[1-64]_f_rr'
p119
tp120
(lp121
F5.124
aF3.416
aF7.32
aF3.172
aF5.856
aF2.684
aF5.856
aF8.296
aF6.832
aF3.66
aF5.612
aF2.44
aF7.564
aF1.708
aF2.44
aF9.76
aF4.88
aF5.856
aF6.832
aF4.392
aF7.076
aF1.708
aF4.636
aF1.952
aF3.904
aF6.832
aF7.076
aF4.392
aF6.1
aF8.296
aF5.856
aF6.832
aF1.952
aF6.588
aF1.708
aF4.392
aF2.44
aF8.54
aF5.612
aF4.392
aF6.1
aF4.148
aF6.832
aF2.684
aF4.392
aF8.784
aF4.636
aF8.052
aF5.856
aF5.856
aF10.736
aF7.076
aF5.612
aF4.636
aF3.904
aF7.32
aF2.684
aF8.296
aF5.612
aF4.148
aF4.392
aF1.708
aF4.636
aF2.44
as(I20
S'get HB6-2-LeakageCurrent[1-64]_f_rr'
p122
tp123
(lp124
F5.856
aF4.148
aF8.052
aF3.904
aF6.832
aF3.172
aF6.588
aF9.028
aF7.564
aF4.392
aF6.588
aF2.928
aF8.052
aF1.708
aF3.172
aF10.492
aF5.612
aF6.588
aF7.564
aF5.368
aF7.564
aF1.952
aF5.368
aF2.44
aF4.636
aF7.564
aF8.052
aF5.124
aF6.832
aF9.028
aF6.832
aF7.564
aF2.684
aF7.32
aF1.708
aF5.124
aF3.172
aF9.272
aF6.588
aF5.368
aF7.076
aF4.636
aF7.564
aF3.172
aF5.124
aF9.516
aF5.368
aF8.784
aF6.832
aF6.344
aF11.712
aF7.808
aF6.344
aF5.124
aF4.636
aF8.052
aF3.66
aF9.028
aF6.344
aF4.88
aF5.124
aF2.196
aF5.368
aF2.928
as(I45
S'get HB6-2-LeakageCurrent[1-64]_f_rr'
p125
tp126
(lp127
F9.516
aF7.808
aF11.956
aF7.564
aF10.492
aF6.832
aF10.736
aF12.932
aF11.468
aF8.052
aF10.248
aF6.832
aF12.2
aF3.904
aF6.832
aF14.64
aF9.272
aF10.248
aF11.468
aF9.272
aF11.468
aF5.124
aF9.028
aF6.344
aF8.784
aF11.468
aF11.956
aF8.784
aF10.736
aF12.688
aF10.98
aF11.712
aF6.588
aF10.98
aF4.392
aF8.784
aF6.832
aF13.176
aF10.248
aF9.028
aF11.224
aF8.784
aF11.468
aF6.832
aF8.784
aF13.664
aF9.516
aF12.932
aF10.492
aF10.004
aF15.372
aF11.712
aF10.248
aF9.028
aF8.54
aF11.956
aF7.32
aF12.932
aF10.248
aF8.54
aF8.784
aF6.1
aF9.272
aF6.832
as(I30
S'get HB6-2-biasmon[1-64]_f_rr'
p128
tp129
(lp130
F30.2222
aF30.2027
aF30.2027
aF30.2222
aF30.2222
aF30.2027
aF30.2027
aF30.2222
aF30.2222
aF30.2027
aF30.2027
aF30.2027
aF30.2027
aF30.2222
aF30.2027
aF30.2027
aF30.2027
aF30.2027
aF30.2027
aF30.2222
aF30.2027
aF30.2222
aF30.2222
aF30.2222
aF30.2027
aF30.2027
aF30.2027
aF30.2027
aF30.2027
aF30.2222
aF30.2027
aF30.2222
aF30.2027
aF30.2027
aF30.2027
aF30.2027
aF30.2222
aF30.2027
aF30.2222
aF30.2027
aF30.2027
aF30.2027
aF30.2027
aF30.2222
aF30.2222
aF30.2027
aF30.2027
aF30.2027
aF30.2027
aF30.2222
aF30.2027
aF30.2222
aF30.2222
aF30.2222
aF30.2222
aF30.2222
aF30.2027
aF30.2027
aF30.2222
aF30.2222
aF30.2222
aF30.2222
aF30.2027
aF30.2222
as.