(dp0
(I60
S'get HB7-4-biasmon[1-64]_f_rr'
p1
tp2
(lp3
F60.1514
aF60.1319
aF60.1514
aF60.1319
aF60.1514
aF60.1514
aF60.1319
aF60.1319
aF60.1319
aF60.1514
aF60.1514
aF60.1319
aF60.1319
aF60.1514
aF60.1514
aF60.1514
aF60.1123
aF60.1319
aF60.1319
aF60.1514
aF60.1319
aF60.1514
aF60.1514
aF60.1514
aF60.1319
aF60.1319
aF60.1514
aF60.1319
aF60.1319
aF60.1319
aF60.1319
aF60.1319
aF60.1319
aF60.1514
aF60.1319
aF60.1319
aF60.1514
aF60.1514
aF60.1319
aF60.1514
aF60.1319
aF60.1514
aF60.1319
aF60.1319
aF60.1319
aF60.1319
aF60.1319
aF60.1514
aF60.1319
aF60.1514
aF60.1514
aF60.1514
aF60.1319
aF60.1514
aF60.1514
aF60.1514
aF60.1514
aF60.1319
aF60.1319
aF60.1514
aF60.1514
aF60.1319
aF60.1319
aF60.1514
as(I45
S'put HB7-4-biasvoltage[1-64]_f 64*45.000000'
p4
tp5
(lp6
S'OK'
p7
as(I20
S'put HB7-4-biasvoltage[1-64]_f 64*20.000000'
p8
tp9
(lp10
S'OK'
p11
as(I50
S'put HB7-4-biasvoltage[1-64]_f 64*50.000000'
p12
tp13
(lp14
S'OK'
p15
as(I30
S'put HB7-4-biasvoltage[1-64]_f 64*30.000000'
p16
tp17
(lp18
S'OK'
p19
as(I40
S'get HB7-4-biasmon[1-64]_f_rr'
p20
tp21
(lp22
F40.1074
aF40.1074
aF40.1074
aF40.1074
aF40.1074
aF40.1074
aF40.1074
aF40.1074
aF40.1074
aF40.1074
aF40.1074
aF40.1074
aF40.1074
aF40.1074
aF40.1074
aF40.127
aF40.0879
aF40.1074
aF40.1074
aF40.1074
aF40.1074
aF40.1074
aF40.1074
aF40.1074
aF40.1074
aF40.1074
aF40.1074
aF40.0879
aF40.0879
aF40.1074
aF40.1074
aF40.1074
aF40.1074
aF40.1074
aF40.1074
aF40.1074
aF40.1074
aF40.1074
aF40.1074
aF40.1074
aF40.1074
aF40.1074
aF40.1074
aF40.1074
aF40.1074
aF40.0879
aF40.0879
aF40.1074
aF40.1074
aF40.1074
aF40.1074
aF40.1074
aF40.1074
aF40.1074
aF40.1074
aF40.1074
aF40.1074
aF40.1074
aF40.0879
aF40.1074
aF40.1074
aF40.1074
aF40.1074
aF40.1074
as(I50
S'get HB7-4-LeakageCurrent[1-64]_f_rr'
p23
tp24
(lp25
F6.344
aF10.98
aF14.64
aF9.516
aF13.42
aF11.224
aF5.856
aF11.712
aF9.516
aF14.64
aF10.736
aF12.2
aF9.272
aF8.052
aF7.808
aF9.76
aF7.564
aF8.784
aF11.712
aF11.712
aF15.128
aF9.272
aF8.54
aF13.908
aF7.564
aF19.764
aF11.712
aF10.98
aF11.956
aF14.64
aF15.372
aF12.688
aF11.712
aF10.736
aF13.908
aF5.856
aF10.492
aF10.98
aF10.004
aF8.784
aF10.492
aF7.808
aF13.664
aF13.176
aF14.152
aF8.052
aF8.052
aF5.368
aF7.564
aF10.492
aF9.516
aF9.028
aF15.128
aF10.492
aF10.736
aF11.224
aF14.884
aF10.736
aF5.856
aF13.42
aF11.712
aF10.736
aF8.784
aF13.176
as(I30
S'get HB7-4-biasmon[1-64]_f_rr'
p26
tp27
(lp28
F30.1245
aF30.105
aF30.1245
aF30.1245
aF30.1245
aF30.1245
aF30.1245
aF30.1245
aF30.1245
aF30.1245
aF30.1245
aF30.1245
aF30.1245
aF30.1245
aF30.1245
aF30.1245
aF30.105
aF30.1245
aF30.1245
aF30.1245
aF30.1245
aF30.1245
aF30.1245
aF30.1245
aF30.1245
aF30.1245
aF30.1245
aF30.1245
aF30.1245
aF30.1245
aF30.105
aF30.1245
aF30.1245
aF30.1245
aF30.1245
aF30.1245
aF30.1245
aF30.1245
aF30.1245
aF30.1245
aF30.105
aF30.1245
aF30.1245
aF30.1245
aF30.1245
aF30.105
aF30.105
aF30.1245
aF30.1245
aF30.1245
aF30.1245
aF30.1245
aF30.1245
aF30.1245
aF30.1245
aF30.1245
aF30.1245
aF30.1245
aF30.1245
aF30.1245
aF30.1245
aF30.1245
aF30.1245
aF30.1245
as(I20
S'get HB7-4-biasmon[1-64]_f_rr'
p29
tp30
(lp31
F20.1026
aF20.083
aF20.1026
aF20.1026
aF20.1026
aF20.1026
aF20.1026
aF20.1026
aF20.1026
aF20.1026
aF20.1026
aF20.1026
aF20.083
aF20.1026
aF20.083
aF20.1026
aF20.083
aF20.1026
aF20.1026
aF20.1026
aF20.1026
aF20.1026
aF20.1026
aF20.1026
aF20.1026
aF20.1026
aF20.1026
aF20.083
aF20.083
aF20.1026
aF20.1026
aF20.083
aF20.083
aF20.1026
aF20.1026
aF20.1026
aF20.1026
aF20.1026
aF20.1026
aF20.1026
aF20.1026
aF20.1026
aF20.1026
aF20.1026
aF20.1026
aF20.083
aF20.083
aF20.1026
aF20.1026
aF20.1026
aF20.1026
aF20.1026
aF20.1026
aF20.1026
aF20.1026
aF20.1026
aF20.1026
aF20.1026
aF20.1026
aF20.1026
aF20.1026
aF20.1026
aF20.1026
aF20.1026
as(I50
S'get HB7-4-biasmon[1-64]_f_rr'
p32
tp33
(lp34
F50.1294
aF50.1099
aF50.1294
aF50.1294
aF50.1294
aF50.1294
aF50.1294
aF50.1294
aF50.1294
aF50.1294
aF50.1294
aF50.1294
aF50.1294
aF50.1294
aF50.1294
aF50.1294
aF50.1099
aF50.1099
aF50.1294
aF50.1294
aF50.1294
aF50.1294
aF50.1294
aF50.1294
aF50.1294
aF50.1099
aF50.1294
aF50.1294
aF50.1294
aF50.1294
aF50.1294
aF50.1294
aF50.1294
aF50.1294
aF50.1294
aF50.1294
aF50.1294
aF50.1294
aF50.1294
aF50.1294
aF50.1294
aF50.1294
aF50.1099
aF50.1099
aF50.1294
aF50.1099
aF50.1099
aF50.1294
aF50.1099
aF50.1294
aF50.1294
aF50.1099
aF50.1099
aF50.1294
aF50.1294
aF50.1294
aF50.1294
aF50.1099
aF50.1099
aF50.1294
aF50.1294
aF50.1294
aF50.1099
aF50.1294
as(I60
S'get HB7-4-LeakageCurrent[1-64]_f_rr'
p35
tp36
(lp37
F7.808
aF12.444
aF16.348
aF11.224
aF14.884
aF12.688
aF7.32
aF13.176
aF11.224
aF16.104
aF12.444
aF13.908
aF10.736
aF9.76
aF9.516
aF11.224
aF9.272
aF10.248
aF13.176
aF13.176
aF16.592
aF10.736
aF10.004
aF15.372
aF9.028
aF21.228
aF13.176
aF12.688
aF13.664
aF16.348
aF16.836
aF14.152
aF13.176
aF12.444
aF15.372
aF7.564
aF11.956
aF12.444
aF11.712
aF10.248
aF11.956
aF9.516
aF15.128
aF14.884
aF15.86
aF9.516
aF9.76
aF7.076
aF9.028
aF11.956
aF11.224
aF10.492
aF16.592
aF11.956
aF12.2
aF12.932
aF16.348
aF12.444
aF7.32
aF14.884
aF13.176
aF12.2
aF10.248
aF14.64
as(I25
S'put HB7-4-biasvoltage[1-64]_f 64*25.000000'
p38
tp39
(lp40
S'OK'
p41
as(I55
S'put HB7-4-biasvoltage[1-64]_f 64*55.000000'
p42
tp43
(lp44
S'OK'
p45
as(I35
S'get HB7-4-LeakageCurrent[1-64]_f_rr'
p46
tp47
(lp48
F4.148
aF8.784
aF12.2
aF7.32
aF10.98
aF8.784
aF3.416
aF9.516
aF7.076
aF12.2
aF8.54
aF9.76
aF6.832
aF5.856
aF5.612
aF7.564
aF5.368
aF6.344
aF9.516
aF9.272
aF12.688
aF7.076
aF6.344
aF11.712
aF5.124
aF17.568
aF9.272
aF8.784
aF9.76
aF12.444
aF12.932
aF10.248
aF9.272
aF8.54
aF11.712
aF3.66
aF8.052
aF8.54
aF7.564
aF6.588
aF8.296
aF5.612
aF11.224
aF10.98
aF11.712
aF5.856
aF5.856
aF3.172
aF5.124
aF8.052
aF7.32
aF6.832
aF12.688
aF8.052
aF8.54
aF9.028
aF12.444
aF8.54
aF3.66
aF11.224
aF9.272
aF8.296
aF6.588
aF10.98
as(I15
S'put HB7-4-biasvoltage[1-64]_f 64*15.000000'
p49
tp50
(lp51
S'OK'
p52
as(I35
S'put HB7-4-biasvoltage[1-64]_f 64*35.000000'
p53
tp54
(lp55
S'OK'
p56
as(I60
S'put HB7-4-biasvoltage[1-64]_f 64*60.000000'
p57
tp58
(lp59
S'OK'
p60
as(I5
S'get HB7-4-LeakageCurrent[1-64]_f_rr'
p61
tp62
(lp63
F1.708
aF3.904
aF7.808
aF2.44
aF6.1
aF4.392
aF1.708
aF4.88
aF2.928
aF7.564
aF3.904
aF4.88
aF2.196
aF1.708
aF1.708
aF2.928
aF1.708
aF1.952
aF4.636
aF4.88
aF8.052
aF2.196
aF2.44
aF6.832
aF1.708
aF13.176
aF4.88
aF4.148
aF5.856
aF7.808
aF8.784
aF5.856
aF4.392
aF3.904
aF6.588
aF1.708
aF3.416
aF3.66
aF2.44
aF1.952
aF3.904
aF1.708
aF6.344
aF5.856
aF7.32
aF1.708
aF1.708
aF1.708
aF1.708
aF2.928
aF2.196
aF1.952
aF8.54
aF3.416
aF3.66
aF4.88
aF7.808
aF3.904
aF1.708
aF6.588
aF4.636
aF3.66
aF2.684
aF7.32
as(I5
S'get HB7-4-biasmon[1-64]_f_rr'
p64
tp65
(lp66
F5.05983
aF5.05983
aF5.05983
aF5.07937
aF5.07937
aF5.07937
aF5.05983
aF5.07937
aF5.05983
aF5.07937
aF5.05983
aF5.05983
aF5.05983
aF5.05983
aF5.05983
aF5.07937
aF5.05983
aF5.05983
aF5.05983
aF5.05983
aF5.07937
aF5.07937
aF5.05983
aF5.07937
aF5.05983
aF5.05983
aF5.07937
aF5.05983
aF5.05983
aF5.05983
aF5.05983
aF5.05983
aF5.05983
aF5.05983
aF5.05983
aF5.05983
aF5.05983
aF5.05983
aF5.05983
aF5.07937
aF5.05983
aF5.07937
aF5.05983
aF5.05983
aF5.05983
aF5.05983
aF5.05983
aF5.07937
aF5.05983
aF5.05983
aF5.05983
aF5.05983
aF5.05983
aF5.05983
aF5.05983
aF5.05983
aF5.05983
aF5.05983
aF5.05983
aF5.07937
aF5.05983
aF5.05983
aF5.05983
aF5.05983
as(I25
S'get HB7-4-biasmon[1-64]_f_rr'
p67
tp68
(lp69
F25.1233
aF25.1038
aF25.1038
aF25.1233
aF25.1233
aF25.1233
aF25.1038
aF25.1038
aF25.1038
aF25.1038
aF25.1038
aF25.1038
aF25.1038
aF25.1038
aF25.1038
aF25.1233
aF25.1038
aF25.1038
aF25.1038
aF25.1038
aF25.1233
aF25.1038
aF25.1233
aF25.1233
aF25.1038
aF25.1038
aF25.1233
aF25.1038
aF25.1038
aF25.1038
aF25.1038
aF25.1038
aF25.1038
aF25.1038
aF25.1038
aF25.1038
aF25.1038
aF25.1233
aF25.1038
aF25.1233
aF25.1038
aF25.1233
aF25.1038
aF25.1038
aF25.1038
aF25.1038
aF25.1038
aF25.1233
aF25.1038
aF25.1038
aF25.1038
aF25.1038
aF25.1038
aF25.1038
aF25.1038
aF25.1038
aF25.1038
aF25.1038
aF25.1038
aF25.1233
aF25.1038
aF25.1038
aF25.1038
aF25.1038
as(I15
S'get HB7-4-LeakageCurrent[1-64]_f_rr'
p70
tp71
(lp72
F1.708
aF5.612
aF9.272
aF3.904
aF7.564
aF5.612
aF1.708
aF6.344
aF3.904
aF9.028
aF5.612
aF6.588
aF3.66
aF2.928
aF2.196
aF4.392
aF2.44
aF3.416
aF6.344
aF6.344
aF9.516
aF3.66
aF3.66
aF8.54
aF2.44
aF14.64
aF6.588
aF5.856
aF6.832
aF9.516
aF10.004
aF7.32
aF6.1
aF5.368
aF8.296
aF1.708
aF4.88
aF5.368
aF4.148
aF3.66
aF5.368
aF2.684
aF8.052
aF7.808
aF8.54
aF2.684
aF2.684
aF1.708
aF2.196
aF4.88
aF3.904
aF3.66
aF9.76
aF4.88
aF5.368
aF6.1
aF9.516
aF5.368
aF1.708
aF8.052
aF5.856
aF5.368
aF3.66
aF8.052
as(I0
S'get HB7-4-LeakageCurrent[1-64]_f_rr'
p73
tp74
(lp75
F1.708
aF3.416
aF6.832
aF1.952
aF5.368
aF3.416
aF1.708
aF4.148
aF1.952
aF6.588
aF3.172
aF4.392
aF1.708
aF1.708
aF1.708
aF2.196
aF1.708
aF1.708
aF3.904
aF4.148
aF7.076
aF1.708
aF1.708
aF6.1
aF1.708
aF12.444
aF4.148
aF3.416
aF4.88
aF7.076
aF7.564
aF5.124
aF3.66
aF2.928
aF5.856
aF1.708
aF2.684
aF2.928
aF1.708
aF1.708
aF2.928
aF1.708
aF5.856
aF5.368
aF6.344
aF1.708
aF1.708
aF1.708
aF1.708
aF2.684
aF1.708
aF1.708
aF7.564
aF2.684
aF3.416
aF3.904
aF7.076
aF3.172
aF1.708
aF6.1
aF3.416
aF2.928
aF1.952
aF6.344
as(I45
S'get HB7-4-LeakageCurrent[1-64]_f_rr'
p76
tp77
(lp78
F5.612
aF10.248
aF13.908
aF8.784
aF12.444
aF10.248
aF4.88
aF10.98
aF8.784
aF13.664
aF10.004
aF11.468
aF8.54
aF7.32
aF7.076
aF9.028
aF6.832
aF7.808
aF10.98
aF10.98
aF14.396
aF8.54
aF7.808
aF13.176
aF6.832
aF19.032
aF10.98
aF10.248
aF11.224
aF13.908
aF14.64
aF11.956
aF10.736
aF10.004
aF13.176
aF5.124
aF9.516
aF10.004
aF9.028
aF8.052
aF9.76
aF7.076
aF12.932
aF12.444
aF13.42
aF7.32
aF7.564
aF4.636
aF6.588
aF9.516
aF8.784
aF8.296
aF14.396
aF9.516
aF10.004
aF10.736
aF13.908
aF10.004
aF4.88
aF12.688
aF10.736
aF9.76
aF8.052
aF12.444
as(I15
S'get HB7-4-biasmon[1-64]_f_rr'
p79
tp80
(lp81
F15.0818
aF15.0818
aF15.1013
aF15.1013
aF15.1013
aF15.1013
aF15.1013
aF15.0818
aF15.0818
aF15.1013
aF15.0818
aF15.0818
aF15.0818
aF15.0818
aF15.0818
aF15.1013
aF15.0818
aF15.0818
aF15.0818
aF15.0818
aF15.1013
aF15.0818
aF15.0818
aF15.1013
aF15.0818
aF15.0818
aF15.1013
aF15.0818
aF15.0818
aF15.0818
aF15.0818
aF15.0818
aF15.0818
aF15.1013
aF15.1013
aF15.0818
aF15.0818
aF15.1013
aF15.0818
aF15.1013
aF15.0818
aF15.1013
aF15.0818
aF15.0818
aF15.0818
aF15.0818
aF15.0818
aF15.0818
aF15.0818
aF15.0818
aF15.0818
aF15.0818
aF15.0818
aF15.0818
aF15.0818
aF15.0818
aF15.0818
aF15.0818
aF15.0818
aF15.1013
aF15.0818
aF15.0818
aF15.0818
aF15.0818
as(I45
S'get HB7-4-biasmon[1-64]_f_rr'
p82
tp83
(lp84
F45.1087
aF45.1087
aF45.1282
aF45.1282
aF45.1282
aF45.1282
aF45.1087
aF45.1087
aF45.1087
aF45.1282
aF45.1087
aF45.1087
aF45.1087
aF45.1282
aF45.1282
aF45.1282
aF45.1087
aF45.1087
aF45.1087
aF45.1087
aF45.1087
aF45.1282
aF45.1282
aF45.1282
aF45.1087
aF45.1087
aF45.1282
aF45.1087
aF45.1087
aF45.1087
aF45.1087
aF45.1087
aF45.1087
aF45.1087
aF45.1282
aF45.1087
aF45.1282
aF45.1282
aF45.1087
aF45.1282
aF45.1087
aF45.1282
aF45.1087
aF45.1087
aF45.1087
aF45.1087
aF45.1087
aF45.1282
aF45.1087
aF45.1282
aF45.1087
aF45.1282
aF45.1087
aF45.1087
aF45.1087
aF45.1087
aF45.1087
aF45.1087
aF45.1087
aF45.1282
aF45.1087
aF45.1087
aF45.1087
aF45.1282
as(I25
S'get HB7-4-LeakageCurrent[1-64]_f_rr'
p85
tp86
(lp87
F2.684
aF7.076
aF10.736
aF5.856
aF9.272
aF7.32
aF2.196
aF7.808
aF5.612
aF10.736
aF6.832
aF8.296
aF5.368
aF4.392
aF3.904
aF5.856
aF3.904
aF4.636
aF7.564
aF7.808
aF10.98
aF5.368
aF4.88
aF10.004
aF3.66
aF16.104
aF7.808
aF7.32
aF8.296
aF10.736
aF11.468
aF8.784
aF7.564
aF6.832
aF10.004
aF2.196
aF6.588
aF7.076
aF5.856
aF5.124
aF6.832
aF4.148
aF9.516
aF9.516
aF10.248
aF4.148
aF4.392
aF1.952
aF3.416
aF6.588
aF5.612
aF5.124
aF11.224
aF6.588
aF6.832
aF7.564
aF10.98
aF6.832
aF2.196
aF9.516
aF7.564
aF6.832
aF5.124
aF9.516
as(I35
S'get HB7-4-biasmon[1-64]_f_rr'
p88
tp89
(lp90
F35.1453
aF35.1258
aF35.1453
aF35.1258
aF35.1453
aF35.1258
aF35.1258
aF35.1258
aF35.1258
aF35.1258
aF35.1258
aF35.1258
aF35.1258
aF35.1258
aF35.1258
aF35.1453
aF35.1062
aF35.1258
aF35.1258
aF35.1258
aF35.1258
aF35.1258
aF35.1258
aF35.1258
aF35.1258
aF35.1258
aF35.1453
aF35.1258
aF35.1258
aF35.1258
aF35.1258
aF35.1258
aF35.1258
aF35.1258
aF35.1453
aF35.1258
aF35.1453
aF35.1453
aF35.1258
aF35.1258
aF35.1258
aF35.1258
aF35.1258
aF35.1258
aF35.1258
aF35.1062
aF35.1062
aF35.1453
aF35.1258
aF35.1258
aF35.1258
aF35.1258
aF35.1258
aF35.1258
aF35.1258
aF35.1258
aF35.1258
aF35.1258
aF35.1258
aF35.1453
aF35.1258
aF35.1258
aF35.1258
aF35.1258
as(I55
S'get HB7-4-LeakageCurrent[1-64]_f_rr'
p91
tp92
(lp93
F7.076
aF11.712
aF15.372
aF10.492
aF14.152
aF11.956
aF6.588
aF12.444
aF10.248
aF15.372
aF11.712
aF12.932
aF10.004
aF9.028
aF8.54
aF10.492
aF8.54
aF9.516
aF12.444
aF12.444
aF15.86
aF10.004
aF9.272
aF14.64
aF8.296
aF20.496
aF12.444
aF11.956
aF12.932
aF15.616
aF16.104
aF13.42
aF12.444
aF11.712
aF14.64
aF6.588
aF11.224
aF11.712
aF10.736
aF9.516
aF11.468
aF8.54
aF14.396
aF13.908
aF14.884
aF8.784
aF8.784
aF6.1
aF8.296
aF11.224
aF10.492
aF9.76
aF15.616
aF11.224
aF11.468
aF11.956
aF15.616
aF11.712
aF6.588
aF14.152
aF12.444
aF11.468
aF9.516
aF14.152
as(I40
S'get HB7-4-LeakageCurrent[1-64]_f_rr'
p94
tp95
(lp96
F4.636
aF9.516
aF13.176
aF8.052
aF11.712
aF9.516
aF4.148
aF10.248
aF7.808
aF12.932
aF9.272
aF10.736
aF7.564
aF6.588
aF6.344
aF8.052
aF6.1
aF7.076
aF10.004
aF10.004
aF13.664
aF7.808
aF7.076
aF12.444
aF5.856
aF18.3
aF10.004
aF9.516
aF10.492
aF13.176
aF13.664
aF10.98
aF10.004
aF9.272
aF12.444
aF4.392
aF8.784
aF9.516
aF8.296
aF7.32
aF9.028
aF6.344
aF11.956
aF11.712
aF12.688
aF6.588
aF6.588
aF3.904
aF5.856
aF8.784
aF8.052
aF7.564
aF13.42
aF8.784
aF9.272
aF9.76
aF13.42
aF9.272
aF4.148
aF11.956
aF10.004
aF9.028
aF7.32
aF11.712
as(I0
S'put HB7-4-biasvoltage[1-64]_f 64*0.000000'
p97
tp98
(lp99
S'OK'
p100
as(I30
S'get HB7-4-LeakageCurrent[1-64]_f_rr'
p101
tp102
(lp103
F3.416
aF7.808
aF11.468
aF6.588
aF10.004
aF8.052
aF2.928
aF8.54
aF6.344
aF11.468
aF7.564
aF9.028
aF6.1
aF5.124
aF4.636
aF6.832
aF4.636
aF5.612
aF8.54
aF8.54
aF11.956
aF6.1
aF5.612
aF10.736
aF4.392
aF16.836
aF8.54
aF8.052
aF9.272
aF11.712
aF12.2
aF9.516
aF8.54
aF7.564
aF10.736
aF2.684
aF7.564
aF7.564
aF6.588
aF5.856
aF7.564
aF4.88
aF10.492
aF10.248
aF11.224
aF5.124
aF4.88
aF2.44
aF4.392
aF7.32
aF6.588
aF5.856
aF11.956
aF7.32
aF7.564
aF8.296
aF11.712
aF7.564
aF2.928
aF10.492
aF8.296
aF7.564
aF5.856
aF10.248
as(I10
S'put HB7-4-biasvoltage[1-64]_f 64*10.000000'
p104
tp105
(lp106
S'OK'
p107
as(I55
S'get HB7-4-biasmon[1-64]_f_rr'
p108
tp109
(lp110
F55.1306
aF55.1306
aF55.1502
aF55.1306
aF55.1502
aF55.1502
aF55.1306
aF55.1306
aF55.1306
aF55.1306
aF55.1306
aF55.1306
aF55.1306
aF55.1502
aF55.1306
aF55.1502
aF55.1111
aF55.1306
aF55.1306
aF55.1306
aF55.1502
aF55.1502
aF55.1502
aF55.1502
aF55.1306
aF55.1306
aF55.1502
aF55.1306
aF55.1306
aF55.1502
aF55.1306
aF55.1306
aF55.1306
aF55.1306
aF55.1306
aF55.1306
aF55.1502
aF55.1502
aF55.1306
aF55.1502
aF55.1306
aF55.1502
aF55.1306
aF55.1306
aF55.1111
aF55.1306
aF55.1111
aF55.1502
aF55.1306
aF55.1306
aF55.1306
aF55.1306
aF55.1306
aF55.1306
aF55.1306
aF55.1306
aF55.1306
aF55.1111
aF55.1306
aF55.1306
aF55.1306
aF55.1306
aF55.1306
aF55.1306
as(I5
S'put HB7-4-biasvoltage[1-64]_f 64*5.000000'
p111
tp112
(lp113
S'OK'
p114
as(I40
S'put HB7-4-biasvoltage[1-64]_f 64*40.000000'
p115
tp116
(lp117
S'OK'
p118
as(I10
S'get HB7-4-LeakageCurrent[1-64]_f_rr'
p119
tp120
(lp121
F1.708
aF4.88
aF8.296
aF3.172
aF6.832
aF4.88
aF1.708
aF5.856
aF3.416
aF8.052
aF4.636
aF6.1
aF2.928
aF2.196
aF1.708
aF3.66
aF1.952
aF2.684
aF5.368
aF5.368
aF8.784
aF3.172
aF2.928
aF7.808
aF1.952
aF13.664
aF5.612
aF4.636
aF6.1
aF8.54
aF9.272
aF6.588
aF5.368
aF4.392
aF7.32
aF1.708
aF4.392
aF4.636
aF3.172
aF2.684
aF4.636
aF2.196
aF7.32
aF6.832
aF8.052
aF2.196
aF2.196
aF1.708
aF1.708
aF3.904
aF3.172
aF2.684
aF9.028
aF4.148
aF4.88
aF5.368
aF8.54
aF4.636
aF1.708
aF7.32
aF4.88
aF4.392
aF2.928
aF7.32
as(I10
S'get HB7-4-biasmon[1-64]_f_rr'
p122
tp123
(lp124
F10.0806
aF10.0611
aF10.0806
aF10.0806
aF10.0806
aF10.0806
aF10.0806
aF10.0806
aF10.0806
aF10.0806
aF10.0806
aF10.0806
aF10.0806
aF10.0806
aF10.0806
aF10.0806
aF10.0806
aF10.0806
aF10.0611
aF10.0806
aF10.0806
aF10.0806
aF10.0806
aF10.1001
aF10.0806
aF10.0806
aF10.0806
aF10.0611
aF10.0611
aF10.0806
aF10.0806
aF10.0611
aF10.0806
aF10.0806
aF10.0806
aF10.0806
aF10.0806
aF10.0806
aF10.0806
aF10.0806
aF10.0806
aF10.0806
aF10.0611
aF10.0806
aF10.0806
aF10.0806
aF10.0806
aF10.0806
aF10.0806
aF10.0806
aF10.0806
aF10.0806
aF10.0806
aF10.0806
aF10.0806
aF10.0806
aF10.0806
aF10.0806
aF10.0611
aF10.0806
aF10.0806
aF10.0806
aF10.0806
aF10.0806
as(I20
S'get HB7-4-LeakageCurrent[1-64]_f_rr'
p125
tp126
(lp127
F1.952
aF6.344
aF9.76
aF4.88
aF8.54
aF6.344
aF1.708
aF7.076
aF4.88
aF9.76
aF6.1
aF7.564
aF4.636
aF3.66
aF3.172
aF5.124
aF3.172
aF4.148
aF7.076
aF7.076
aF10.248
aF4.636
aF4.148
aF9.272
aF2.928
aF15.372
aF7.076
aF6.588
aF7.564
aF10.004
aF10.736
aF8.052
aF6.832
aF6.1
aF9.272
aF1.708
aF5.856
aF6.1
aF4.88
aF4.392
aF5.856
aF3.416
aF8.784
aF8.54
aF9.516
aF3.416
aF3.416
aF1.708
aF2.684
aF5.612
aF4.88
aF4.148
aF10.492
aF5.856
aF6.1
aF6.832
aF10.004
aF6.1
aF1.952
aF9.028
aF6.832
aF6.1
aF4.392
aF8.784
as(I0
S'get HB7-4-biasmon[1-64]_f_rr'
p128
tp129
(lp130
F0.0586081
aF0.0586081
aF0.0586081
aF0.0586081
aF0.0586081
aF0.0586081
aF0.0586081
aF0.0586081
aF0.0586081
aF0.0586081
aF0.0586081
aF0.0586081
aF0.0586081
aF0.0586081
aF0.0586081
aF0.0586081
aF0.0586081
aF0.0586081
aF0.0586081
aF0.0586081
aF0.0586081
aF0.0586081
aF0.0586081
aF0.0586081
aF0.0586081
aF0.0586081
aF0.0586081
aF0.0586081
aF0.0586081
aF0.0586081
aF0.0586081
aF0.0586081
aF0.0586081
aF0.0586081
aF0.0586081
aF0.0586081
aF0.0586081
aF0.0586081
aF0.0586081
aF0.0586081
aF0.0586081
aF0.0586081
aF0.0586081
aF0.0586081
aF0.0586081
aF0.0586081
aF0.0586081
aF0.0586081
aF0.0586081
aF0.0586081
aF0.0586081
aF0.0586081
aF0.0586081
aF0.0586081
aF0.0586081
aF0.0586081
aF0.0586081
aF0.0586081
aF0.0586081
aF0.0586081
aF0.0586081
aF0.0586081
aF0.0586081
aF0.0586081
as.