(dp0
(I25
S'put HB7-1-biasvoltage[1-64]_f 64*25.000000'
p1
tp2
(lp3
S'OK'
p4
as(I60
S'get HB7-1-biasmon[1-64]_f_rr'
p5
tp6
(lp7
F59.7802
aF59.7998
aF59.7998
aF59.7998
aF59.7802
aF59.7802
aF59.7607
aF59.7998
aF59.7998
aF59.7998
aF59.7998
aF59.7998
aF59.7802
aF59.7802
aF59.7802
aF59.7998
aF59.7998
aF59.7998
aF59.7998
aF59.7998
aF59.7802
aF59.7802
aF59.7802
aF59.7802
aF59.7998
aF59.7998
aF59.7998
aF59.7802
aF59.7802
aF59.7802
aF59.7802
aF59.7998
aF59.7998
aF59.7998
aF59.7998
aF59.7998
aF59.7802
aF59.7802
aF59.7998
aF59.7802
aF59.7998
aF59.7998
aF59.7998
aF59.7998
aF59.7802
aF59.7802
aF59.7802
aF59.7802
aF59.7998
aF59.7998
aF59.7802
aF59.7998
aF59.7998
aF59.7802
aF59.7802
aF59.7802
aF59.7998
aF59.7998
aF59.7998
aF59.7998
aF59.7802
aF59.7802
aF59.7802
aF59.7802
as(I60
S'get HB7-1-LeakageCurrent[1-64]_f_rr'
p8
tp9
(lp10
F10.736
aF13.664
aF9.76
aF10.736
aF8.54
aF18.3
aF10.736
aF6.1
aF10.248
aF13.908
aF13.664
aF12.444
aF10.004
aF8.54
aF11.712
aF13.42
aF13.908
aF13.42
aF14.396
aF8.784
aF11.224
aF10.98
aF11.956
aF10.98
aF5.612
aF7.564
aF10.248
aF10.736
aF13.42
aF13.42
aF14.884
aF11.468
aF9.76
aF12.688
aF9.76
aF17.812
aF7.32
aF10.736
aF12.932
aF14.396
aF19.276
aF10.98
aF10.248
aF11.956
aF9.028
aF6.832
aF10.736
aF9.272
aF9.76
aF10.736
aF13.42
aF10.492
aF7.808
aF12.932
aF9.516
aF18.544
aF15.128
aF11.468
aF14.884
aF10.736
aF10.736
aF12.688
aF13.664
aF10.004
as(I5
S'get HB7-1-LeakageCurrent[1-64]_f_rr'
p11
tp12
(lp13
F2.196
aF4.88
aF1.952
aF2.44
aF1.708
aF9.76
aF2.196
aF1.708
aF1.952
aF5.368
aF5.368
aF3.416
aF1.708
aF1.708
aF3.66
aF4.88
aF5.612
aF4.636
aF5.612
aF1.708
aF3.172
aF2.684
aF3.66
aF2.928
aF1.708
aF1.708
aF2.196
aF2.196
aF5.124
aF4.636
aF6.588
aF3.66
aF1.952
aF4.392
aF1.708
aF9.272
aF1.708
aF2.196
aF3.416
aF6.1
aF11.224
aF3.416
aF2.44
aF3.904
aF1.708
aF1.708
aF2.196
aF1.708
aF1.708
aF2.44
aF4.148
aF1.952
aF1.708
aF4.148
aF1.952
aF9.516
aF6.588
aF2.928
aF5.856
aF2.928
aF1.952
aF4.392
aF5.368
aF2.44
as(I50
S'put HB7-1-biasvoltage[1-64]_f 64*50.000000'
p14
tp15
(lp16
S'OK'
p17
as(I15
S'get HB7-1-LeakageCurrent[1-64]_f_rr'
p18
tp19
(lp20
F3.66
aF6.344
aF2.928
aF3.904
aF1.952
aF11.468
aF3.66
aF1.708
aF3.416
aF6.832
aF6.832
aF5.368
aF3.172
aF2.196
aF5.124
aF6.1
aF7.076
aF6.344
aF7.564
aF2.196
aF4.636
aF4.148
aF5.368
aF4.392
aF1.708
aF1.952
aF3.416
aF3.66
aF6.832
aF6.344
aF7.808
aF4.636
aF3.172
aF5.856
aF2.684
aF10.736
aF1.708
aF3.66
aF5.612
aF7.564
aF12.444
aF4.636
aF3.66
aF5.124
aF2.196
aF1.708
aF3.904
aF2.44
aF2.684
aF3.904
aF6.344
aF3.416
aF1.708
aF5.856
aF2.928
aF11.468
aF8.052
aF4.392
aF7.808
aF4.148
aF3.66
aF5.612
aF6.832
aF3.416
as(I55
S'get HB7-1-biasmon[1-64]_f_rr'
p21
tp22
(lp23
F54.8181
aF54.8181
aF54.8181
aF54.8181
aF54.7985
aF54.7985
aF54.7985
aF54.7985
aF54.8181
aF54.8181
aF54.8181
aF54.8181
aF54.7985
aF54.7985
aF54.7985
aF54.8181
aF54.8181
aF54.8181
aF54.8181
aF54.8181
aF54.7985
aF54.7985
aF54.7985
aF54.7985
aF54.8181
aF54.8376
aF54.8181
aF54.7985
aF54.7985
aF54.7985
aF54.8181
aF54.8181
aF54.8181
aF54.8181
aF54.7985
aF54.8181
aF54.7985
aF54.8181
aF54.8181
aF54.7985
aF54.8181
aF54.8181
aF54.8181
aF54.8181
aF54.8181
aF54.7985
aF54.7985
aF54.7985
aF54.8181
aF54.8376
aF54.8181
aF54.7985
aF54.8181
aF54.7985
aF54.7985
aF54.7985
aF54.8181
aF54.8181
aF54.8181
aF54.8181
aF54.7985
aF54.7985
aF54.7985
aF54.7985
as(I15
S'put HB7-1-biasvoltage[1-64]_f 64*15.000000'
p24
tp25
(lp26
S'OK'
p27
as(I35
S'get HB7-1-biasmon[1-64]_f_rr'
p28
tp29
(lp30
F34.9109
aF34.9304
aF34.9304
aF34.9304
aF34.9304
aF34.9109
aF34.9109
aF34.9304
aF34.9304
aF34.9304
aF34.9304
aF34.9304
aF34.9109
aF34.9109
aF34.9109
aF34.9304
aF34.9304
aF34.9304
aF34.9304
aF34.9304
aF34.9304
aF34.9109
aF34.9304
aF34.9109
aF34.9304
aF34.9304
aF34.9304
aF34.9304
aF34.9304
aF34.9304
aF34.9109
aF34.9304
aF34.9304
aF34.9304
aF34.9304
aF34.9304
aF34.9109
aF34.9304
aF34.9304
aF34.9304
aF34.9304
aF34.9304
aF34.9304
aF34.9304
aF34.9109
aF34.9109
aF34.9109
aF34.9109
aF34.9304
aF34.9304
aF34.9304
aF34.9304
aF34.9304
aF34.9304
aF34.9304
aF34.9304
aF34.9304
aF34.9304
aF34.9304
aF34.9304
aF34.9109
aF34.9109
aF34.9109
aF34.9109
as(I25
S'get HB7-1-LeakageCurrent[1-64]_f_rr'
p31
tp32
(lp33
F5.368
aF8.052
aF4.636
aF5.368
aF3.416
aF12.932
aF5.368
aF1.708
aF4.88
aF8.54
aF8.296
aF6.832
aF4.636
aF3.416
aF6.588
aF7.808
aF8.54
aF7.808
aF9.028
aF3.66
aF5.856
aF5.856
aF6.832
aF5.856
aF1.708
aF2.684
aF4.88
aF5.368
aF8.052
aF8.052
aF9.516
aF6.1
aF4.636
aF7.32
aF4.148
aF12.444
aF2.196
aF5.124
aF7.32
aF9.028
aF13.908
aF5.856
aF5.124
aF6.588
aF3.66
aF1.952
aF5.368
aF3.66
aF4.148
aF5.368
aF7.564
aF4.88
aF2.684
aF7.564
aF4.392
aF12.932
aF9.516
aF5.856
aF9.272
aF5.368
aF5.368
aF7.32
aF8.296
aF4.88
as(I45
S'put HB7-1-biasvoltage[1-64]_f 64*45.000000'
p34
tp35
(lp36
S'OK'
p37
as(I0
S'get HB7-1-LeakageCurrent[1-64]_f_rr'
p38
tp39
(lp40
F1.708
aF3.904
aF1.708
aF1.952
aF1.708
aF9.272
aF1.708
aF1.708
aF1.708
aF4.636
aF4.636
aF2.928
aF1.708
aF1.708
aF3.172
aF3.904
aF4.88
aF4.148
aF4.88
aF1.708
aF2.684
aF1.952
aF3.172
aF2.684
aF1.708
aF1.708
aF1.952
aF1.952
aF4.636
aF4.148
aF5.856
aF2.684
aF1.708
aF3.66
aF1.708
aF8.54
aF1.708
aF1.708
aF2.928
aF5.612
aF10.004
aF2.684
aF1.952
aF2.928
aF1.708
aF1.708
aF1.952
aF1.708
aF1.708
aF2.196
aF3.66
aF1.708
aF1.708
aF3.416
aF1.708
aF9.028
aF5.612
aF2.44
aF5.368
aF1.952
aF1.708
aF3.172
aF4.392
aF1.708
as(I20
S'put HB7-1-biasvoltage[1-64]_f 64*20.000000'
p41
tp42
(lp43
S'OK'
p44
as(I5
S'get HB7-1-biasmon[1-64]_f_rr'
p45
tp46
(lp47
F5.04029
aF5.04029
aF5.04029
aF5.04029
aF5.04029
aF5.04029
aF5.04029
aF5.04029
aF5.04029
aF5.04029
aF5.04029
aF5.05983
aF5.04029
aF5.04029
aF5.04029
aF5.04029
aF5.04029
aF5.04029
aF5.04029
aF5.04029
aF5.04029
aF5.04029
aF5.04029
aF5.04029
aF5.05983
aF5.04029
aF5.05983
aF5.04029
aF5.04029
aF5.04029
aF5.04029
aF5.05983
aF5.04029
aF5.05983
aF5.04029
aF5.04029
aF5.04029
aF5.05983
aF5.05983
aF5.04029
aF5.04029
aF5.04029
aF5.04029
aF5.04029
aF5.04029
aF5.04029
aF5.04029
aF5.04029
aF5.04029
aF5.05983
aF5.04029
aF5.04029
aF5.04029
aF5.04029
aF5.05983
aF5.04029
aF5.05983
aF5.04029
aF5.05983
aF5.04029
aF5.04029
aF5.04029
aF5.04029
aF5.04029
as(I45
S'get HB7-1-LeakageCurrent[1-64]_f_rr'
p48
tp49
(lp50
F8.296
aF11.224
aF7.564
aF8.54
aF6.1
aF15.86
aF8.296
aF3.66
aF8.052
aF11.712
aF11.224
aF10.004
aF7.564
aF6.344
aF9.516
aF10.98
aF11.712
aF10.98
aF11.956
aF6.832
aF8.784
aF8.784
aF9.76
aF8.784
aF3.416
aF5.368
aF7.808
aF8.54
aF11.224
aF11.224
aF12.444
aF9.272
aF7.564
aF10.492
aF7.32
aF15.372
aF5.124
aF8.296
aF10.492
aF12.2
aF17.08
aF8.784
aF8.052
aF9.516
aF6.832
aF4.636
aF8.54
aF6.832
aF7.32
aF8.54
aF10.98
aF8.052
aF5.612
aF10.736
aF7.32
aF16.104
aF12.688
aF9.028
aF12.444
aF8.54
aF8.54
aF10.492
aF11.224
aF7.564
as(I55
S'get HB7-1-LeakageCurrent[1-64]_f_rr'
p51
tp52
(lp53
F10.004
aF12.932
aF9.028
aF10.004
aF7.808
aF17.324
aF9.76
aF5.368
aF9.516
aF13.176
aF12.932
aF11.712
aF9.272
aF7.808
aF10.98
aF12.444
aF13.176
aF12.444
aF13.664
aF8.052
aF10.492
aF10.492
aF11.224
aF10.248
aF4.88
aF6.832
aF9.516
aF10.004
aF12.688
aF12.688
aF13.908
aF10.736
aF9.272
aF11.956
aF8.784
aF17.08
aF6.588
aF10.004
aF12.2
aF13.664
aF18.544
aF10.492
aF9.516
aF11.224
aF8.052
aF6.1
aF10.004
aF8.54
aF9.028
aF10.004
aF12.444
aF9.516
aF7.076
aF12.2
aF8.784
aF17.568
aF14.396
aF10.736
aF13.908
aF10.004
aF10.004
aF11.956
aF12.932
aF9.272
as(I15
S'get HB7-1-biasmon[1-64]_f_rr'
p54
tp55
(lp56
F15.0037
aF15.0037
aF15.0037
aF15.0037
aF15.0037
aF15.0037
aF15.0037
aF15.0037
aF15.0037
aF15.0037
aF15.0037
aF15.0037
aF15.0037
aF15.0037
aF15.0037
aF15.0037
aF15.0037
aF15.0037
aF15.0037
aF15.0037
aF15.0037
aF15.0037
aF15.0037
aF15.0037
aF15.0037
aF15.0037
aF15.0037
aF15.0037
aF15.0037
aF15.0037
aF15.0037
aF15.0037
aF15.0037
aF15.0037
aF15.0037
aF15.0037
aF15.0037
aF15.0037
aF15.0037
aF15.0037
aF15.0037
aF15.0037
aF15.0037
aF15.0037
aF15.0037
aF15.0037
aF15.0037
aF15.0037
aF15.0037
aF15.0037
aF15.0037
aF15.0037
aF15.0037
aF15.0037
aF15.0037
aF15.0037
aF15.0037
aF15.0037
aF15.0037
aF15.0037
aF15.0037
aF15.0037
aF15.0037
aF15.0037
as(I0
S'get HB7-1-biasmon[1-64]_f_rr'
p57
tp58
(lp59
F0.0586081
aF0.0586081
aF0.0586081
aF0.0586081
aF0.0586081
aF0.0586081
aF0.0586081
aF0.0586081
aF0.0586081
aF0.0586081
aF0.0586081
aF0.0586081
aF0.0586081
aF0.0586081
aF0.0586081
aF0.0586081
aF0.0586081
aF0.0586081
aF0.0586081
aF0.0586081
aF0.0586081
aF0.0586081
aF0.0586081
aF0.0586081
aF0.0586081
aF0.0586081
aF0.0586081
aF0.0586081
aF0.0586081
aF0.0586081
aF0.0586081
aF0.0586081
aF0.0586081
aF0.0586081
aF0.0586081
aF0.0586081
aF0.0586081
aF0.0586081
aF0.0781441
aF0.0586081
aF0.0586081
aF0.0586081
aF0.0586081
aF0.0586081
aF0.0586081
aF0.0586081
aF0.0586081
aF0.0586081
aF0.0586081
aF0.0586081
aF0.0586081
aF0.0586081
aF0.0586081
aF0.0586081
aF0.0781441
aF0.0586081
aF0.0586081
aF0.0586081
aF0.0586081
aF0.0586081
aF0.0586081
aF0.0586081
aF0.0586081
aF0.0586081
as(I5
S'put HB7-1-biasvoltage[1-64]_f 64*5.000000'
p60
tp61
(lp62
S'OK'
p63
as(I50
S'get HB7-1-biasmon[1-64]_f_rr'
p64
tp65
(lp66
F49.8169
aF49.8364
aF49.8364
aF49.8364
aF49.8364
aF49.8169
aF49.8169
aF49.8364
aF49.8559
aF49.8364
aF49.8364
aF49.8364
aF49.8169
aF49.8364
aF49.8169
aF49.8364
aF49.8364
aF49.8364
aF49.8364
aF49.8364
aF49.8364
aF49.8169
aF49.8169
aF49.8169
aF49.8364
aF49.8559
aF49.8364
aF49.8169
aF49.8364
aF49.8364
aF49.8364
aF49.8364
aF49.8364
aF49.8364
aF49.8364
aF49.8364
aF49.8169
aF49.8364
aF49.8364
aF49.8169
aF49.8559
aF49.8364
aF49.8364
aF49.8364
aF49.8169
aF49.8169
aF49.8169
aF49.8169
aF49.8364
aF49.8364
aF49.8364
aF49.8364
aF49.8364
aF49.8169
aF49.8364
aF49.8364
aF49.8559
aF49.8364
aF49.8364
aF49.8559
aF49.8169
aF49.8169
aF49.8364
aF49.8169
as(I50
S'get HB7-1-LeakageCurrent[1-64]_f_rr'
p67
tp68
(lp69
F9.028
aF11.956
aF8.296
aF9.272
aF7.076
aF16.592
aF9.028
aF4.636
aF8.54
aF12.444
aF11.956
aF10.98
aF8.54
aF7.32
aF10.248
aF11.712
aF12.444
aF11.712
aF12.932
aF7.32
aF9.516
aF9.516
aF10.736
aF9.516
aF4.148
aF6.1
aF8.54
aF9.272
aF11.956
aF11.956
aF13.42
aF9.76
aF8.54
aF11.224
aF8.052
aF16.348
aF5.856
aF9.272
aF11.468
aF12.932
aF17.812
aF9.516
aF8.784
aF10.492
aF7.564
aF5.368
aF9.272
aF7.564
aF8.052
aF9.272
aF11.712
aF8.784
aF6.344
aF11.468
aF8.052
aF16.836
aF13.664
aF9.76
aF13.176
aF9.028
aF9.272
aF11.224
aF11.956
aF8.54
as(I60
S'put HB7-1-biasvoltage[1-64]_f 64*60.000000'
p70
tp71
(lp72
S'OK'
p73
as(I10
S'get HB7-1-LeakageCurrent[1-64]_f_rr'
p74
tp75
(lp76
F3.172
aF5.368
aF2.196
aF3.416
aF1.708
aF10.736
aF2.928
aF1.708
aF2.44
aF6.1
aF6.344
aF4.636
aF2.684
aF1.708
aF4.636
aF5.368
aF6.1
aF5.612
aF6.832
aF1.952
aF3.904
aF3.66
aF4.392
aF3.66
aF1.708
aF1.708
aF2.684
aF3.172
aF6.1
aF5.612
aF7.076
aF4.148
aF2.44
aF4.88
aF1.952
aF10.004
aF1.708
aF2.684
aF4.636
aF7.076
aF11.712
aF3.904
aF2.928
aF4.392
aF1.708
aF1.708
aF2.928
aF1.708
aF1.952
aF3.416
aF5.612
aF2.44
aF1.708
aF4.88
aF2.196
aF10.736
aF6.832
aF3.66
aF7.076
aF3.172
aF2.928
aF4.88
aF5.856
aF2.684
as(I25
S'get HB7-1-biasmon[1-64]_f_rr'
p77
tp78
(lp79
F24.967
aF24.967
aF24.967
aF24.967
aF24.967
aF24.967
aF24.9475
aF24.967
aF24.9866
aF24.967
aF24.967
aF24.967
aF24.967
aF24.967
aF24.9475
aF24.967
aF24.967
aF24.967
aF24.967
aF24.967
aF24.967
aF24.967
aF24.967
aF24.967
aF24.967
aF24.9866
aF24.967
aF24.967
aF24.967
aF24.967
aF24.967
aF24.967
aF24.967
aF24.967
aF24.9475
aF24.967
aF24.967
aF24.967
aF24.967
aF24.967
aF24.967
aF24.967
aF24.967
aF24.967
aF24.967
aF24.967
aF24.967
aF24.967
aF24.967
aF24.967
aF24.967
aF24.967
aF24.967
aF24.967
aF24.967
aF24.967
aF24.967
aF24.967
aF24.967
aF24.967
aF24.9475
aF24.967
aF24.967
aF24.967
as(I10
S'put HB7-1-biasvoltage[1-64]_f 64*10.000000'
p80
tp81
(lp82
S'OK'
p83
as(I35
S'get HB7-1-LeakageCurrent[1-64]_f_rr'
p84
tp85
(lp86
F6.832
aF9.516
aF5.856
aF6.832
aF4.636
aF14.396
aF6.832
aF2.196
aF6.344
aF10.004
aF9.76
aF8.54
aF6.1
aF4.88
aF8.052
aF9.272
aF10.004
aF9.516
aF10.736
aF5.124
aF7.32
aF7.32
aF8.296
aF7.32
aF1.952
aF3.66
aF6.344
aF6.832
aF9.76
aF9.516
aF10.98
aF7.564
aF6.1
aF8.784
aF5.856
aF13.908
aF3.66
aF6.832
aF9.028
aF10.736
aF15.372
aF7.564
aF6.588
aF8.052
aF5.368
aF3.172
aF7.076
aF5.368
aF5.856
aF6.832
aF9.516
aF6.588
aF4.148
aF9.028
aF5.856
aF14.64
aF11.224
aF7.564
aF10.98
aF6.832
aF6.832
aF8.784
aF9.76
aF6.1
as(I20
S'get HB7-1-LeakageCurrent[1-64]_f_rr'
p87
tp88
(lp89
F4.636
aF7.32
aF3.66
aF4.636
aF2.684
aF12.2
aF4.636
aF1.708
aF4.148
aF7.564
aF7.564
aF6.1
aF3.904
aF2.928
aF5.856
aF7.076
aF7.808
aF7.32
aF8.052
aF2.928
aF5.368
aF4.88
aF6.1
aF5.124
aF1.708
aF1.952
aF4.148
aF4.636
aF7.564
aF7.32
aF8.784
aF5.612
aF3.904
aF6.588
aF3.66
aF11.712
aF1.708
aF4.392
aF6.344
aF8.54
aF13.176
aF5.124
aF4.392
aF5.856
aF2.928
aF1.708
aF4.636
aF2.928
aF3.416
aF4.636
aF7.076
aF4.148
aF1.952
aF6.588
aF3.66
aF12.2
aF8.784
aF5.368
aF8.54
aF4.636
aF4.636
aF6.588
aF7.564
aF4.148
as(I40
S'get HB7-1-biasmon[1-64]_f_rr'
p90
tp91
(lp92
F39.873
aF39.8926
aF39.8926
aF39.8926
aF39.873
aF39.873
aF39.873
aF39.8926
aF39.9121
aF39.8926
aF39.8926
aF39.8926
aF39.873
aF39.873
aF39.873
aF39.8926
aF39.8926
aF39.8926
aF39.8926
aF39.8926
aF39.8926
aF39.873
aF39.873
aF39.873
aF39.8926
aF39.9121
aF39.8926
aF39.8926
aF39.8926
aF39.8926
aF39.8926
aF39.8926
aF39.8926
aF39.8926
aF39.8926
aF39.8926
aF39.873
aF39.873
aF39.8926
aF39.873
aF39.8926
aF39.8926
aF39.8926
aF39.8926
aF39.873
aF39.873
aF39.873
aF39.873
aF39.8926
aF39.8926
aF39.873
aF39.873
aF39.8926
aF39.873
aF39.873
aF39.873
aF39.9121
aF39.8926
aF39.8926
aF39.8926
aF39.873
aF39.873
aF39.873
aF39.873
as(I45
S'get HB7-1-biasmon[1-64]_f_rr'
p93
tp94
(lp95
F44.8547
aF44.8547
aF44.8547
aF44.8547
aF44.8547
aF44.8547
aF44.8352
aF44.8547
aF44.8742
aF44.8547
aF44.8547
aF44.8547
aF44.8352
aF44.8547
aF44.8352
aF44.8547
aF44.8547
aF44.8547
aF44.8547
aF44.8547
aF44.8547
aF44.8547
aF44.8547
aF44.8352
aF44.8547
aF44.8742
aF44.8742
aF44.8547
aF44.8547
aF44.8547
aF44.8547
aF44.8547
aF44.8547
aF44.8547
aF44.8547
aF44.8547
aF44.8352
aF44.8547
aF44.8547
aF44.8547
aF44.8547
aF44.8547
aF44.8547
aF44.8547
aF44.8547
aF44.8352
aF44.8352
aF44.8547
aF44.8547
aF44.8742
aF44.8547
aF44.8547
aF44.8547
aF44.8547
aF44.8547
aF44.8547
aF44.8547
aF44.8547
aF44.8547
aF44.8547
aF44.8352
aF44.8547
aF44.8547
aF44.8352
as(I55
S'put HB7-1-biasvoltage[1-64]_f 64*55.000000'
p96
tp97
(lp98
S'OK'
p99
as(I35
S'put HB7-1-biasvoltage[1-64]_f 64*35.000000'
p100
tp101
(lp102
S'OK'
p103
as(I30
S'get HB7-1-biasmon[1-64]_f_rr'
p104
tp105
(lp106
F29.9292
aF29.9487
aF29.9487
aF29.9487
aF29.9487
aF29.9487
aF29.9292
aF29.9292
aF29.9683
aF29.9487
aF29.9487
aF29.9487
aF29.9292
aF29.9292
aF29.9292
aF29.9487
aF29.9487
aF29.9487
aF29.9487
aF29.9487
aF29.9487
aF29.9292
aF29.9487
aF29.9292
aF29.9487
aF29.9683
aF29.9487
aF29.9487
aF29.9487
aF29.9487
aF29.9487
aF29.9487
aF29.9487
aF29.9487
aF29.9292
aF29.9487
aF29.9292
aF29.9487
aF29.9487
aF29.9292
aF29.9487
aF29.9487
aF29.9487
aF29.9487
aF29.9487
aF29.9487
aF29.9292
aF29.9292
aF29.9487
aF29.9487
aF29.9487
aF29.9292
aF29.9487
aF29.9487
aF29.9487
aF29.9487
aF29.9487
aF29.9487
aF29.9487
aF29.9487
aF29.9292
aF29.9487
aF29.9292
aF29.9292
as(I30
S'put HB7-1-biasvoltage[1-64]_f 64*30.000000'
p107
tp108
(lp109
S'OK'
p110
as(I40
S'put HB7-1-biasvoltage[1-64]_f 64*40.000000'
p111
tp112
(lp113
S'OK'
p114
as(I10
S'get HB7-1-biasmon[1-64]_f_rr'
p115
tp116
(lp117
F10.022
aF10.022
aF10.022
aF10.022
aF10.022
aF10.022
aF10.022
aF10.022
aF10.022
aF10.022
aF10.022
aF10.022
aF10.022
aF10.022
aF10.022
aF10.022
aF10.022
aF10.022
aF10.022
aF10.022
aF10.022
aF10.022
aF10.022
aF10.022
aF10.022
aF10.022
aF10.022
aF10.022
aF10.022
aF10.022
aF10.022
aF10.022
aF10.022
aF10.022
aF10.022
aF10.022
aF10.022
aF10.022
aF10.022
aF10.022
aF10.022
aF10.022
aF10.022
aF10.022
aF10.022
aF10.022
aF10.022
aF10.022
aF10.022
aF10.0415
aF10.022
aF10.022
aF10.022
aF10.022
aF10.022
aF10.022
aF10.022
aF10.022
aF10.022
aF10.022
aF10.022
aF10.022
aF10.022
aF10.022
as(I40
S'get HB7-1-LeakageCurrent[1-64]_f_rr'
p118
tp119
(lp120
F7.564
aF10.492
aF6.832
aF7.564
aF5.612
aF15.128
aF7.564
aF2.928
aF7.32
aF10.736
aF10.492
aF9.272
aF6.832
aF5.856
aF8.784
aF10.004
aF10.736
aF10.248
aF11.468
aF5.856
aF8.052
aF8.052
aF9.028
aF8.052
aF2.684
aF4.636
aF7.076
aF7.564
aF10.492
aF10.248
aF11.712
aF8.296
aF6.832
aF9.516
aF6.588
aF14.64
aF4.392
aF7.564
aF9.76
aF11.468
aF16.348
aF8.052
aF7.32
aF8.784
aF5.856
aF3.904
aF7.564
aF6.1
aF6.588
aF7.564
aF10.004
aF7.32
aF4.636
aF9.76
aF6.588
aF15.372
aF11.956
aF8.296
aF11.712
aF7.564
aF7.564
aF9.516
aF10.736
aF6.832
as(I30
S'get HB7-1-LeakageCurrent[1-64]_f_rr'
p121
tp122
(lp123
F6.1
aF8.784
aF5.368
aF6.1
aF3.904
aF13.664
aF6.1
aF1.708
aF5.612
aF9.272
aF9.028
aF7.808
aF5.612
aF4.148
aF7.32
aF8.54
aF9.272
aF8.784
aF9.76
aF4.392
aF6.588
aF6.588
aF7.564
aF6.588
aF1.708
aF2.928
aF5.612
aF6.1
aF8.784
aF8.784
aF10.248
aF6.832
aF5.368
aF8.052
aF5.124
aF13.176
aF2.928
aF5.856
aF8.052
aF9.76
aF14.884
aF6.588
aF5.856
aF7.32
aF4.392
aF2.684
aF6.1
aF4.636
aF4.88
aF6.1
aF8.54
aF5.856
aF3.416
aF8.296
aF5.124
aF13.664
aF10.248
aF6.832
aF10.004
aF6.1
aF6.1
aF8.052
aF9.028
aF5.612
as(I20
S'get HB7-1-biasmon[1-64]_f_rr'
p124
tp125
(lp126
F19.9853
aF19.9853
aF19.9853
aF19.9853
aF19.9853
aF19.9853
aF19.9853
aF19.9853
aF19.9853
aF19.9853
aF19.9853
aF19.9853
aF19.9853
aF19.9853
aF19.9658
aF19.9853
aF19.9853
aF19.9853
aF19.9853
aF19.9853
aF19.9853
aF19.9853
aF19.9853
aF19.9853
aF19.9853
aF19.9853
aF19.9853
aF19.9853
aF19.9853
aF19.9853
aF19.9853
aF19.9853
aF19.9853
aF19.9853
aF19.9853
aF19.9853
aF19.9853
aF19.9853
aF19.9853
aF19.9853
aF19.9853
aF19.9853
aF19.9853
aF19.9853
aF19.9853
aF19.9853
aF19.9853
aF19.9853
aF19.9853
aF19.9853
aF19.9853
aF19.9853
aF19.9853
aF19.9853
aF19.9853
aF19.9853
aF19.9853
aF19.9853
aF19.9853
aF19.9853
aF19.9658
aF19.9853
aF19.9853
aF19.9853
as(I0
S'put HB7-1-biasvoltage[1-64]_f 64*0.000000'
p127
tp128
(lp129
S'OK'
p130
as.