(dp0
(I60
S'put HB1-2-biasvoltage[1-64]_f 64*60.000000'
p1
tp2
(lp3
S'OK'
p4
as(I10
S'get HB1-2-LeakageCurrent[1-64]_f_rr'
p5
tp6
(lp7
F1.708
aF3.66
aF2.196
aF6.1
aF3.904
aF3.416
aF4.392
aF1.708
aF2.44
aF4.392
aF3.416
aF3.66
aF4.148
aF3.904
aF7.32
aF7.808
aF1.708
aF2.684
aF6.832
aF5.124
aF2.928
aF6.832
aF4.636
aF3.416
aF5.612
aF8.052
aF3.66
aF2.928
aF7.076
aF3.66
aF8.052
aF4.148
aF3.904
aF7.076
aF10.004
aF5.124
aF2.196
aF1.952
aF4.392
aF7.076
aF3.172
aF7.808
aF2.44
aF3.172
aF5.612
aF5.124
aF4.392
aF4.148
aF2.196
aF7.076
aF6.832
aF1.708
aF3.66
aF4.636
aF3.416
aF4.636
aF5.856
aF1.708
aF4.148
aF1.708
aF5.124
aF1.952
aF1.952
aF5.368
as(I5
S'get HB1-2-LeakageCurrent[1-64]_f_rr'
p8
tp9
(lp10
F1.708
aF2.928
aF1.708
aF5.612
aF2.684
aF2.684
aF3.416
aF1.708
aF1.708
aF3.66
aF2.684
aF3.172
aF3.172
aF2.928
aF6.832
aF6.832
aF1.708
aF2.196
aF6.588
aF4.148
aF2.196
aF6.344
aF3.66
aF2.684
aF4.88
aF7.32
aF2.928
aF2.684
aF6.1
aF2.928
aF7.32
aF3.416
aF3.172
aF5.856
aF9.272
aF4.636
aF1.708
aF1.708
aF3.416
aF5.856
aF2.44
aF6.832
aF1.952
aF2.684
aF4.636
aF4.636
aF3.66
aF3.66
aF1.708
aF6.1
aF6.1
aF1.708
aF3.172
aF3.66
aF2.684
aF3.904
aF5.124
aF1.708
aF3.416
aF1.708
aF4.636
aF1.708
aF1.708
aF4.148
as(I40
S'put HB1-2-biasvoltage[1-64]_f 64*40.000000'
p11
tp12
(lp13
S'OK'
p14
as(I45
S'get HB1-2-biasmon[1-64]_f_rr'
p15
tp16
(lp17
F45.1087
aF45.1087
aF45.1282
aF45.1282
aF45.1282
aF45.1282
aF45.1477
aF45.1282
aF45.1477
aF45.1282
aF45.1282
aF45.1282
aF45.1282
aF45.1282
aF45.1282
aF45.1087
aF45.1282
aF45.1087
aF45.1087
aF45.1087
aF45.1282
aF45.1282
aF45.1282
aF45.1282
aF45.1282
aF45.1282
aF45.1282
aF45.1282
aF45.1282
aF45.1282
aF45.1282
aF45.1282
aF45.1282
aF45.1282
aF45.1282
aF45.1282
aF45.1282
aF45.1282
aF45.1477
aF45.1282
aF45.1282
aF45.1282
aF45.1282
aF45.1087
aF45.1282
aF45.1282
aF45.1282
aF45.1282
aF45.1282
aF45.1282
aF45.1282
aF45.1282
aF45.1477
aF45.1282
aF45.1282
aF45.1282
aF45.1282
aF45.1282
aF45.1282
aF45.1282
aF45.1282
aF45.1282
aF45.1282
aF45.1282
as(I50
S'get HB1-2-biasmon[1-64]_f_rr'
p18
tp19
(lp20
F50.1294
aF50.1294
aF50.1294
aF50.149
aF50.149
aF50.149
aF50.149
aF50.149
aF50.149
aF50.149
aF50.1294
aF50.1294
aF50.149
aF50.149
aF50.1294
aF50.1294
aF50.149
aF50.1294
aF50.1294
aF50.1294
aF50.149
aF50.149
aF50.149
aF50.1294
aF50.149
aF50.1294
aF50.1294
aF50.1294
aF50.1294
aF50.149
aF50.149
aF50.149
aF50.1294
aF50.149
aF50.149
aF50.149
aF50.149
aF50.149
aF50.149
aF50.149
aF50.149
aF50.149
aF50.1294
aF50.1294
aF50.149
aF50.149
aF50.149
aF50.149
aF50.1294
aF50.149
aF50.1294
aF50.149
aF50.149
aF50.1294
aF50.149
aF50.149
aF50.149
aF50.149
aF50.149
aF50.1294
aF50.1294
aF50.1294
aF50.1294
aF50.149
as(I15
S'put HB1-2-biasvoltage[1-64]_f 64*15.000000'
p21
tp22
(lp23
S'OK'
p24
as(I30
S'get HB1-2-biasmon[1-64]_f_rr'
p25
tp26
(lp27
F30.1245
aF30.1245
aF30.1245
aF30.1245
aF30.1245
aF30.1441
aF30.1441
aF30.1245
aF30.1441
aF30.1245
aF30.1245
aF30.1245
aF30.1245
aF30.1441
aF30.1245
aF30.1245
aF30.1245
aF30.1245
aF30.1245
aF30.1245
aF30.1245
aF30.1245
aF30.1245
aF30.1245
aF30.1441
aF30.1245
aF30.1245
aF30.1245
aF30.1245
aF30.1245
aF30.1441
aF30.1441
aF30.1245
aF30.1441
aF30.1245
aF30.1441
aF30.1245
aF30.1441
aF30.1441
aF30.1441
aF30.1441
aF30.1441
aF30.1245
aF30.1245
aF30.1441
aF30.1245
aF30.1441
aF30.1245
aF30.1245
aF30.1441
aF30.1245
aF30.1245
aF30.1441
aF30.1245
aF30.1441
aF30.1245
aF30.1441
aF30.1245
aF30.1245
aF30.1245
aF30.1245
aF30.1245
aF30.1441
aF30.1245
as(I40
S'get HB1-2-LeakageCurrent[1-64]_f_rr'
p28
tp29
(lp30
F5.368
aF8.052
aF6.344
aF10.98
aF8.54
aF7.808
aF9.272
aF4.148
aF6.832
aF9.272
aF7.808
aF8.54
aF8.784
aF8.54
aF12.444
aF12.2
aF3.172
aF7.076
aF11.224
aF9.516
aF7.808
aF11.224
aF9.516
aF8.052
aF10.004
aF12.932
aF8.296
aF7.076
aF12.2
aF8.052
aF12.688
aF9.272
aF8.052
aF11.712
aF15.128
aF10.004
aF6.344
aF6.1
aF9.028
aF11.468
aF7.564
aF12.444
aF6.344
aF8.052
aF10.248
aF10.004
aF8.784
aF8.784
aF6.832
aF11.712
aF11.224
aF3.66
aF8.296
aF9.516
aF8.54
aF9.516
aF10.248
aF5.856
aF8.784
aF5.856
aF9.272
aF6.1
aF6.832
aF9.272
as(I35
S'get HB1-2-biasmon[1-64]_f_rr'
p31
tp32
(lp33
F35.1453
aF35.1258
aF35.1258
aF35.1453
aF35.1453
aF35.1453
aF35.1453
aF35.1453
aF35.1453
aF35.1453
aF35.1453
aF35.1453
aF35.1453
aF35.1453
aF35.1453
aF35.1258
aF35.1453
aF35.1258
aF35.1258
aF35.1258
aF35.1453
aF35.1453
aF35.1453
aF35.1453
aF35.1453
aF35.1258
aF35.1258
aF35.1258
aF35.1258
aF35.1453
aF35.1453
aF35.1453
aF35.1453
aF35.1453
aF35.1453
aF35.1453
aF35.1453
aF35.1453
aF35.1453
aF35.1453
aF35.1453
aF35.1453
aF35.1258
aF35.1258
aF35.1453
aF35.1453
aF35.1453
aF35.1453
aF35.1258
aF35.1453
aF35.1258
aF35.1453
aF35.1453
aF35.1453
aF35.1453
aF35.1453
aF35.1453
aF35.1453
aF35.1453
aF35.1258
aF35.1453
aF35.1258
aF35.1453
aF35.1453
as(I35
S'get HB1-2-LeakageCurrent[1-64]_f_rr'
p34
tp35
(lp36
F4.636
aF7.32
aF5.612
aF10.248
aF7.808
aF7.076
aF8.296
aF3.416
aF6.1
aF8.296
aF7.076
aF7.564
aF8.052
aF7.808
aF11.712
aF11.712
aF2.44
aF6.344
aF10.492
aF8.54
aF7.076
aF10.492
aF8.784
aF7.32
aF9.272
aF11.956
aF7.564
aF6.344
aF11.468
aF7.32
aF11.956
aF8.54
aF7.564
aF10.98
aF14.152
aF9.272
aF5.612
aF5.368
aF8.052
aF10.736
aF6.832
aF11.712
aF5.612
aF7.32
aF9.516
aF9.272
aF8.052
aF8.052
aF6.1
aF10.98
aF10.492
aF3.172
aF7.564
aF8.54
aF7.564
aF8.784
aF9.516
aF5.124
aF8.052
aF5.124
aF8.54
aF5.368
aF5.856
aF8.54
as(I40
S'get HB1-2-biasmon[1-64]_f_rr'
p37
tp38
(lp39
F40.1074
aF40.1074
aF40.1074
aF40.127
aF40.127
aF40.127
aF40.127
aF40.127
aF40.127
aF40.127
aF40.127
aF40.1074
aF40.127
aF40.127
aF40.1074
aF40.1074
aF40.127
aF40.1074
aF40.1074
aF40.127
aF40.127
aF40.127
aF40.127
aF40.127
aF40.127
aF40.1074
aF40.1074
aF40.1074
aF40.1074
aF40.127
aF40.127
aF40.127
aF40.127
aF40.127
aF40.127
aF40.127
aF40.127
aF40.127
aF40.127
aF40.127
aF40.127
aF40.127
aF40.1074
aF40.1074
aF40.127
aF40.127
aF40.127
aF40.127
aF40.1074
aF40.127
aF40.1074
aF40.127
aF40.127
aF40.1074
aF40.127
aF40.127
aF40.127
aF40.127
aF40.1074
aF40.127
aF40.127
aF40.1074
aF40.127
aF40.1074
as(I30
S'get HB1-2-LeakageCurrent[1-64]_f_rr'
p40
tp41
(lp42
F3.904
aF6.588
aF4.88
aF9.516
aF7.076
aF6.344
aF7.564
aF2.684
aF5.368
aF7.564
aF6.1
aF6.832
aF7.32
aF7.076
aF10.736
aF10.736
aF1.952
aF5.612
aF9.76
aF8.052
aF6.344
aF9.76
aF8.052
aF6.588
aF8.54
aF11.224
aF6.832
aF5.856
aF10.492
aF6.588
aF11.224
aF7.564
aF6.588
aF10.248
aF13.42
aF8.296
aF4.88
aF4.636
aF7.564
aF10.004
aF6.1
aF10.98
aF4.88
aF6.588
aF8.54
aF8.54
aF7.32
aF7.32
aF5.124
aF10.248
aF9.76
aF2.44
aF6.832
aF7.808
aF6.832
aF8.052
aF8.784
aF4.148
aF7.32
aF4.148
aF7.808
aF4.636
aF5.124
aF7.808
as(I25
S'put HB1-2-biasvoltage[1-64]_f 64*25.000000'
p43
tp44
(lp45
S'OK'
p46
as(I55
S'get HB1-2-biasmon[1-64]_f_rr'
p47
tp48
(lp49
F55.1502
aF55.1306
aF55.1502
aF55.1502
aF55.1502
aF55.1502
aF55.1502
aF55.1502
aF55.1502
aF55.1502
aF55.1502
aF55.1502
aF55.1502
aF55.1502
aF55.1306
aF55.1502
aF55.1502
aF55.1502
aF55.1306
aF55.1306
aF55.1502
aF55.1697
aF55.1502
aF55.1502
aF55.1502
aF55.1502
aF55.1502
aF55.1306
aF55.1502
aF55.1502
aF55.1502
aF55.1697
aF55.1502
aF55.1502
aF55.1502
aF55.1502
aF55.1502
aF55.1502
aF55.1502
aF55.1502
aF55.1502
aF55.1502
aF55.1306
aF55.1306
aF55.1502
aF55.1502
aF55.1502
aF55.1502
aF55.1502
aF55.1697
aF55.1306
aF55.1502
aF55.1502
aF55.1502
aF55.1502
aF55.1502
aF55.1502
aF55.1502
aF55.1502
aF55.1306
aF55.1502
aF55.1306
aF55.1502
aF55.1502
as(I5
S'get HB1-2-biasmon[1-64]_f_rr'
p50
tp51
(lp52
F5.07937
aF5.05983
aF5.05983
aF5.07937
aF5.07937
aF5.07937
aF5.07937
aF5.07937
aF5.07937
aF5.07937
aF5.07937
aF5.07937
aF5.05983
aF5.07937
aF5.05983
aF5.05983
aF5.07937
aF5.05983
aF5.05983
aF5.07937
aF5.07937
aF5.07937
aF5.07937
aF5.07937
aF5.07937
aF5.07937
aF5.07937
aF5.05983
aF5.07937
aF5.07937
aF5.07937
aF5.07937
aF5.05983
aF5.07937
aF5.07937
aF5.07937
aF5.05983
aF5.07937
aF5.07937
aF5.07937
aF5.07937
aF5.07937
aF5.05983
aF5.05983
aF5.05983
aF5.07937
aF5.07937
aF5.05983
aF5.05983
aF5.07937
aF5.05983
aF5.07937
aF5.07937
aF5.07937
aF5.07937
aF5.07937
aF5.07937
aF5.07937
aF5.05983
aF5.07937
aF5.05983
aF5.05983
aF5.07937
aF5.07937
as(I60
S'get HB1-2-biasmon[1-64]_f_rr'
p53
tp54
(lp55
F60.1514
aF60.1319
aF60.1514
aF60.1514
aF60.1514
aF60.1514
aF60.1709
aF60.1514
aF60.1514
aF60.1514
aF60.1514
aF60.1514
aF60.1709
aF60.1709
aF60.1514
aF60.1514
aF60.1514
aF60.1319
aF60.1319
aF60.1514
aF60.1709
aF60.1709
aF60.1514
aF60.1514
aF60.1709
aF60.1514
aF60.1514
aF60.1319
aF60.1514
aF60.1514
aF60.1514
aF60.1514
aF60.1514
aF60.1514
aF60.1514
aF60.1709
aF60.1514
aF60.1514
aF60.1709
aF60.1514
aF60.1709
aF60.1709
aF60.1514
aF60.1514
aF60.1514
aF60.1514
aF60.1514
aF60.1514
aF60.1514
aF60.1709
aF60.1514
aF60.1709
aF60.1709
aF60.1514
aF60.1514
aF60.1709
aF60.1709
aF60.1514
aF60.1514
aF60.1514
aF60.1514
aF60.1514
aF60.1514
aF60.1514
as(I10
S'get HB1-2-biasmon[1-64]_f_rr'
p56
tp57
(lp58
F10.1001
aF10.0806
aF10.0806
aF10.1001
aF10.1001
aF10.1001
aF10.1001
aF10.1001
aF10.1001
aF10.0806
aF10.1001
aF10.0806
aF10.0806
aF10.1001
aF10.0806
aF10.0806
aF10.0806
aF10.0806
aF10.0806
aF10.0806
aF10.1001
aF10.0806
aF10.1001
aF10.0806
aF10.1001
aF10.0806
aF10.0806
aF10.0806
aF10.0806
aF10.1001
aF10.1001
aF10.1001
aF10.0806
aF10.1001
aF10.0806
aF10.1001
aF10.0806
aF10.1001
aF10.1001
aF10.1001
aF10.0806
aF10.1001
aF10.0806
aF10.0806
aF10.0806
aF10.1001
aF10.0806
aF10.0806
aF10.0806
aF10.1001
aF10.0806
aF10.0806
aF10.0806
aF10.0806
aF10.0806
aF10.1001
aF10.1001
aF10.0806
aF10.0806
aF10.0806
aF10.0806
aF10.0806
aF10.1001
aF10.0806
as(I0
S'get HB1-2-LeakageCurrent[1-64]_f_rr'
p59
tp60
(lp61
F1.708
aF2.196
aF1.708
aF4.636
aF2.196
aF2.44
aF2.928
aF1.708
aF1.708
aF2.928
aF2.196
aF2.196
aF2.684
aF2.684
aF5.612
aF6.344
aF1.708
aF1.952
aF5.368
aF3.66
aF1.708
aF5.368
aF2.928
aF2.196
aF3.904
aF6.588
aF2.196
aF1.952
aF5.368
aF2.196
aF6.588
aF2.928
aF2.44
aF5.368
aF8.784
aF3.416
aF1.708
aF1.708
aF2.928
aF5.612
aF2.196
aF6.1
aF1.708
aF1.952
aF4.148
aF3.416
aF2.928
aF2.684
aF1.708
aF5.124
aF5.368
aF1.708
aF2.196
aF2.684
aF2.196
aF3.416
aF4.636
aF1.708
aF2.196
aF1.708
aF3.66
aF1.708
aF1.708
aF3.904
as(I55
S'put HB1-2-biasvoltage[1-64]_f 64*55.000000'
p62
tp63
(lp64
S'OK'
p65
as(I15
S'get HB1-2-biasmon[1-64]_f_rr'
p66
tp67
(lp68
F15.1013
aF15.1013
aF15.1013
aF15.1013
aF15.1013
aF15.1013
aF15.1013
aF15.1013
aF15.1013
aF15.1013
aF15.1013
aF15.1013
aF15.1013
aF15.1013
aF15.1013
aF15.1013
aF15.1013
aF15.0818
aF15.0818
aF15.1013
aF15.1013
aF15.1013
aF15.1013
aF15.1013
aF15.1013
aF15.1013
aF15.1013
aF15.1013
aF15.0818
aF15.1013
aF15.1013
aF15.1013
aF15.1013
aF15.1013
aF15.1013
aF15.1013
aF15.1013
aF15.1013
aF15.1013
aF15.1013
aF15.1013
aF15.1013
aF15.1013
aF15.0818
aF15.1013
aF15.1013
aF15.1013
aF15.1013
aF15.0818
aF15.1013
aF15.0818
aF15.1013
aF15.1013
aF15.0818
aF15.1013
aF15.1013
aF15.1013
aF15.1013
aF15.1013
aF15.1013
aF15.1013
aF15.0818
aF15.1013
aF15.1013
as(I20
S'get HB1-2-biasmon[1-64]_f_rr'
p69
tp70
(lp71
F20.1026
aF20.1026
aF20.1026
aF20.1026
aF20.1026
aF20.1026
aF20.1221
aF20.1026
aF20.1221
aF20.1026
aF20.1026
aF20.1026
aF20.1026
aF20.1221
aF20.1026
aF20.1026
aF20.1026
aF20.083
aF20.083
aF20.1026
aF20.1026
aF20.1221
aF20.1026
aF20.1026
aF20.1221
aF20.1026
aF20.1026
aF20.1026
aF20.1026
aF20.1026
aF20.1221
aF20.1221
aF20.1026
aF20.1026
aF20.1026
aF20.1026
aF20.1026
aF20.1221
aF20.1221
aF20.1221
aF20.1026
aF20.1026
aF20.1026
aF20.1026
aF20.1221
aF20.1026
aF20.1026
aF20.1026
aF20.1026
aF20.1221
aF20.1026
aF20.1026
aF20.1221
aF20.1026
aF20.1026
aF20.1026
aF20.1026
aF20.1026
aF20.1026
aF20.1026
aF20.1026
aF20.1026
aF20.1026
aF20.1026
as(I25
S'get HB1-2-biasmon[1-64]_f_rr'
p72
tp73
(lp74
F25.1233
aF25.1038
aF25.1038
aF25.1233
aF25.1233
aF25.1233
aF25.1233
aF25.1233
aF25.1233
aF25.1233
aF25.1233
aF25.1038
aF25.1038
aF25.1233
aF25.1038
aF25.1038
aF25.1038
aF25.1038
aF25.1038
aF25.1233
aF25.1233
aF25.1233
aF25.1233
aF25.1233
aF25.1233
aF25.1038
aF25.1038
aF25.1038
aF25.1038
aF25.1233
aF25.1233
aF25.1233
aF25.1233
aF25.1233
aF25.1233
aF25.1233
aF25.1233
aF25.1233
aF25.1233
aF25.1233
aF25.1233
aF25.1233
aF25.1038
aF25.1038
aF25.1233
aF25.1233
aF25.1233
aF25.1233
aF25.1038
aF25.1233
aF25.1038
aF25.1233
aF25.1233
aF25.1233
aF25.1233
aF25.1233
aF25.1233
aF25.1233
aF25.1233
aF25.1038
aF25.1038
aF25.1038
aF25.1233
aF25.1233
as(I0
S'put HB1-2-biasvoltage[1-64]_f 64*0.000000'
p75
tp76
(lp77
S'OK'
p78
as(I0
S'get HB1-2-biasmon[1-64]_f_rr'
p79
tp80
(lp81
F0.0586081
aF0.0586081
aF0.0586081
aF0.0586081
aF0.0586081
aF0.0586081
aF0.0586081
aF0.0586081
aF0.0586081
aF0.0586081
aF0.0586081
aF0.0586081
aF0.0586081
aF0.0586081
aF0.0586081
aF0.0586081
aF0.0586081
aF0.0586081
aF0.0586081
aF0.0586081
aF0.0586081
aF0.0781441
aF0.0781441
aF0.0781441
aF0.0586081
aF0.0586081
aF0.0586081
aF0.0586081
aF0.0586081
aF0.0781441
aF0.0781441
aF0.0586081
aF0.0586081
aF0.0586081
aF0.0586081
aF0.0586081
aF0.0586081
aF0.0781441
aF0.0781441
aF0.0781441
aF0.0781441
aF0.0586081
aF0.0586081
aF0.0586081
aF0.0586081
aF0.0586081
aF0.0586081
aF0.0586081
aF0.0586081
aF0.0586081
aF0.0586081
aF0.0586081
aF0.0781441
aF0.0586081
aF0.0586081
aF0.0586081
aF0.0586081
aF0.0586081
aF0.0586081
aF0.0586081
aF0.0586081
aF0.0586081
aF0.0586081
aF0.0586081
as(I60
S'get HB1-2-LeakageCurrent[1-64]_f_rr'
p82
tp83
(lp84
F8.54
aF10.98
aF9.516
aF14.396
aF11.956
aF10.736
aF12.444
aF7.076
aF9.76
aF12.2
aF10.736
aF11.712
aF11.956
aF11.712
aF16.104
aF15.372
aF6.1
aF10.004
aF14.396
aF12.444
aF10.98
aF15.128
aF12.688
aF11.224
aF13.176
aF16.104
aF11.224
aF10.004
aF15.372
aF11.224
aF15.86
aF12.444
aF11.224
aF15.128
aF18.056
aF13.176
aF9.516
aF9.028
aF12.2
aF14.64
aF10.736
aF15.616
aF9.272
aF11.224
aF13.42
aF13.176
aF11.956
aF11.956
aF10.004
aF15.128
aF14.396
aF6.832
aF11.468
aF12.444
aF11.712
aF12.688
aF13.42
aF8.784
aF12.2
aF8.784
aF12.2
aF9.272
aF9.76
aF12.444
as(I5
S'put HB1-2-biasvoltage[1-64]_f 64*5.000000'
p85
tp86
(lp87
S'OK'
p88
as(I55
S'get HB1-2-LeakageCurrent[1-64]_f_rr'
p89
tp90
(lp91
F7.808
aF10.248
aF8.54
aF13.42
aF11.224
aF10.004
aF11.468
aF6.588
aF9.028
aF11.468
aF10.004
aF10.736
aF11.224
aF10.98
aF15.128
aF14.64
aF5.368
aF9.272
aF13.664
aF11.712
aF10.248
aF13.664
aF11.956
aF10.492
aF12.444
aF15.372
aF10.736
aF9.272
aF14.64
aF10.492
aF15.128
aF11.712
aF10.492
aF14.152
aF17.324
aF12.444
aF8.54
aF8.296
aF11.468
aF13.664
aF10.004
aF15.128
aF8.54
aF10.492
aF12.444
aF12.444
aF11.224
aF11.224
aF9.272
aF14.152
aF13.664
aF5.856
aF10.736
aF11.712
aF10.736
aF11.956
aF12.444
aF8.052
aF11.468
aF8.052
aF11.468
aF8.54
aF9.028
aF11.712
as(I35
S'put HB1-2-biasvoltage[1-64]_f 64*35.000000'
p92
tp93
(lp94
S'OK'
p95
as(I10
S'put HB1-2-biasvoltage[1-64]_f 64*10.000000'
p96
tp97
(lp98
S'OK'
p99
as(I20
S'put HB1-2-biasvoltage[1-64]_f 64*20.000000'
p100
tp101
(lp102
S'OK'
p103
as(I50
S'put HB1-2-biasvoltage[1-64]_f 64*50.000000'
p104
tp105
(lp106
S'OK'
p107
as(I30
S'put HB1-2-biasvoltage[1-64]_f 64*30.000000'
p108
tp109
(lp110
S'OK'
p111
as(I25
S'get HB1-2-LeakageCurrent[1-64]_f_rr'
p112
tp113
(lp114
F3.172
aF5.856
aF4.148
aF8.54
aF6.1
aF5.612
aF6.832
aF2.196
aF4.636
aF6.832
aF5.368
aF6.1
aF6.588
aF6.344
aF10.004
aF10.004
aF1.708
aF4.88
aF9.028
aF7.32
aF5.368
aF9.028
aF7.076
aF5.856
aF7.564
aF10.492
aF5.856
aF5.124
aF9.76
aF5.856
aF10.492
aF6.832
aF5.856
aF9.516
aF12.688
aF7.564
aF4.148
aF3.904
aF6.832
aF9.272
aF5.368
aF10.248
aF4.148
aF5.612
aF7.808
aF7.564
aF6.832
aF6.588
aF4.392
aF9.516
aF9.028
aF1.952
aF5.856
aF7.076
aF6.1
aF7.32
aF8.052
aF3.416
aF6.588
aF3.66
aF7.076
aF3.904
aF4.392
aF7.076
as(I50
S'get HB1-2-LeakageCurrent[1-64]_f_rr'
p115
tp116
(lp117
F7.076
aF9.516
aF7.808
aF12.688
aF10.248
aF9.272
aF10.736
aF5.856
aF8.296
aF10.736
aF9.272
aF10.004
aF10.492
aF10.248
aF14.396
aF13.908
aF4.636
aF8.54
aF12.688
aF10.98
aF9.516
aF12.688
aF11.224
aF9.516
aF11.712
aF14.396
aF9.76
aF8.54
aF13.908
aF9.516
aF14.396
aF10.736
aF9.76
aF13.664
aF16.592
aF11.712
aF7.808
aF7.564
aF10.492
aF13.176
aF9.272
aF14.152
aF7.808
aF9.76
aF11.712
aF11.712
aF10.492
aF10.248
aF8.54
aF13.42
aF12.688
aF5.368
aF10.004
aF10.98
aF10.004
aF10.98
aF11.712
aF7.32
aF10.492
aF7.32
aF10.736
aF7.808
aF8.296
aF10.736
as(I45
S'put HB1-2-biasvoltage[1-64]_f 64*45.000000'
p118
tp119
(lp120
S'OK'
p121
as(I20
S'get HB1-2-LeakageCurrent[1-64]_f_rr'
p122
tp123
(lp124
F2.44
aF4.88
aF3.416
aF7.808
aF5.368
aF4.88
aF6.1
aF1.708
aF3.904
aF6.1
aF4.636
aF5.368
aF5.856
aF5.612
aF9.028
aF9.272
aF1.708
aF4.148
aF8.052
aF6.588
aF4.636
aF8.296
aF6.344
aF4.88
aF6.832
aF9.76
aF5.124
aF4.148
aF8.784
aF5.124
aF9.516
aF6.1
aF5.124
aF8.54
aF11.956
aF6.832
aF3.416
aF3.172
aF5.856
aF8.54
aF4.636
aF9.516
aF3.416
aF4.88
aF7.076
aF6.832
aF5.856
aF5.612
aF3.66
aF8.54
aF8.296
aF1.708
aF5.124
aF6.1
aF5.124
aF6.588
aF7.32
aF2.684
aF5.612
aF2.928
aF6.344
aF3.172
aF3.416
aF6.588
as(I45
S'get HB1-2-LeakageCurrent[1-64]_f_rr'
p125
tp126
(lp127
F6.1
aF8.784
aF7.32
aF11.956
aF9.516
aF8.54
aF9.76
aF4.88
aF7.564
aF9.76
aF8.54
aF9.272
aF9.516
aF9.272
aF13.42
aF12.932
aF3.904
aF7.808
aF11.956
aF10.248
aF8.54
aF12.2
aF10.492
aF8.784
aF10.736
aF13.664
aF9.028
aF7.808
aF12.932
aF8.784
aF13.42
aF10.004
aF9.028
aF12.444
aF15.616
aF10.736
aF7.32
aF6.832
aF9.76
aF12.2
aF8.54
aF13.42
aF7.076
aF9.028
aF10.98
aF10.736
aF9.76
aF9.516
aF7.564
aF12.688
aF11.956
aF4.636
aF9.028
aF10.248
aF9.272
aF10.248
aF10.98
aF6.588
aF9.76
aF6.588
aF10.004
aF7.076
aF7.564
aF10.004
as(I15
S'get HB1-2-LeakageCurrent[1-64]_f_rr'
p128
tp129
(lp130
F1.952
aF4.148
aF2.928
aF6.832
aF4.636
aF4.148
aF5.368
aF1.708
aF2.928
aF5.368
aF3.904
aF4.636
aF4.88
aF4.636
aF8.296
aF8.54
aF1.708
aF3.416
aF7.564
aF5.856
aF3.904
aF7.564
aF5.612
aF4.148
aF6.1
aF8.784
aF4.392
aF3.66
aF8.052
aF4.392
aF8.784
aF5.124
aF4.392
aF7.808
aF11.224
aF5.856
aF2.684
aF2.44
aF5.124
aF7.808
aF3.904
aF8.54
aF2.928
aF3.904
aF6.344
aF5.856
aF5.124
aF4.88
aF2.928
aF7.564
aF7.564
aF1.708
aF4.392
aF5.368
aF4.392
aF5.856
aF6.832
aF2.196
aF4.636
aF2.196
aF5.612
aF2.44
aF2.684
aF5.856
as.