(dp0
(I0
S'put HB1-4-biasvoltage[1-64]_f 64*0.000000'
p1
tp2
(lp3
S'OK'
p4
as(I35
S'get HB1-4-biasmon[1-64]_f_rr'
p5
tp6
(lp7
F35.0476
aF35.0476
aF35.0476
aF35.0476
aF35.0085
aF35.0281
aF35.0281
aF35.0281
aF35.0672
aF35.0476
aF35.0476
aF35.0476
aF35.0085
aF35.0085
aF35.0085
aF35.0281
aF35.0476
aF35.0281
aF35.0476
aF35.0672
aF35.0281
aF35.0085
aF35.0085
aF35.0085
aF35.0476
aF35.0476
aF35.0476
aF35.0672
aF35.0085
aF35.0281
aF35.0085
aF35.0281
aF35.0476
aF35.0476
aF35.0476
aF35.0476
aF35.0085
aF35.0085
aF35.0085
aF35.0281
aF35.0476
aF35.0672
aF35.0476
aF35.0476
aF35.0085
aF35.0281
aF35.0085
aF35.0085
aF35.0281
aF35.0476
aF35.0281
aF35.0281
aF35.0085
aF35.0085
aF35.0281
aF35.0085
aF35.0476
aF35.0476
aF35.0476
aF35.0476
aF35.0085
aF35.0085
aF35.0281
aF35.0281
as(I40
S'get HB1-4-biasmon[1-64]_f_rr'
p8
tp9
(lp10
F40.0293
aF40.0488
aF40.0293
aF40.0488
aF39.9902
aF39.9902
aF40.0098
aF40.0098
aF40.0488
aF40.0488
aF40.0488
aF40.0293
aF39.9902
aF39.9902
aF39.9902
aF39.9902
aF40.0488
aF40.0293
aF40.0488
aF40.0488
aF39.9902
aF39.9902
aF39.9902
aF39.9902
aF40.0293
aF40.0293
aF40.0488
aF40.0488
aF39.9902
aF39.9902
aF39.9902
aF40.0098
aF40.0293
aF40.0488
aF40.0488
aF40.0488
aF39.9902
aF39.9902
aF39.9902
aF40.0098
aF40.0488
aF40.0488
aF40.0293
aF40.0488
aF39.9902
aF40.0098
aF39.9902
aF39.9902
aF40.0293
aF40.0293
aF40.0293
aF40.0293
aF39.9902
aF39.9902
aF39.9902
aF39.9902
aF40.0293
aF40.0488
aF40.0488
aF40.0488
aF39.9902
aF39.9902
aF39.9902
aF39.9902
as(I15
S'get HB1-4-biasmon[1-64]_f_rr'
p11
tp12
(lp13
F15.0427
aF15.0623
aF15.0623
aF15.0623
aF15.0232
aF15.0427
aF15.0427
aF15.0427
aF15.0623
aF15.0623
aF15.0623
aF15.0427
aF15.0232
aF15.0427
aF15.0427
aF15.0427
aF15.0623
aF15.0427
aF15.0623
aF15.0623
aF15.0427
aF15.0427
aF15.0427
aF15.0232
aF15.0427
aF15.0623
aF15.0427
aF15.0623
aF15.0427
aF15.0427
aF15.0232
aF15.0427
aF15.0427
aF15.0427
aF15.0427
aF15.0623
aF15.0427
aF15.0427
aF15.0427
aF15.0427
aF15.0427
aF15.0623
aF15.0427
aF15.0623
aF15.0232
aF15.0427
aF15.0232
aF15.0232
aF15.0427
aF15.0623
aF15.0427
aF15.0427
aF15.0232
aF15.0427
aF15.0427
aF15.0232
aF15.0427
aF15.0623
aF15.0427
aF15.0623
aF15.0427
aF15.0427
aF15.0427
aF15.0427
as(I20
S'get HB1-4-biasmon[1-64]_f_rr'
p14
tp15
(lp16
F20.0635
aF20.0635
aF20.0635
aF20.0635
aF20.0244
aF20.044
aF20.044
aF20.044
aF20.0635
aF20.0635
aF20.0635
aF20.044
aF20.0244
aF20.044
aF20.044
aF20.044
aF20.0635
aF20.0635
aF20.0635
aF20.0635
aF20.044
aF20.0244
aF20.044
aF20.0244
aF20.044
aF20.0635
aF20.0635
aF20.0635
aF20.044
aF20.044
aF20.0244
aF20.044
aF20.0635
aF20.0635
aF20.0635
aF20.0635
aF20.044
aF20.044
aF20.044
aF20.044
aF20.0635
aF20.0635
aF20.0635
aF20.0635
aF20.0244
aF20.044
aF20.0244
aF20.044
aF20.044
aF20.0635
aF20.044
aF20.044
aF20.0244
aF20.044
aF20.044
aF20.0244
aF20.0635
aF20.0635
aF20.0635
aF20.0635
aF20.044
aF20.044
aF20.044
aF20.044
as(I30
S'get HB1-4-biasmon[1-64]_f_rr'
p17
tp18
(lp19
F30.0464
aF30.0464
aF30.0659
aF30.0659
aF30.0269
aF30.0269
aF30.0269
aF30.0269
aF30.0659
aF30.0464
aF30.0659
aF30.0464
aF30.0269
aF30.0269
aF30.0269
aF30.0269
aF30.0659
aF30.0464
aF30.0659
aF30.0659
aF30.0269
aF30.0269
aF30.0269
aF30.0269
aF30.0464
aF30.0659
aF30.0464
aF30.0659
aF30.0269
aF30.0269
aF30.0269
aF30.0269
aF30.0464
aF30.0659
aF30.0659
aF30.0659
aF30.0269
aF30.0269
aF30.0269
aF30.0269
aF30.0659
aF30.0659
aF30.0464
aF30.0659
aF30.0269
aF30.0269
aF30.0269
aF30.0269
aF30.0464
aF30.0659
aF30.0464
aF30.0464
aF30.0269
aF30.0269
aF30.0269
aF30.0073
aF30.0659
aF30.0659
aF30.0659
aF30.0659
aF30.0269
aF30.0269
aF30.0269
aF30.0269
as(I10
S'put HB1-4-biasvoltage[1-64]_f 64*10.000000'
p20
tp21
(lp22
S'OK'
p23
as(I5
S'put HB1-4-biasvoltage[1-64]_f 64*5.000000'
p24
tp25
(lp26
S'OK'
p27
as(I25
S'get HB1-4-biasmon[1-64]_f_rr'
p28
tp29
(lp30
F25.0452
aF25.0452
aF25.0647
aF25.0647
aF25.0256
aF25.0256
aF25.0256
aF25.0452
aF25.0647
aF25.0452
aF25.0647
aF25.0452
aF25.0256
aF25.0256
aF25.0256
aF25.0256
aF25.0647
aF25.0452
aF25.0647
aF25.0647
aF25.0256
aF25.0256
aF25.0256
aF25.0256
aF25.0452
aF25.0452
aF25.0452
aF25.0647
aF25.0256
aF25.0256
aF25.0256
aF25.0256
aF25.0452
aF25.0452
aF25.0452
aF25.0647
aF25.0256
aF25.0256
aF25.0256
aF25.0256
aF25.0452
aF25.0647
aF25.0452
aF25.0647
aF25.0256
aF25.0452
aF25.0256
aF25.0256
aF25.0452
aF25.0452
aF25.0452
aF25.0452
aF25.0256
aF25.0256
aF25.0256
aF25.0256
aF25.0647
aF25.0647
aF25.0452
aF25.0452
aF25.0256
aF25.0256
aF25.0256
aF25.0256
as(I30
S'get HB1-4-LeakageCurrent[1-64]_f_rr'
p31
tp32
(lp33
F6.832
aF9.272
aF6.832
aF6.832
aF3.416
aF8.052
aF10.98
aF8.784
aF4.148
aF5.856
aF7.564
aF6.1
aF7.564
aF8.296
aF10.98
aF9.516
aF5.856
aF8.784
aF5.612
aF3.416
aF10.004
aF9.272
aF10.736
aF10.004
aF9.516
aF9.272
aF8.052
aF10.248
aF8.54
aF8.296
aF10.492
aF4.148
aF9.76
aF7.564
aF9.272
aF8.54
aF7.564
aF4.88
aF10.736
aF5.368
aF6.588
aF4.392
aF6.832
aF4.88
aF6.1
aF8.052
aF11.468
aF7.32
aF6.588
aF9.76
aF8.54
aF8.784
aF9.028
aF8.296
aF6.1
aF7.076
aF4.636
aF5.368
aF5.612
aF8.296
aF9.272
aF4.148
aF8.052
aF5.612
as(I5
S'get HB1-4-biasmon[1-64]_f_rr'
p34
tp35
(lp36
F5.04029
aF5.05983
aF5.05983
aF5.05983
aF5.04029
aF5.05983
aF5.05983
aF5.05983
aF5.05983
aF5.05983
aF5.05983
aF5.04029
aF5.04029
aF5.05983
aF5.05983
aF5.05983
aF5.05983
aF5.05983
aF5.05983
aF5.05983
aF5.05983
aF5.04029
aF5.05983
aF5.05983
aF5.05983
aF5.05983
aF5.05983
aF5.05983
aF5.05983
aF5.05983
aF5.04029
aF5.05983
aF5.05983
aF5.05983
aF5.05983
aF5.05983
aF5.05983
aF5.04029
aF5.05983
aF5.05983
aF5.05983
aF5.05983
aF5.05983
aF5.05983
aF5.04029
aF5.05983
aF5.04029
aF5.04029
aF5.05983
aF5.05983
aF5.04029
aF5.04029
aF5.04029
aF5.05983
aF5.05983
aF5.04029
aF5.05983
aF5.05983
aF5.05983
aF5.05983
aF5.05983
aF5.05983
aF5.05983
aF5.05983
as(I55
S'get HB1-4-biasmon[1-64]_f_rr'
p37
tp38
(lp39
F55.033
aF55.033
aF55.033
aF55.033
aF54.9744
aF54.9939
aF54.9939
aF54.9939
aF55.033
aF55.0134
aF55.033
aF55.0134
aF54.9744
aF54.9744
aF54.9744
aF54.9939
aF55.033
aF55.0134
aF55.033
aF55.033
aF54.9744
aF54.9744
aF54.9744
aF54.9939
aF55.0134
aF55.033
aF55.033
aF55.033
aF54.9744
aF54.9744
aF54.9744
aF54.9939
aF55.033
aF55.0134
aF55.033
aF55.033
aF54.9939
aF54.9744
aF54.9744
aF54.9939
aF55.033
aF55.033
aF55.033
aF55.033
aF54.9744
aF54.9939
aF54.9744
aF54.9744
aF55.0134
aF55.033
aF55.0134
aF55.0134
aF54.9744
aF54.9744
aF54.9939
aF54.9744
aF55.033
aF55.033
aF55.033
aF55.033
aF54.9744
aF54.9744
aF54.9939
aF54.9939
as(I10
S'get HB1-4-biasmon[1-64]_f_rr'
p40
tp41
(lp42
F10.0415
aF10.0611
aF10.0611
aF10.0611
aF10.0415
aF10.0611
aF10.0611
aF10.0611
aF10.0611
aF10.0611
aF10.0611
aF10.0611
aF10.0415
aF10.0611
aF10.0415
aF10.0611
aF10.0611
aF10.0415
aF10.0611
aF10.0611
aF10.0611
aF10.0415
aF10.0611
aF10.0415
aF10.0415
aF10.0611
aF10.0611
aF10.0611
aF10.0611
aF10.0611
aF10.0415
aF10.0611
aF10.0611
aF10.0611
aF10.0611
aF10.0611
aF10.0611
aF10.0415
aF10.0415
aF10.0611
aF10.0611
aF10.0611
aF10.0611
aF10.0611
aF10.0415
aF10.0611
aF10.0415
aF10.0415
aF10.0611
aF10.0611
aF10.0415
aF10.0611
aF10.0415
aF10.0415
aF10.0611
aF10.0415
aF10.0611
aF10.0611
aF10.0611
aF10.0611
aF10.0415
aF10.0611
aF10.0611
aF10.0611
as(I40
S'get HB1-4-LeakageCurrent[1-64]_f_rr'
p43
tp44
(lp45
F8.296
aF10.98
aF8.296
aF8.296
aF4.88
aF9.516
aF12.688
aF10.248
aF5.856
aF7.564
aF9.272
aF7.564
aF9.028
aF9.76
aF12.688
aF10.98
aF7.564
aF10.492
aF7.32
aF4.88
aF11.712
aF10.736
aF12.2
aF11.956
aF10.98
aF10.736
aF9.76
aF11.956
aF10.004
aF9.76
aF11.956
aF5.612
aF11.224
aF9.272
aF10.98
aF9.76
aF9.028
aF6.344
aF12.444
aF6.832
aF8.052
aF5.856
aF8.54
aF6.588
aF7.808
aF9.516
aF12.932
aF8.784
aF8.052
aF11.468
aF10.248
aF10.492
aF10.492
aF9.76
aF7.564
aF8.54
aF6.1
aF6.832
aF7.076
aF9.76
aF10.736
aF5.856
aF9.516
aF7.32
as(I60
S'get HB1-4-biasmon[1-64]_f_rr'
p46
tp47
(lp48
F60.0342
aF60.0342
aF60.0342
aF60.0342
aF59.956
aF59.9756
aF59.9756
aF59.9756
aF60.0342
aF60.0342
aF60.0342
aF60.0147
aF59.9756
aF59.9756
aF59.9756
aF59.9756
aF60.0342
aF60.0342
aF60.0342
aF60.0537
aF59.9756
aF59.956
aF59.9756
aF59.956
aF60.0147
aF60.0342
aF60.0342
aF60.0342
aF59.9756
aF59.9756
aF59.956
aF59.9756
aF60.0342
aF60.0342
aF60.0342
aF60.0342
aF59.9756
aF59.956
aF59.9756
aF59.9756
aF60.0342
aF60.0342
aF60.0342
aF60.0342
aF59.956
aF59.9756
aF59.956
aF59.9756
aF60.0147
aF60.0342
aF60.0342
aF60.0147
aF59.9756
aF59.956
aF59.9756
aF59.956
aF60.0342
aF60.0342
aF60.0342
aF60.0342
aF59.956
aF59.9756
aF59.9756
aF59.9756
as(I35
S'get HB1-4-LeakageCurrent[1-64]_f_rr'
p49
tp50
(lp51
F7.564
aF10.004
aF7.564
aF7.564
aF4.148
aF8.784
aF11.712
aF9.516
aF4.88
aF6.832
aF8.54
aF6.832
aF8.296
aF9.028
aF11.712
aF10.248
aF6.832
aF9.76
aF6.588
aF4.148
aF10.736
aF10.004
aF11.468
aF10.98
aF10.248
aF10.004
aF9.028
aF10.98
aF9.272
aF9.028
aF11.224
aF4.88
aF10.492
aF8.54
aF10.004
aF9.272
aF8.296
aF5.612
aF11.468
aF6.1
aF7.32
aF5.124
aF7.564
aF5.612
aF6.832
aF8.784
aF12.2
aF8.052
aF7.32
aF10.492
aF9.516
aF9.516
aF9.76
aF9.272
aF6.832
aF7.564
aF5.368
aF6.1
aF6.344
aF9.028
aF10.004
aF4.88
aF8.784
aF6.344
as(I30
S'put HB1-4-biasvoltage[1-64]_f 64*30.000000'
p52
tp53
(lp54
S'OK'
p55
as(I55
S'put HB1-4-biasvoltage[1-64]_f 64*55.000000'
p56
tp57
(lp58
S'OK'
p59
as(I45
S'get HB1-4-biasmon[1-64]_f_rr'
p60
tp61
(lp62
F45.0305
aF45.0305
aF45.0305
aF45.0305
aF44.9915
aF44.9915
aF44.9915
aF44.9915
aF45.0501
aF45.0305
aF45.0305
aF45.0305
aF44.9915
aF44.9915
aF44.9915
aF44.9915
aF45.0305
aF45.0305
aF45.0305
aF45.0501
aF44.9915
aF44.9915
aF44.9915
aF44.9915
aF45.0305
aF45.0305
aF45.0305
aF45.0501
aF44.9915
aF44.9915
aF44.9915
aF44.9915
aF45.0305
aF45.0305
aF45.0305
aF45.0501
aF44.9915
aF44.9915
aF44.9915
aF44.9915
aF45.0305
aF45.0305
aF45.0305
aF45.0305
aF44.9915
aF44.9915
aF44.9915
aF44.9915
aF45.0305
aF45.0305
aF45.0305
aF45.011
aF44.9915
aF44.9915
aF44.9915
aF44.9915
aF45.0305
aF45.0305
aF45.0305
aF45.0305
aF44.9915
aF44.9915
aF44.9915
aF44.9915
as(I50
S'get HB1-4-biasmon[1-64]_f_rr'
p63
tp64
(lp65
F50.0317
aF50.0317
aF50.0317
aF50.0317
aF49.9731
aF49.9927
aF49.9927
aF49.9927
aF50.0513
aF50.0317
aF50.0513
aF50.0317
aF49.9927
aF49.9731
aF49.9927
aF49.9927
aF50.0317
aF50.0317
aF50.0317
aF50.0513
aF49.9927
aF49.9731
aF49.9927
aF49.9731
aF50.0317
aF50.0317
aF50.0317
aF50.0513
aF49.9927
aF49.9927
aF49.9731
aF49.9927
aF50.0317
aF50.0317
aF50.0317
aF50.0317
aF49.9927
aF49.9927
aF49.9927
aF49.9927
aF50.0317
aF50.0513
aF50.0317
aF50.0317
aF49.9927
aF49.9927
aF49.9731
aF49.9927
aF50.0317
aF50.0317
aF50.0317
aF50.0317
aF49.9731
aF49.9731
aF49.9927
aF49.9731
aF50.0317
aF50.0317
aF50.0317
aF50.0317
aF49.9927
aF49.9927
aF49.9927
aF49.9927
as(I0
S'get HB1-4-LeakageCurrent[1-64]_f_rr'
p66
tp67
(lp68
F2.44
aF4.636
aF1.952
aF2.196
aF1.708
aF3.66
aF6.588
aF4.148
aF1.708
aF1.708
aF2.684
aF1.708
aF2.684
aF3.416
aF6.344
aF4.88
aF1.708
aF4.392
aF1.708
aF1.708
aF5.368
aF5.368
aF6.588
aF5.124
aF4.88
aF4.88
aF3.172
aF5.368
aF3.904
aF3.904
aF6.1
aF1.708
aF5.124
aF3.172
aF4.148
aF4.392
aF3.172
aF1.708
aF6.1
aF1.708
aF2.44
aF1.708
aF2.196
aF1.708
aF1.952
aF3.416
aF6.588
aF2.928
aF1.952
aF4.636
aF3.66
aF3.66
aF4.636
aF3.416
aF2.196
aF2.684
aF1.708
aF1.708
aF1.708
aF3.416
aF4.636
aF1.708
aF3.416
aF1.708
as(I45
S'get HB1-4-LeakageCurrent[1-64]_f_rr'
p69
tp70
(lp71
F9.028
aF11.712
aF9.272
aF9.028
aF5.856
aF10.248
aF13.42
aF10.98
aF6.588
aF8.296
aF10.004
aF8.54
aF9.76
aF10.736
aF13.42
aF11.712
aF8.296
aF11.224
aF8.052
aF5.856
aF12.444
aF11.468
aF12.932
aF12.444
aF11.712
aF11.712
aF10.736
aF12.688
aF10.736
aF10.492
aF12.688
aF6.344
aF11.956
aF10.004
aF11.712
aF10.736
aF9.76
aF7.32
aF13.176
aF7.564
aF8.784
aF6.832
aF9.272
aF7.32
aF8.54
aF10.248
aF13.664
aF9.516
aF9.028
aF12.2
aF10.98
aF11.224
aF11.468
aF10.736
aF8.296
aF9.272
aF6.832
aF7.564
aF7.808
aF10.736
aF11.712
aF6.588
aF10.492
aF8.052
as(I35
S'put HB1-4-biasvoltage[1-64]_f 64*35.000000'
p72
tp73
(lp74
S'OK'
p75
as(I60
S'get HB1-4-LeakageCurrent[1-64]_f_rr'
p76
tp77
(lp78
F11.468
aF13.908
aF11.468
aF11.468
aF8.052
aF12.688
aF15.86
aF13.42
aF8.784
aF10.736
aF12.444
aF10.736
aF12.2
aF13.176
aF15.86
aF14.152
aF10.736
aF13.664
aF10.492
aF7.808
aF14.64
aF13.664
aF15.128
aF15.128
aF13.908
aF13.908
aF12.932
aF15.128
aF13.176
aF12.688
aF15.128
aF8.54
aF14.396
aF12.2
aF14.152
aF12.932
aF12.2
aF9.516
aF15.372
aF10.004
aF11.224
aF9.272
aF11.712
aF9.516
aF10.736
aF12.444
aF16.104
aF11.712
aF11.468
aF14.64
aF13.42
aF13.664
aF13.664
aF13.176
aF10.492
aF11.468
aF9.272
aF10.004
aF10.004
aF12.932
aF13.908
aF8.784
aF12.688
aF10.492
as(I0
S'get HB1-4-biasmon[1-64]_f_rr'
p79
tp80
(lp81
F0.0586081
aF0.0586081
aF0.0586081
aF0.0586081
aF0.0586081
aF0.0586081
aF0.0586081
aF0.0586081
aF0.0586081
aF0.0586081
aF0.0586081
aF0.0586081
aF0.0586081
aF0.0586081
aF0.0586081
aF0.0586081
aF0.0586081
aF0.0586081
aF0.0586081
aF0.0586081
aF0.0586081
aF0.0586081
aF0.0586081
aF0.0586081
aF0.0586081
aF0.0586081
aF0.0586081
aF0.0586081
aF0.0586081
aF0.0586081
aF0.0586081
aF0.0586081
aF0.0586081
aF0.0586081
aF0.0586081
aF0.0586081
aF0.0586081
aF0.0586081
aF0.0586081
aF0.0586081
aF0.0586081
aF0.0586081
aF0.0586081
aF0.0586081
aF0.0586081
aF0.0781441
aF0.0586081
aF0.0586081
aF0.0586081
aF0.0586081
aF0.0586081
aF0.0586081
aF0.0586081
aF0.0586081
aF0.0586081
aF0.0586081
aF0.0586081
aF0.0586081
aF0.0586081
aF0.0586081
aF0.0586081
aF0.0586081
aF0.0586081
aF0.0586081
as(I55
S'get HB1-4-LeakageCurrent[1-64]_f_rr'
p82
tp83
(lp84
F10.736
aF13.176
aF10.736
aF10.736
aF7.32
aF11.712
aF14.884
aF12.444
aF8.052
aF10.004
aF11.712
aF10.004
aF11.468
aF12.2
aF15.128
aF13.42
aF10.004
aF12.688
aF9.76
aF7.076
aF13.908
aF12.932
aF14.396
aF14.396
aF13.176
aF13.176
aF12.2
aF14.396
aF12.2
aF11.956
aF14.396
aF7.808
aF13.664
aF11.712
aF13.42
aF12.2
aF11.468
aF8.784
aF14.64
aF9.272
aF10.248
aF8.296
aF10.736
aF8.784
aF10.004
aF11.956
aF15.372
aF10.98
aF10.736
aF13.908
aF12.444
aF12.932
aF12.688
aF12.444
aF9.76
aF10.736
aF8.54
aF9.272
aF9.272
aF12.2
aF13.176
aF8.052
aF11.956
aF9.516
as(I50
S'get HB1-4-LeakageCurrent[1-64]_f_rr'
p85
tp86
(lp87
F9.76
aF12.444
aF10.004
aF10.004
aF6.344
aF10.98
aF14.152
aF11.956
aF7.32
aF9.028
aF10.736
aF9.272
aF10.736
aF11.468
aF14.152
aF12.444
aF9.028
aF11.956
aF9.028
aF6.344
aF13.176
aF12.444
aF13.664
aF13.664
aF12.444
aF12.444
aF11.468
aF13.42
aF11.712
aF11.224
aF13.664
aF7.076
aF12.688
aF10.736
aF12.688
aF11.468
aF10.736
aF8.052
aF13.908
aF8.54
aF9.516
aF7.564
aF10.004
aF8.052
aF9.272
aF11.224
aF14.64
aF10.248
aF9.76
aF13.176
aF11.712
aF11.956
aF11.956
aF11.712
aF9.028
aF10.004
aF7.808
aF8.54
aF8.54
aF11.468
aF12.444
aF7.32
aF11.224
aF8.784
as(I25
S'put HB1-4-biasvoltage[1-64]_f 64*25.000000'
p88
tp89
(lp90
S'OK'
p91
as(I50
S'put HB1-4-biasvoltage[1-64]_f 64*50.000000'
p92
tp93
(lp94
S'OK'
p95
as(I60
S'put HB1-4-biasvoltage[1-64]_f 64*60.000000'
p96
tp97
(lp98
S'OK'
p99
as(I20
S'get HB1-4-LeakageCurrent[1-64]_f_rr'
p100
tp101
(lp102
F5.368
aF7.564
aF5.124
aF5.124
aF1.952
aF6.588
aF9.516
aF7.32
aF2.684
aF4.392
aF5.856
aF4.636
aF5.856
aF6.588
aF9.516
aF7.808
aF4.392
aF7.32
aF3.904
aF2.196
aF8.54
aF7.808
aF9.272
aF8.54
aF7.808
aF7.808
aF6.588
aF8.54
aF6.832
aF6.832
aF9.028
aF2.684
aF8.052
aF6.1
aF7.564
aF7.076
aF6.1
aF3.416
aF9.272
aF3.66
aF5.124
aF2.684
aF5.368
aF3.172
aF4.636
aF6.588
aF9.76
aF5.856
aF4.88
aF8.052
aF7.076
aF7.076
aF7.564
aF6.588
aF4.636
aF5.612
aF2.928
aF3.904
aF3.904
aF6.588
aF7.808
aF2.684
aF6.588
aF3.904
as(I15
S'get HB1-4-LeakageCurrent[1-64]_f_rr'
p103
tp104
(lp105
F4.636
aF7.076
aF4.392
aF4.392
aF1.708
aF5.856
aF8.784
aF6.344
aF1.952
aF3.66
aF5.124
aF3.66
aF4.88
aF5.856
aF8.784
aF7.32
aF3.66
aF6.588
aF2.928
aF1.708
aF7.564
aF7.32
aF8.54
aF7.564
aF7.076
aF7.076
aF5.856
aF7.808
aF6.1
aF6.1
aF8.052
aF1.952
aF7.32
aF5.368
aF6.832
aF6.344
aF5.368
aF2.684
aF8.54
aF2.928
aF4.392
aF2.196
aF4.392
aF2.44
aF3.904
aF5.856
aF9.028
aF5.124
aF4.148
aF7.32
aF6.1
aF6.344
aF6.832
aF5.856
aF3.904
aF4.636
aF2.196
aF2.928
aF3.416
aF5.856
aF7.076
aF2.196
aF5.612
aF2.928
as(I40
S'put HB1-4-biasvoltage[1-64]_f 64*40.000000'
p106
tp107
(lp108
S'OK'
p109
as(I25
S'get HB1-4-LeakageCurrent[1-64]_f_rr'
p110
tp111
(lp112
F6.1
aF8.54
aF5.856
aF5.856
aF2.684
aF7.32
aF10.248
aF8.052
aF3.416
aF5.124
aF6.832
aF5.368
aF6.588
aF7.564
aF10.248
aF8.54
aF5.124
aF8.052
aF4.636
aF2.928
aF9.272
aF8.54
aF10.004
aF9.272
aF8.54
aF8.54
aF7.32
aF9.516
aF7.564
aF7.564
aF9.76
aF3.416
aF8.784
aF6.832
aF8.54
aF7.564
aF6.832
aF4.148
aF10.004
aF4.636
aF5.856
aF3.66
aF6.1
aF3.904
aF5.612
aF7.32
aF10.492
aF6.588
aF5.856
aF9.028
aF7.808
aF7.808
aF8.296
aF7.564
aF5.368
aF6.1
aF3.66
aF4.636
aF4.636
aF7.564
aF8.54
aF3.416
aF7.32
aF4.636
as(I10
S'get HB1-4-LeakageCurrent[1-64]_f_rr'
p113
tp114
(lp115
F3.904
aF6.344
aF3.66
aF3.66
aF1.464
aF4.88
aF8.052
aF5.856
aF1.708
aF2.928
aF4.392
aF3.172
aF4.148
aF4.88
aF8.052
aF6.1
aF2.928
aF5.856
aF2.196
aF1.708
aF6.832
aF6.344
aF7.808
aF6.832
aF6.344
aF6.1
aF4.88
aF7.076
aF5.368
aF5.124
aF7.32
aF1.708
aF6.832
aF4.636
aF5.856
aF5.612
aF4.392
aF1.952
aF7.564
aF2.196
aF3.66
aF1.708
aF3.66
aF1.952
aF3.172
aF4.88
aF8.052
aF4.636
aF3.416
aF6.344
aF5.368
aF5.124
aF6.344
aF5.368
aF3.416
aF4.148
aF1.708
aF2.684
aF2.684
aF4.88
aF6.344
aF1.708
aF4.88
aF2.196
as(I5
S'get HB1-4-LeakageCurrent[1-64]_f_rr'
p116
tp117
(lp118
F3.416
aF5.612
aF2.928
aF3.172
aF1.708
aF3.904
aF7.564
aF5.124
aF1.708
aF2.196
aF3.172
aF2.196
aF3.66
aF4.392
aF6.832
aF5.856
aF2.44
aF5.124
aF1.708
aF1.708
aF5.856
aF5.612
aF7.32
aF6.1
aF5.856
aF5.368
aF4.392
aF6.1
aF4.636
aF4.636
aF6.832
aF1.708
aF6.1
aF3.904
aF5.124
aF5.368
aF4.148
aF1.708
aF7.076
aF1.952
aF2.928
aF1.708
aF2.684
aF1.708
aF2.684
aF4.636
aF7.32
aF3.416
aF2.928
aF5.856
aF5.124
aF4.636
aF5.368
aF3.904
aF2.928
aF3.172
aF1.708
aF1.952
aF2.196
aF4.148
aF5.612
aF1.708
aF4.392
aF1.708
as(I15
S'put HB1-4-biasvoltage[1-64]_f 64*15.000000'
p119
tp120
(lp121
S'OK'
p122
as(I45
S'put HB1-4-biasvoltage[1-64]_f 64*45.000000'
p123
tp124
(lp125
S'OK'
p126
as(I20
S'put HB1-4-biasvoltage[1-64]_f 64*20.000000'
p127
tp128
(lp129
S'OK'
p130
as.