(dp0
(I10
S'put HB1-1-biasvoltage[1-64]_f 64*10.000000'
p1
tp2
(lp3
S'OK'
p4
as(I35
S'put HB1-1-biasvoltage[1-64]_f 64*35.000000'
p5
tp6
(lp7
S'OK'
p8
as(I30
S'get HB1-1-LeakageCurrent[1-64]_f_rr'
p9
tp10
(lp11
F9.272
aF8.784
aF10.248
aF4.636
aF5.368
aF6.588
aF5.856
aF6.588
aF9.76
aF6.344
aF10.736
aF7.564
aF11.468
aF10.736
aF7.564
aF6.588
aF10.004
aF6.588
aF4.636
aF5.368
aF9.76
aF7.32
aF7.808
aF4.148
aF7.564
aF5.612
aF7.808
aF7.564
aF5.124
aF5.612
aF3.416
aF5.368
aF6.588
aF8.296
aF9.76
aF3.416
aF7.564
aF5.124
aF7.32
aF6.832
aF6.588
aF5.124
aF3.904
aF5.368
aF5.612
aF11.468
aF9.272
aF11.468
aF8.54
aF6.588
aF12.444
aF12.2
aF5.856
aF4.636
aF5.368
aF6.588
aF5.124
aF10.004
aF6.832
aF13.908
aF7.808
aF4.392
aF4.636
aF11.224
as(I50
S'put HB1-1-biasvoltage[1-64]_f 64*50.000000'
p12
tp13
(lp14
S'OK'
p15
as(I40
S'get HB1-1-LeakageCurrent[1-64]_f_rr'
p16
tp17
(lp18
F10.98
aF10.492
aF11.956
aF5.856
aF6.832
aF8.052
aF7.32
aF8.052
aF11.224
aF7.808
aF12.444
aF9.028
aF13.176
aF12.444
aF9.272
aF8.052
aF11.468
aF8.052
aF6.1
aF6.832
aF11.224
aF8.54
aF9.516
aF5.856
aF9.028
aF7.076
aF9.272
aF9.272
aF6.832
aF7.32
aF4.636
aF6.832
aF8.052
aF9.76
aF11.224
aF4.88
aF9.028
aF6.832
aF8.784
aF8.54
aF8.052
aF6.832
aF5.612
aF6.832
aF6.832
aF12.932
aF10.98
aF13.176
aF10.004
aF8.052
aF13.908
aF13.908
aF7.32
aF6.1
aF6.832
aF8.052
aF6.832
aF11.712
aF8.54
aF15.372
aF9.272
aF5.856
aF6.1
aF12.688
as(I15
S'get HB1-1-LeakageCurrent[1-64]_f_rr'
p19
tp20
(lp21
F7.076
aF6.588
aF7.808
aF2.684
aF2.928
aF4.392
aF3.416
aF4.148
aF7.564
aF3.904
aF8.296
aF5.124
aF9.028
aF8.54
aF5.368
aF4.148
aF7.564
aF4.392
aF2.684
aF3.172
aF7.564
aF4.88
aF5.856
aF2.196
aF5.124
aF3.172
aF5.612
aF5.612
aF2.928
aF3.416
aF1.708
aF2.928
aF4.392
aF6.1
aF7.564
aF1.708
aF5.612
aF2.928
aF5.124
aF4.636
aF4.392
aF2.928
aF1.952
aF2.928
aF3.172
aF9.272
aF7.076
aF9.272
aF6.1
aF4.148
aF10.004
aF9.76
aF3.416
aF2.196
aF3.172
aF4.392
aF2.928
aF7.564
aF4.636
aF11.712
aF5.612
aF2.196
aF2.684
aF8.784
as(I55
S'put HB1-1-biasvoltage[1-64]_f 64*55.000000'
p22
tp23
(lp24
S'OK'
p25
as(I30
S'get HB1-1-biasmon[1-64]_f_rr'
p26
tp27
(lp28
F29.9683
aF29.9487
aF29.9487
aF29.9487
aF29.9683
aF29.9487
aF29.9683
aF29.9683
aF29.9487
aF29.9487
aF29.9487
aF29.9487
aF29.9487
aF29.9683
aF29.9683
aF29.9487
aF29.9487
aF29.9487
aF29.9487
aF29.9487
aF29.9487
aF29.9683
aF29.9487
aF29.9683
aF29.9487
aF29.9683
aF29.9683
aF29.9487
aF29.9487
aF29.9683
aF29.9487
aF29.9683
aF29.9487
aF29.9683
aF29.9487
aF29.9487
aF29.9487
aF29.9487
aF29.9683
aF29.9683
aF29.9487
aF29.9487
aF29.9487
aF29.9487
aF29.9487
aF29.9487
aF29.9487
aF29.9487
aF29.9487
aF29.9487
aF29.9487
aF29.9683
aF29.9683
aF29.9683
aF29.9683
aF29.9683
aF29.9487
aF29.9487
aF29.9487
aF29.9487
aF29.9487
aF29.9487
aF29.9683
aF29.9487
as(I5
S'get HB1-1-LeakageCurrent[1-64]_f_rr'
p29
tp30
(lp31
F5.368
aF4.88
aF6.588
aF1.708
aF1.708
aF2.684
aF2.196
aF2.684
aF5.856
aF2.928
aF6.588
aF3.904
aF7.32
aF6.832
aF3.66
aF2.928
aF6.1
aF2.684
aF1.708
aF1.952
aF6.1
aF3.66
aF3.904
aF1.708
aF3.66
aF2.196
aF4.148
aF3.66
aF2.196
aF2.44
aF1.708
aF1.708
aF3.172
aF4.392
aF6.1
aF1.708
aF3.904
aF1.952
aF3.66
aF3.416
aF3.172
aF1.952
aF1.708
aF1.708
aF1.952
aF7.32
aF5.856
aF8.052
aF4.88
aF2.684
aF7.808
aF8.296
aF2.196
aF1.708
aF1.952
aF2.928
aF1.952
aF5.856
aF2.928
aF10.492
aF4.148
aF1.708
aF1.708
aF7.076
as(I40
S'get HB1-1-biasmon[1-64]_f_rr'
p32
tp33
(lp34
F39.9121
aF39.9121
aF39.9121
aF39.9121
aF39.9121
aF39.9121
aF39.9121
aF39.9121
aF39.9121
aF39.9121
aF39.9121
aF39.8926
aF39.8926
aF39.9121
aF39.9121
aF39.9121
aF39.9121
aF39.8926
aF39.8926
aF39.9121
aF39.9121
aF39.9121
aF39.9121
aF39.9121
aF39.9121
aF39.9121
aF39.9121
aF39.8926
aF39.9121
aF39.9316
aF39.8926
aF39.9121
aF39.8926
aF39.9121
aF39.8926
aF39.9121
aF39.9121
aF39.9121
aF39.9121
aF39.9121
aF39.8926
aF39.8926
aF39.8926
aF39.8926
aF39.9121
aF39.9121
aF39.9121
aF39.9121
aF39.8926
aF39.9121
aF39.9121
aF39.9121
aF39.9121
aF39.9121
aF39.9121
aF39.9121
aF39.8926
aF39.9121
aF39.9121
aF39.8926
aF39.8926
aF39.8926
aF39.9121
aF39.9121
as(I60
S'put HB1-1-biasvoltage[1-64]_f 64*60.000000'
p35
tp36
(lp37
S'OK'
p38
as(I35
S'get HB1-1-biasmon[1-64]_f_rr'
p39
tp40
(lp41
F34.9304
aF34.9499
aF34.9304
aF34.9304
aF34.9499
aF34.9304
aF34.9499
aF34.9499
aF34.9499
aF34.9304
aF34.9304
aF34.9304
aF34.9304
aF34.9499
aF34.9499
aF34.9499
aF34.9499
aF34.9304
aF34.9304
aF34.9499
aF34.9304
aF34.9499
aF34.9304
aF34.9499
aF34.9499
aF34.9499
aF34.9304
aF34.9304
aF34.9304
aF34.9499
aF34.9304
aF34.9499
aF34.9304
aF34.9499
aF34.9304
aF34.9304
aF34.9304
aF34.9304
aF34.9695
aF34.9499
aF34.9304
aF34.9304
aF34.9304
aF34.9304
aF34.9499
aF34.9304
aF34.9304
aF34.9499
aF34.9304
aF34.9304
aF34.9304
aF34.9499
aF34.9499
aF34.9499
aF34.9304
aF34.9499
aF34.9304
aF34.9304
aF34.9304
aF34.9304
aF34.9304
aF34.9499
aF34.9499
aF34.9304
as(I25
S'get HB1-1-biasmon[1-64]_f_rr'
p42
tp43
(lp44
F24.967
aF24.967
aF24.967
aF24.967
aF24.9866
aF24.967
aF24.9866
aF24.9866
aF24.967
aF24.967
aF24.967
aF24.967
aF24.967
aF24.9866
aF24.9866
aF24.967
aF24.9866
aF24.967
aF24.967
aF24.967
aF24.967
aF24.967
aF24.967
aF24.9866
aF24.967
aF24.967
aF24.967
aF24.967
aF24.967
aF24.9866
aF24.967
aF24.9866
aF24.967
aF24.9866
aF24.967
aF24.967
aF24.967
aF24.967
aF24.9866
aF24.9866
aF24.967
aF24.967
aF24.967
aF24.967
aF24.967
aF24.967
aF24.967
aF24.967
aF24.967
aF24.967
aF24.967
aF24.9866
aF24.967
aF24.9866
aF24.967
aF24.9866
aF24.967
aF24.967
aF24.967
aF24.967
aF24.967
aF24.9866
aF24.967
aF24.967
as(I0
S'get HB1-1-LeakageCurrent[1-64]_f_rr'
p45
tp46
(lp47
F4.636
aF4.148
aF5.368
aF1.708
aF1.708
aF2.196
aF1.708
aF2.196
aF5.612
aF1.952
aF5.856
aF2.928
aF6.588
aF6.344
aF2.928
aF1.952
aF5.612
aF2.196
aF1.708
aF1.708
aF5.124
aF2.928
aF3.416
aF1.708
aF2.928
aF1.708
aF3.416
aF3.416
aF1.708
aF1.708
aF1.708
aF1.708
aF2.196
aF3.904
aF5.124
aF1.708
aF3.416
aF1.708
aF2.928
aF2.684
aF2.44
aF1.708
aF1.708
aF1.708
aF1.708
aF6.832
aF4.88
aF6.832
aF3.904
aF1.952
aF7.076
aF7.32
aF1.708
aF1.708
aF1.708
aF2.196
aF1.708
aF5.124
aF2.44
aF9.516
aF3.416
aF1.708
aF1.708
aF6.588
as(I20
S'put HB1-1-biasvoltage[1-64]_f 64*20.000000'
p48
tp49
(lp50
S'OK'
p51
as(I15
S'put HB1-1-biasvoltage[1-64]_f 64*15.000000'
p52
tp53
(lp54
S'OK'
p55
as(I0
S'put HB1-1-biasvoltage[1-64]_f 64*0.000000'
p56
tp57
(lp58
S'OK'
p59
as(I40
S'put HB1-1-biasvoltage[1-64]_f 64*40.000000'
p60
tp61
(lp62
S'OK'
p63
as(I60
S'get HB1-1-LeakageCurrent[1-64]_f_rr'
p64
tp65
(lp66
F13.908
aF13.42
aF15.372
aF8.784
aF9.76
aF11.224
aF10.248
aF11.224
aF14.152
aF10.98
aF15.372
aF12.2
aF16.104
aF15.372
aF12.444
aF11.224
aF14.64
aF11.224
aF9.272
aF9.76
aF14.64
aF11.712
aF12.444
aF8.784
aF12.2
aF10.004
aF12.444
aF12.2
aF9.76
aF10.248
aF7.808
aF9.76
aF11.224
aF12.932
aF14.396
aF8.052
aF12.2
aF9.76
aF11.956
aF11.712
aF11.224
aF9.76
aF8.54
aF10.004
aF10.004
aF15.86
aF13.908
aF16.104
aF13.176
aF11.224
aF17.324
aF17.08
aF10.492
aF9.028
aF10.004
aF11.224
aF10.004
aF14.884
aF11.468
aF18.544
aF12.444
aF9.272
aF9.272
aF15.86
as(I50
S'get HB1-1-LeakageCurrent[1-64]_f_rr'
p67
tp68
(lp69
F12.444
aF11.956
aF13.664
aF7.564
aF8.296
aF9.516
aF8.784
aF9.76
aF12.688
aF9.516
aF13.908
aF10.492
aF14.64
aF13.908
aF10.736
aF9.76
aF12.932
aF9.516
aF7.564
aF8.296
aF12.932
aF10.248
aF10.98
aF7.32
aF10.736
aF8.54
aF10.98
aF10.736
aF8.296
aF8.784
aF6.344
aF8.296
aF9.76
aF11.468
aF12.688
aF6.588
aF10.736
aF8.296
aF10.492
aF10.004
aF9.76
aF8.296
aF6.832
aF8.296
aF8.54
aF14.396
aF12.444
aF14.64
aF11.712
aF9.516
aF15.616
aF15.372
aF8.784
aF7.564
aF8.54
aF9.516
aF8.296
aF13.176
aF10.004
aF17.08
aF10.736
aF7.564
aF7.564
aF14.396
as(I35
S'get HB1-1-LeakageCurrent[1-64]_f_rr'
p70
tp71
(lp72
F10.004
aF9.76
aF11.224
aF5.368
aF6.1
aF7.32
aF6.588
aF7.564
aF10.492
aF7.076
aF11.468
aF8.296
aF12.444
aF11.712
aF8.296
aF7.32
aF10.736
aF7.32
aF5.612
aF6.1
aF10.492
aF8.052
aF8.54
aF5.124
aF8.296
aF6.1
aF8.54
aF8.54
aF5.856
aF6.588
aF4.148
aF6.1
aF7.32
aF9.272
aF10.492
aF4.148
aF8.54
aF5.856
aF8.052
aF7.808
aF7.564
aF5.856
aF4.636
aF6.1
aF6.1
aF12.2
aF10.004
aF12.444
aF9.272
aF7.32
aF13.176
aF12.932
aF6.588
aF5.368
aF6.344
aF7.32
aF6.1
aF10.736
aF7.564
aF14.64
aF8.54
aF5.124
aF5.612
aF11.956
as(I25
S'put HB1-1-biasvoltage[1-64]_f 64*25.000000'
p73
tp74
(lp75
S'OK'
p76
as(I50
S'get HB1-1-biasmon[1-64]_f_rr'
p77
tp78
(lp79
F49.8559
aF49.8559
aF49.8364
aF49.8559
aF49.8559
aF49.8559
aF49.8559
aF49.8559
aF49.8559
aF49.8559
aF49.8559
aF49.8364
aF49.8559
aF49.8559
aF49.8755
aF49.8559
aF49.8559
aF49.8364
aF49.8559
aF49.8559
aF49.8559
aF49.8559
aF49.8559
aF49.8755
aF49.8559
aF49.8559
aF49.8559
aF49.8364
aF49.8559
aF49.8755
aF49.8364
aF49.8755
aF49.8559
aF49.8559
aF49.8559
aF49.8559
aF49.8559
aF49.8559
aF49.8755
aF49.8559
aF49.8364
aF49.8364
aF49.8559
aF49.8559
aF49.8559
aF49.8559
aF49.8364
aF49.8559
aF49.8364
aF49.8559
aF49.8559
aF49.8755
aF49.8559
aF49.8755
aF49.8559
aF49.8559
aF49.8364
aF49.8364
aF49.8559
aF49.8364
aF49.8559
aF49.8559
aF49.8559
aF49.8559
as(I20
S'get HB1-1-LeakageCurrent[1-64]_f_rr'
p80
tp81
(lp82
F7.808
aF7.32
aF8.784
aF3.172
aF3.66
aF4.88
aF4.148
aF5.124
aF8.296
aF4.636
aF9.028
aF5.856
aF9.76
aF9.272
aF6.1
aF4.88
aF8.54
aF5.124
aF3.172
aF3.904
aF8.052
aF5.856
aF6.588
aF2.928
aF5.856
aF3.904
aF6.344
aF6.1
aF3.66
aF4.148
aF1.952
aF3.66
aF5.124
aF6.832
aF8.052
aF2.196
aF6.1
aF3.66
aF5.856
aF5.368
aF5.124
aF3.66
aF2.44
aF3.66
aF3.904
aF9.76
aF7.808
aF10.004
aF6.832
aF4.88
aF10.736
aF10.736
aF4.148
aF2.928
aF3.904
aF5.124
aF3.66
aF8.296
aF5.368
aF12.444
aF6.1
aF2.928
aF3.172
aF9.76
as(I0
S'get HB1-1-biasmon[1-64]_f_rr'
p83
tp84
(lp85
F0.0586081
aF0.0586081
aF0.0586081
aF0.0586081
aF0.0586081
aF0.0586081
aF0.0586081
aF0.0586081
aF0.0586081
aF0.0586081
aF0.0586081
aF0.0586081
aF0.0586081
aF0.0586081
aF0.0586081
aF0.0586081
aF0.0586081
aF0.0586081
aF0.0586081
aF0.0586081
aF0.0586081
aF0.0586081
aF0.0586081
aF0.0586081
aF0.0586081
aF0.0586081
aF0.0586081
aF0.0586081
aF0.0586081
aF0.0586081
aF0.0586081
aF0.0586081
aF0.0586081
aF0.0586081
aF0.0586081
aF0.0586081
aF0.0586081
aF0.0586081
aF0.0586081
aF0.0586081
aF0.0586081
aF0.0586081
aF0.0586081
aF0.0586081
aF0.0586081
aF0.0586081
aF0.0586081
aF0.0586081
aF0.0586081
aF0.0586081
aF0.0586081
aF0.0586081
aF0.0586081
aF0.0586081
aF0.0586081
aF0.0586081
aF0.0586081
aF0.0586081
aF0.0586081
aF0.0586081
aF0.0586081
aF0.0586081
aF0.0586081
aF0.0586081
as(I45
S'get HB1-1-biasmon[1-64]_f_rr'
p86
tp87
(lp88
F44.8742
aF44.8742
aF44.8742
aF44.8742
aF44.8938
aF44.8742
aF44.8742
aF44.8938
aF44.8742
aF44.8742
aF44.8742
aF44.8547
aF44.8742
aF44.8742
aF44.8742
aF44.8742
aF44.8742
aF44.8742
aF44.8742
aF44.8742
aF44.8742
aF44.8742
aF44.8742
aF44.8742
aF44.8742
aF44.8742
aF44.8742
aF44.8547
aF44.8742
aF44.8938
aF44.8547
aF44.8742
aF44.8742
aF44.8742
aF44.8742
aF44.8742
aF44.8742
aF44.8742
aF44.8938
aF44.8742
aF44.8742
aF44.8547
aF44.8742
aF44.8742
aF44.8742
aF44.8742
aF44.8742
aF44.8742
aF44.8547
aF44.8742
aF44.8742
aF44.8742
aF44.8742
aF44.8938
aF44.8742
aF44.8742
aF44.8742
aF44.8547
aF44.8742
aF44.8547
aF44.8547
aF44.8742
aF44.8742
aF44.8742
as(I5
S'put HB1-1-biasvoltage[1-64]_f 64*5.000000'
p89
tp90
(lp91
S'OK'
p92
as(I10
S'get HB1-1-LeakageCurrent[1-64]_f_rr'
p93
tp94
(lp95
F5.856
aF5.612
aF6.832
aF1.952
aF2.196
aF3.416
aF2.684
aF3.416
aF7.076
aF3.172
aF7.564
aF4.636
aF8.052
aF7.808
aF4.392
aF3.416
aF7.076
aF3.416
aF1.952
aF2.44
aF6.588
aF4.392
aF4.636
aF1.952
aF4.392
aF2.44
aF4.88
aF4.88
aF2.684
aF2.684
aF1.708
aF2.44
aF3.416
aF5.612
aF6.588
aF1.708
aF4.636
aF2.44
aF4.636
aF3.904
aF3.904
aF2.196
aF1.708
aF2.44
aF2.684
aF8.052
aF6.588
aF8.54
aF5.368
aF3.172
aF8.784
aF9.028
aF2.928
aF1.952
aF2.684
aF3.416
aF2.196
aF6.832
aF4.148
aF10.98
aF4.636
aF1.708
aF1.952
aF7.808
as(I60
S'get HB1-1-biasmon[1-64]_f_rr'
p96
tp97
(lp98
F59.8193
aF59.8193
aF59.8193
aF59.8193
aF59.8388
aF59.8193
aF59.8388
aF59.8193
aF59.8193
aF59.8193
aF59.8193
aF59.7998
aF59.8193
aF59.8193
aF59.8193
aF59.8388
aF59.8193
aF59.8193
aF59.8193
aF59.8193
aF59.8193
aF59.8193
aF59.8193
aF59.8193
aF59.8193
aF59.8388
aF59.8193
aF59.7998
aF59.8193
aF59.8388
aF59.7998
aF59.8388
aF59.8193
aF59.8388
aF59.8193
aF59.8193
aF59.8193
aF59.8193
aF59.8388
aF59.8388
aF59.7998
aF59.7998
aF59.7998
aF59.8193
aF59.8193
aF59.8193
aF59.8193
aF59.8193
aF59.7998
aF59.8193
aF59.8193
aF59.8388
aF59.8388
aF59.8388
aF59.8193
aF59.8193
aF59.8193
aF59.8193
aF59.8193
aF59.8193
aF59.8193
aF59.8193
aF59.8193
aF59.8193
as(I10
S'get HB1-1-biasmon[1-64]_f_rr'
p99
tp100
(lp101
F10.022
aF10.022
aF10.022
aF10.022
aF10.0415
aF10.022
aF10.022
aF10.0415
aF10.022
aF10.022
aF10.022
aF10.022
aF10.022
aF10.022
aF10.022
aF10.022
aF10.022
aF10.022
aF10.022
aF10.022
aF10.022
aF10.022
aF10.022
aF10.022
aF10.022
aF10.022
aF10.022
aF10.022
aF10.022
aF10.0415
aF10.022
aF10.022
aF10.022
aF10.022
aF10.022
aF10.022
aF10.022
aF10.022
aF10.0415
aF10.022
aF10.022
aF10.022
aF10.022
aF10.022
aF10.022
aF10.022
aF10.022
aF10.022
aF10.022
aF10.022
aF10.022
aF10.022
aF10.022
aF10.022
aF10.022
aF10.022
aF10.022
aF10.022
aF10.022
aF10.022
aF10.022
aF10.022
aF10.022
aF10.022
as(I55
S'get HB1-1-biasmon[1-64]_f_rr'
p102
tp103
(lp104
F54.8376
aF54.8376
aF54.8376
aF54.8376
aF54.8571
aF54.8376
aF54.8571
aF54.8571
aF54.8376
aF54.8376
aF54.8376
aF54.8181
aF54.8181
aF54.8376
aF54.8571
aF54.8376
aF54.8376
aF54.8376
aF54.8376
aF54.8376
aF54.8571
aF54.8376
aF54.8376
aF54.8571
aF54.8376
aF54.8376
aF54.8376
aF54.8181
aF54.8376
aF54.8571
aF54.8181
aF54.8571
aF54.8376
aF54.8571
aF54.8181
aF54.8376
aF54.8376
aF54.8376
aF54.8571
aF54.8571
aF54.8181
aF54.8181
aF54.8376
aF54.8376
aF54.8376
aF54.8376
aF54.8376
aF54.8376
aF54.8376
aF54.8376
aF54.8376
aF54.8571
aF54.8571
aF54.8571
aF54.8376
aF54.8376
aF54.8376
aF54.8376
aF54.8376
aF54.8376
aF54.8376
aF54.8376
aF54.8376
aF54.8376
as(I5
S'get HB1-1-biasmon[1-64]_f_rr'
p105
tp106
(lp107
F5.04029
aF5.04029
aF5.04029
aF5.04029
aF5.04029
aF5.04029
aF5.04029
aF5.04029
aF5.04029
aF5.04029
aF5.04029
aF5.04029
aF5.02076
aF5.04029
aF5.04029
aF5.04029
aF5.04029
aF5.04029
aF5.02076
aF5.04029
aF5.04029
aF5.04029
aF5.04029
aF5.04029
aF5.04029
aF5.04029
aF5.04029
aF5.04029
aF5.02076
aF5.04029
aF5.02076
aF5.04029
aF5.04029
aF5.05983
aF5.04029
aF5.04029
aF5.04029
aF5.04029
aF5.04029
aF5.04029
aF5.02076
aF5.04029
aF5.04029
aF5.04029
aF5.04029
aF5.04029
aF5.04029
aF5.04029
aF5.02076
aF5.04029
aF5.04029
aF5.04029
aF5.04029
aF5.04029
aF5.04029
aF5.04029
aF5.04029
aF5.04029
aF5.04029
aF5.04029
aF5.04029
aF5.04029
aF5.04029
aF5.04029
as(I25
S'get HB1-1-LeakageCurrent[1-64]_f_rr'
p108
tp109
(lp110
F8.54
aF8.052
aF9.516
aF3.904
aF4.636
aF5.856
aF4.88
aF5.856
aF9.028
aF5.612
aF9.76
aF6.832
aF10.736
aF10.004
aF6.832
aF5.856
aF9.272
aF5.856
aF3.904
aF4.636
aF9.028
aF6.588
aF7.32
aF3.66
aF6.832
aF4.636
aF7.076
aF6.832
aF4.636
aF4.88
aF2.684
aF4.636
aF5.856
aF7.564
aF9.028
aF2.684
aF6.832
aF4.392
aF6.588
aF6.1
aF5.856
aF4.392
aF3.172
aF4.636
aF4.636
aF10.492
aF8.54
aF10.736
aF7.564
aF5.612
aF11.712
aF11.468
aF4.88
aF3.66
aF4.636
aF5.856
aF4.636
aF9.272
aF6.1
aF13.176
aF6.832
aF3.66
aF3.904
aF10.492
as(I55
S'get HB1-1-LeakageCurrent[1-64]_f_rr'
p111
tp112
(lp113
F13.176
aF12.688
aF14.396
aF8.296
aF9.272
aF10.492
aF9.516
aF10.492
aF13.42
aF10.248
aF14.64
aF11.468
aF15.372
aF14.64
aF11.712
aF10.492
aF13.908
aF10.492
aF8.54
aF9.028
aF13.664
aF10.98
aF11.712
aF8.052
aF11.224
aF9.272
aF11.712
aF11.468
aF9.028
aF9.516
aF7.076
aF9.028
aF10.492
aF12.2
aF13.664
aF7.32
aF11.468
aF9.028
aF11.224
aF10.736
aF10.492
aF9.028
aF7.808
aF9.272
aF9.272
aF15.128
aF13.176
aF15.372
aF12.444
aF10.492
aF16.348
aF16.348
aF9.516
aF8.296
aF9.272
aF10.492
aF9.272
aF13.908
aF10.736
aF17.812
aF11.712
aF8.54
aF8.54
aF15.128
as(I30
S'put HB1-1-biasvoltage[1-64]_f 64*30.000000'
p114
tp115
(lp116
S'OK'
p117
as(I45
S'put HB1-1-biasvoltage[1-64]_f 64*45.000000'
p118
tp119
(lp120
S'OK'
p121
as(I20
S'get HB1-1-biasmon[1-64]_f_rr'
p122
tp123
(lp124
F19.9853
aF19.9853
aF19.9853
aF19.9853
aF19.9853
aF19.9853
aF19.9853
aF19.9853
aF19.9853
aF19.9853
aF19.9853
aF19.9853
aF19.9853
aF19.9853
aF19.9853
aF19.9853
aF19.9853
aF19.9853
aF19.9853
aF19.9853
aF19.9853
aF19.9853
aF19.9853
aF19.9853
aF19.9853
aF19.9853
aF19.9853
aF19.9853
aF19.9853
aF19.9853
aF19.9853
aF19.9853
aF19.9853
aF19.9853
aF19.9853
aF19.9853
aF19.9853
aF19.9853
aF19.9853
aF19.9853
aF19.9853
aF19.9853
aF19.9853
aF19.9853
aF19.9853
aF19.9853
aF19.9853
aF19.9853
aF19.9853
aF19.9853
aF19.9853
aF19.9853
aF19.9853
aF19.9853
aF19.9853
aF19.9853
aF19.9853
aF19.9853
aF19.9853
aF19.9853
aF19.9853
aF19.9853
aF19.9853
aF19.9853
as(I45
S'get HB1-1-LeakageCurrent[1-64]_f_rr'
p125
tp126
(lp127
F11.712
aF11.224
aF12.688
aF6.832
aF7.564
aF8.784
aF8.052
aF9.028
aF11.956
aF8.784
aF13.176
aF9.76
aF13.908
aF13.176
aF10.004
aF8.784
aF12.444
aF8.784
aF7.076
aF7.564
aF12.2
aF9.516
aF10.004
aF6.588
aF9.76
aF7.808
aF10.004
aF10.004
aF7.564
aF8.052
aF5.856
aF7.564
aF8.784
aF10.736
aF11.956
aF5.856
aF9.76
aF7.564
aF9.516
aF9.272
aF9.028
aF7.564
aF6.1
aF7.564
aF7.564
aF13.664
aF11.712
aF13.908
aF10.98
aF8.784
aF14.884
aF14.64
aF8.052
aF6.832
aF7.564
aF9.028
aF7.564
aF12.444
aF9.272
aF16.348
aF10.004
aF6.832
aF7.076
aF13.664
as(I15
S'get HB1-1-biasmon[1-64]_f_rr'
p128
tp129
(lp130
F15.0037
aF15.0037
aF15.0037
aF15.0037
aF15.0232
aF15.0037
aF15.0037
aF15.0232
aF15.0037
aF15.0037
aF15.0037
aF15.0037
aF15.0037
aF15.0037
aF15.0232
aF15.0037
aF15.0037
aF15.0037
aF15.0037
aF15.0037
aF15.0037
aF15.0037
aF15.0037
aF15.0037
aF15.0232
aF15.0037
aF15.0037
aF15.0037
aF15.0037
aF15.0232
aF15.0037
aF15.0232
aF15.0037
aF15.0232
aF15.0037
aF15.0037
aF15.0037
aF15.0037
aF15.0232
aF15.0232
aF15.0037
aF15.0037
aF15.0037
aF15.0037
aF15.0037
aF15.0037
aF15.0037
aF15.0037
aF15.0037
aF15.0037
aF15.0037
aF15.0037
aF15.0037
aF15.0037
aF15.0037
aF15.0037
aF15.0037
aF15.0037
aF15.0037
aF15.0037
aF15.0037
aF15.0037
aF15.0037
aF15.0037
as.