(dp0
(I55
S'put HB13-1-biasvoltage[1-64]_f 64*55.000000'
p1
tp2
(lp3
S'OK'
p4
as(I60
S'put HB13-1-biasvoltage[1-64]_f 64*60.000000'
p5
tp6
(lp7
S'OK'
p8
as(I50
S'put HB13-1-biasvoltage[1-64]_f 64*50.000000'
p9
tp10
(lp11
S'OK'
p12
as(I5
S'get HB13-1-LeakageCurrent[1-64]_f_rr'
p13
tp14
(lp15
F2.684
aF5.368
aF2.684
aF2.928
aF4.88
aF4.636
aF2.196
aF2.44
aF2.928
aF2.684
aF1.708
aF2.196
aF5.124
aF5.368
aF5.368
aF1.708
aF2.684
aF7.32
aF6.588
aF6.832
aF1.952
aF6.1
aF7.076
aF1.708
aF6.832
aF5.612
aF2.44
aF3.172
aF2.928
aF1.952
aF4.88
aF5.856
aF2.928
aF1.708
aF5.612
aF4.392
aF1.708
aF1.708
aF1.708
aF2.928
aF6.1
aF7.076
aF2.44
aF2.928
aF3.416
aF2.196
aF1.708
aF4.148
aF3.172
aF4.636
aF2.928
aF2.196
aF4.148
aF1.708
aF1.952
aF3.66
aF3.66
aF2.196
aF7.564
aF5.856
aF2.928
aF2.44
aF5.124
aF1.952
as(I35
S'put HB13-1-biasvoltage[1-64]_f 64*35.000000'
p16
tp17
(lp18
S'OK'
p19
as(I40
S'get HB13-1-biasmon[1-64]_f_rr'
p20
tp21
(lp22
F40.0488
aF40.0684
aF40.0488
aF40.0488
aF40.0488
aF40.0488
aF40.0488
aF40.0488
aF40.0488
aF40.0488
aF40.0684
aF40.0488
aF40.0488
aF40.0488
aF40.0488
aF40.0488
aF40.0488
aF40.0488
aF40.0488
aF40.0488
aF40.0488
aF40.0488
aF40.0488
aF40.0293
aF40.0488
aF40.0684
aF40.0488
aF40.0488
aF40.0293
aF40.0488
aF40.0488
aF40.0488
aF40.0488
aF40.0488
aF40.0488
aF40.0488
aF40.0488
aF40.0488
aF40.0488
aF40.0488
aF40.0488
aF40.0488
aF40.0488
aF40.0684
aF40.0488
aF40.0488
aF40.0293
aF40.0488
aF40.0488
aF40.0488
aF40.0488
aF40.0488
aF40.0488
aF40.0488
aF40.0293
aF40.0488
aF40.0488
aF40.0488
aF40.0488
aF40.0488
aF40.0488
aF40.0488
aF40.0293
aF40.0293
as(I10
S'get HB13-1-LeakageCurrent[1-64]_f_rr'
p23
tp24
(lp25
F3.416
aF6.588
aF3.416
aF3.904
aF5.612
aF4.88
aF2.684
aF3.416
aF3.416
aF3.904
aF1.708
aF2.684
aF6.1
aF5.856
aF5.612
aF1.708
aF3.172
aF7.564
aF7.32
aF7.32
aF2.44
aF7.076
aF7.808
aF1.708
aF7.32
aF6.1
aF2.928
aF3.904
aF3.904
aF2.928
aF5.612
aF6.344
aF3.416
aF1.708
aF6.588
aF4.88
aF1.708
aF1.952
aF1.708
aF2.928
aF7.32
aF8.052
aF2.684
aF3.416
aF3.904
aF2.928
aF2.196
aF5.124
aF3.66
aF5.124
aF3.416
aF2.684
aF4.88
aF1.708
aF2.44
aF4.392
aF3.904
aF2.44
aF7.808
aF7.076
aF3.416
aF2.684
aF5.856
aF2.684
as(I0
S'put HB13-1-biasvoltage[1-64]_f 64*0.000000'
p26
tp27
(lp28
S'OK'
p29
as(I30
S'get HB13-1-biasmon[1-64]_f_rr'
p30
tp31
(lp32
F30.0659
aF30.0659
aF30.0659
aF30.0659
aF30.0659
aF30.0659
aF30.0659
aF30.0659
aF30.0659
aF30.0659
aF30.0659
aF30.0659
aF30.0659
aF30.0659
aF30.0659
aF30.0659
aF30.0659
aF30.0659
aF30.0659
aF30.0659
aF30.0659
aF30.0659
aF30.0659
aF30.0659
aF30.0659
aF30.0855
aF30.0659
aF30.0659
aF30.0659
aF30.0659
aF30.0659
aF30.0659
aF30.0659
aF30.0659
aF30.0659
aF30.0659
aF30.0659
aF30.0659
aF30.0659
aF30.0659
aF30.0659
aF30.0659
aF30.0659
aF30.0659
aF30.0659
aF30.0659
aF30.0659
aF30.0659
aF30.0659
aF30.0659
aF30.0659
aF30.0659
aF30.0659
aF30.0659
aF30.0659
aF30.0659
aF30.0659
aF30.0659
aF30.0659
aF30.0659
aF30.0659
aF30.0659
aF30.0659
aF30.0659
as(I15
S'put HB13-1-biasvoltage[1-64]_f 64*15.000000'
p33
tp34
(lp35
S'OK'
p36
as(I25
S'put HB13-1-biasvoltage[1-64]_f 64*25.000000'
p37
tp38
(lp39
S'OK'
p40
as(I15
S'get HB13-1-biasmon[1-64]_f_rr'
p41
tp42
(lp43
F15.0623
aF15.0623
aF15.0623
aF15.0623
aF15.0623
aF15.0623
aF15.0623
aF15.0623
aF15.0623
aF15.0623
aF15.0623
aF15.0623
aF15.0623
aF15.0623
aF15.0623
aF15.0623
aF15.0623
aF15.0623
aF15.0623
aF15.0623
aF15.0623
aF15.0623
aF15.0623
aF15.0623
aF15.0623
aF15.0623
aF15.0623
aF15.0623
aF15.0623
aF15.0623
aF15.0623
aF15.0623
aF15.0623
aF15.0623
aF15.0623
aF15.0623
aF15.0623
aF15.0623
aF15.0623
aF15.0623
aF15.0623
aF15.0623
aF15.0623
aF15.0623
aF15.0623
aF15.0623
aF15.0623
aF15.0623
aF15.0623
aF15.0623
aF15.0623
aF15.0623
aF15.0623
aF15.0623
aF15.0623
aF15.0623
aF15.0623
aF15.0623
aF15.0623
aF15.0623
aF15.0623
aF15.0623
aF15.0623
aF15.0623
as(I30
S'put HB13-1-biasvoltage[1-64]_f 64*30.000000'
p44
tp45
(lp46
S'OK'
p47
as(I20
S'put HB13-1-biasvoltage[1-64]_f 64*20.000000'
p48
tp49
(lp50
S'OK'
p51
as(I20
S'get HB13-1-biasmon[1-64]_f_rr'
p52
tp53
(lp54
F20.0635
aF20.083
aF20.0635
aF20.0635
aF20.0635
aF20.0635
aF20.0635
aF20.0635
aF20.0635
aF20.0635
aF20.0635
aF20.0635
aF20.0635
aF20.0635
aF20.0635
aF20.0635
aF20.0635
aF20.0635
aF20.0635
aF20.0635
aF20.0635
aF20.0635
aF20.0635
aF20.0635
aF20.0635
aF20.0635
aF20.0635
aF20.0635
aF20.0635
aF20.0635
aF20.0635
aF20.0635
aF20.0635
aF20.0635
aF20.0635
aF20.0635
aF20.0635
aF20.0635
aF20.0635
aF20.0635
aF20.0635
aF20.0635
aF20.0635
aF20.0635
aF20.0635
aF20.0635
aF20.0635
aF20.0635
aF20.0635
aF20.0635
aF20.0635
aF20.0635
aF20.0635
aF20.0635
aF20.0635
aF20.0635
aF20.0635
aF20.0635
aF20.0635
aF20.0635
aF20.0635
aF20.0635
aF20.0635
aF20.0635
as(I35
S'get HB13-1-biasmon[1-64]_f_rr'
p55
tp56
(lp57
F35.0672
aF35.0867
aF35.0672
aF35.0672
aF35.0672
aF35.0672
aF35.0672
aF35.0672
aF35.0672
aF35.0672
aF35.0672
aF35.0672
aF35.0672
aF35.0672
aF35.0672
aF35.0672
aF35.0672
aF35.0672
aF35.0672
aF35.0672
aF35.0672
aF35.0672
aF35.0672
aF35.0672
aF35.0672
aF35.0867
aF35.0672
aF35.0672
aF35.0672
aF35.0672
aF35.0672
aF35.0672
aF35.0672
aF35.0672
aF35.0672
aF35.0672
aF35.0672
aF35.0672
aF35.0672
aF35.0672
aF35.0672
aF35.0672
aF35.0672
aF35.0672
aF35.0672
aF35.0672
aF35.0672
aF35.0672
aF35.0672
aF35.0672
aF35.0672
aF35.0672
aF35.0672
aF35.0672
aF35.0672
aF35.0672
aF35.0672
aF35.0672
aF35.0672
aF35.0672
aF35.0672
aF35.0672
aF35.0476
aF35.0672
as(I5
S'put HB13-1-biasvoltage[1-64]_f 64*5.000000'
p58
tp59
(lp60
S'OK'
p61
as(I0
S'get HB13-1-biasmon[1-64]_f_rr'
p62
tp63
(lp64
F0.0586081
aF0.0586081
aF0.0586081
aF0.0586081
aF0.0586081
aF0.0586081
aF0.0586081
aF0.0586081
aF0.0586081
aF0.0586081
aF0.0586081
aF0.0586081
aF0.0586081
aF0.0586081
aF0.0586081
aF0.0586081
aF0.0586081
aF0.0586081
aF0.0586081
aF0.0586081
aF0.0586081
aF0.0586081
aF0.0586081
aF0.0586081
aF0.0586081
aF0.0586081
aF0.0586081
aF0.0586081
aF0.0586081
aF0.0586081
aF0.0586081
aF0.0586081
aF0.0586081
aF0.0586081
aF0.0586081
aF0.0586081
aF0.0586081
aF0.0586081
aF0.0586081
aF0.0586081
aF0.0586081
aF0.0586081
aF0.0586081
aF0.0586081
aF0.0586081
aF0.0586081
aF0.0586081
aF0.0586081
aF0.0586081
aF0.0586081
aF0.0586081
aF0.0586081
aF0.0586081
aF0.0586081
aF0.0586081
aF0.0586081
aF0.0586081
aF0.0586081
aF0.0586081
aF0.0586081
aF0.0586081
aF0.0586081
aF0.0586081
aF0.0586081
as(I35
S'get HB13-1-LeakageCurrent[1-64]_f_rr'
p65
tp66
(lp67
F7.076
aF10.492
aF7.076
aF7.564
aF9.76
aF8.54
aF6.588
aF6.832
aF7.076
aF7.808
aF4.636
aF6.344
aF9.76
aF9.76
aF9.76
aF2.684
aF6.832
aF11.468
aF11.468
aF10.98
aF6.344
aF10.98
aF11.956
aF3.904
aF11.468
aF9.76
aF6.588
aF8.052
aF7.564
aF6.344
aF9.516
aF10.492
aF7.32
aF3.416
aF10.492
aF8.54
aF4.88
aF5.368
aF3.66
aF7.076
aF10.98
aF11.956
aF6.588
aF7.564
aF7.564
aF6.588
aF5.856
aF9.028
aF7.564
aF8.54
aF7.32
aF6.832
aF8.784
aF3.66
aF6.1
aF8.296
aF8.052
aF6.344
aF11.712
aF10.98
aF7.564
aF6.588
aF9.516
aF6.344
as(I40
S'get HB13-1-LeakageCurrent[1-64]_f_rr'
p68
tp69
(lp70
F7.808
aF11.224
aF7.808
aF8.296
aF10.492
aF9.516
aF7.32
aF7.564
aF7.808
aF8.784
aF5.612
aF7.076
aF10.736
aF10.492
aF10.736
aF3.416
aF7.564
aF12.2
aF12.2
aF11.712
aF7.076
aF11.712
aF12.688
aF4.636
aF12.2
aF10.736
aF7.32
aF8.784
aF8.54
aF7.076
aF10.248
aF11.224
aF8.052
aF4.148
aF11.224
aF9.516
aF5.612
aF6.1
aF4.636
aF7.808
aF11.712
aF12.688
aF7.564
aF8.54
aF8.54
aF7.32
aF6.832
aF9.76
aF8.54
aF9.516
aF8.052
aF7.564
aF9.516
aF4.392
aF6.832
aF9.028
aF9.028
aF7.32
aF12.444
aF11.712
aF8.296
aF7.564
aF10.492
aF7.076
as(I55
S'get HB13-1-LeakageCurrent[1-64]_f_rr'
p71
tp72
(lp73
F10.004
aF13.664
aF10.248
aF10.736
aF12.932
aF11.712
aF9.516
aF10.004
aF10.004
aF11.224
aF7.808
aF9.516
aF12.932
aF12.932
aF12.932
aF5.612
aF9.76
aF14.396
aF14.64
aF14.152
aF9.516
aF14.152
aF15.128
aF6.832
aF14.64
aF12.932
aF9.76
aF10.98
aF10.736
aF9.272
aF12.444
aF13.664
aF10.492
aF6.344
aF13.664
aF11.712
aF7.808
aF8.54
aF6.832
aF10.248
aF14.152
aF15.128
aF9.516
aF10.736
aF10.736
aF9.76
aF9.028
aF11.956
aF10.736
aF11.956
aF10.248
aF9.76
aF11.956
aF6.588
aF9.272
aF11.468
aF11.468
aF9.516
aF14.64
aF14.152
aF10.736
aF9.76
aF12.688
aF9.516
as(I60
S'get HB13-1-LeakageCurrent[1-64]_f_rr'
p74
tp75
(lp76
F10.98
aF14.396
aF10.98
aF11.468
aF13.664
aF12.444
aF10.492
aF10.736
aF10.736
aF11.956
aF8.54
aF10.248
aF13.664
aF13.664
aF13.908
aF6.344
aF10.736
aF15.372
aF15.372
aF14.884
aF10.004
aF14.884
aF15.86
aF7.564
aF15.372
aF13.664
aF10.492
aF11.956
aF11.468
aF10.004
aF13.42
aF14.396
aF11.224
aF7.32
aF14.396
aF12.444
aF8.784
aF9.272
aF7.564
aF10.98
aF14.884
aF15.86
aF10.492
aF11.712
aF11.468
aF10.492
aF10.004
aF12.932
aF11.712
aF12.688
aF11.224
aF10.492
aF12.932
aF7.32
aF10.004
aF12.2
aF12.2
aF10.492
aF15.372
aF14.884
aF11.468
aF10.492
aF13.42
aF10.248
as(I30
S'get HB13-1-LeakageCurrent[1-64]_f_rr'
p77
tp78
(lp79
F6.1
aF9.516
aF6.344
aF6.832
aF9.028
aF8.052
aF5.856
aF6.1
aF6.344
aF7.076
aF3.904
aF5.856
aF9.028
aF9.028
aF9.028
aF2.196
aF6.1
aF10.736
aF10.492
aF10.248
aF5.612
aF10.248
aF11.224
aF3.172
aF10.736
aF9.272
aF5.856
aF7.076
aF6.832
aF5.612
aF8.54
aF9.516
aF6.588
aF2.928
aF9.76
aF8.052
aF4.148
aF4.636
aF2.928
aF6.344
aF10.248
aF11.224
aF5.856
aF6.832
aF6.832
aF5.856
aF5.124
aF8.052
aF6.832
aF7.808
aF6.588
aF5.856
aF8.052
aF2.928
aF5.368
aF7.564
aF7.32
aF5.612
aF10.98
aF10.004
aF6.832
aF5.856
aF8.784
aF5.856
as(I25
S'get HB13-1-biasmon[1-64]_f_rr'
p80
tp81
(lp82
F25.0647
aF25.0647
aF25.0647
aF25.0647
aF25.0647
aF25.0647
aF25.0647
aF25.0647
aF25.0647
aF25.0647
aF25.0647
aF25.0647
aF25.0647
aF25.0647
aF25.0647
aF25.0647
aF25.0647
aF25.0647
aF25.0647
aF25.0647
aF25.0647
aF25.0647
aF25.0647
aF25.0647
aF25.0647
aF25.0647
aF25.0647
aF25.0647
aF25.0647
aF25.0647
aF25.0647
aF25.0647
aF25.0647
aF25.0647
aF25.0647
aF25.0647
aF25.0647
aF25.0647
aF25.0647
aF25.0647
aF25.0647
aF25.0647
aF25.0647
aF25.0647
aF25.0647
aF25.0647
aF25.0647
aF25.0647
aF25.0647
aF25.0647
aF25.0647
aF25.0647
aF25.0647
aF25.0647
aF25.0647
aF25.0647
aF25.0647
aF25.0647
aF25.0647
aF25.0647
aF25.0647
aF25.0647
aF25.0647
aF25.0647
as(I10
S'get HB13-1-biasmon[1-64]_f_rr'
p83
tp84
(lp85
F10.0611
aF10.0611
aF10.0611
aF10.0611
aF10.0611
aF10.0611
aF10.0611
aF10.0611
aF10.0611
aF10.0611
aF10.0611
aF10.0611
aF10.0611
aF10.0611
aF10.0611
aF10.0611
aF10.0611
aF10.0611
aF10.0611
aF10.0611
aF10.0611
aF10.0611
aF10.0611
aF10.0611
aF10.0611
aF10.0611
aF10.0611
aF10.0611
aF10.0611
aF10.0611
aF10.0611
aF10.0611
aF10.0611
aF10.0611
aF10.0611
aF10.0611
aF10.0611
aF10.0611
aF10.0611
aF10.0611
aF10.0611
aF10.0611
aF10.0611
aF10.0611
aF10.0611
aF10.0611
aF10.0611
aF10.0611
aF10.0611
aF10.0611
aF10.0611
aF10.0611
aF10.0611
aF10.0611
aF10.0611
aF10.0611
aF10.0611
aF10.0611
aF10.0611
aF10.0611
aF10.0611
aF10.0611
aF10.0611
aF10.0611
as(I60
S'get HB13-1-biasmon[1-64]_f_rr'
p86
tp87
(lp88
F60.0537
aF60.0537
aF60.0537
aF60.0537
aF60.0342
aF60.0537
aF60.0537
aF60.0342
aF60.0342
aF60.0537
aF60.0733
aF60.0537
aF60.0342
aF60.0342
aF60.0342
aF60.0537
aF60.0537
aF60.0537
aF60.0342
aF60.0342
aF60.0342
aF60.0537
aF60.0342
aF60.0537
aF60.0537
aF60.0733
aF60.0537
aF60.0537
aF60.0342
aF60.0342
aF60.0342
aF60.0342
aF60.0537
aF60.0537
aF60.0537
aF60.0537
aF60.0342
aF60.0342
aF60.0537
aF60.0537
aF60.0342
aF60.0342
aF60.0537
aF60.0537
aF60.0537
aF60.0342
aF60.0342
aF60.0342
aF60.0342
aF60.0342
aF60.0537
aF60.0537
aF60.0537
aF60.0537
aF60.0342
aF60.0342
aF60.0537
aF60.0537
aF60.0537
aF60.0537
aF60.0342
aF60.0342
aF60.0342
aF60.0342
as(I45
S'put HB13-1-biasvoltage[1-64]_f 64*45.000000'
p89
tp90
(lp91
S'OK'
p92
as(I5
S'get HB13-1-biasmon[1-64]_f_rr'
p93
tp94
(lp95
F5.05983
aF5.05983
aF5.05983
aF5.05983
aF5.05983
aF5.05983
aF5.05983
aF5.05983
aF5.05983
aF5.05983
aF5.05983
aF5.05983
aF5.05983
aF5.05983
aF5.05983
aF5.05983
aF5.05983
aF5.05983
aF5.05983
aF5.05983
aF5.05983
aF5.05983
aF5.05983
aF5.05983
aF5.05983
aF5.05983
aF5.05983
aF5.05983
aF5.05983
aF5.05983
aF5.05983
aF5.05983
aF5.05983
aF5.05983
aF5.05983
aF5.05983
aF5.05983
aF5.05983
aF5.05983
aF5.05983
aF5.05983
aF5.05983
aF5.05983
aF5.05983
aF5.05983
aF5.05983
aF5.05983
aF5.05983
aF5.05983
aF5.05983
aF5.05983
aF5.05983
aF5.05983
aF5.05983
aF5.05983
aF5.05983
aF5.05983
aF5.05983
aF5.05983
aF5.05983
aF5.05983
aF5.05983
aF5.05983
aF5.05983
as(I55
S'get HB13-1-biasmon[1-64]_f_rr'
p96
tp97
(lp98
F55.0525
aF55.0525
aF55.0525
aF55.0525
aF55.0525
aF55.033
aF55.0525
aF55.033
aF55.0525
aF55.0525
aF55.0525
aF55.0525
aF55.0525
aF55.0525
aF55.033
aF55.0525
aF55.0525
aF55.0525
aF55.0525
aF55.0525
aF55.0525
aF55.033
aF55.0525
aF55.033
aF55.0525
aF55.0525
aF55.0525
aF55.033
aF55.033
aF55.033
aF55.033
aF55.033
aF55.033
aF55.0525
aF55.0525
aF55.0525
aF55.033
aF55.033
aF55.0525
aF55.0525
aF55.033
aF55.033
aF55.0525
aF55.0525
aF55.033
aF55.033
aF55.033
aF55.033
aF55.0525
aF55.033
aF55.0525
aF55.0525
aF55.0525
aF55.0525
aF55.033
aF55.033
aF55.0525
aF55.0525
aF55.0525
aF55.0525
aF55.0525
aF55.033
aF55.033
aF55.0525
as(I10
S'put HB13-1-biasvoltage[1-64]_f 64*10.000000'
p99
tp100
(lp101
S'OK'
p102
as(I25
S'get HB13-1-LeakageCurrent[1-64]_f_rr'
p103
tp104
(lp105
F5.612
aF8.784
aF5.612
aF6.1
aF8.052
aF7.32
aF5.124
aF5.368
aF5.612
aF6.344
aF3.172
aF4.88
aF8.296
aF8.052
aF8.296
aF1.708
aF5.368
aF10.004
aF9.76
aF9.516
aF4.636
aF9.516
aF10.248
aF2.44
aF9.76
aF8.296
aF5.124
aF6.344
aF6.1
aF4.88
aF7.808
aF8.784
aF5.856
aF2.196
aF9.028
aF7.32
aF3.416
aF3.904
aF2.44
aF5.612
aF9.516
aF10.492
aF5.124
aF5.856
aF6.1
aF5.124
aF4.392
aF7.564
aF6.1
aF7.32
aF5.856
aF5.124
aF7.32
aF2.196
aF4.636
aF6.832
aF6.588
aF4.88
aF10.248
aF9.272
aF5.856
aF5.124
aF8.052
aF4.88
as(I40
S'put HB13-1-biasvoltage[1-64]_f 64*40.000000'
p106
tp107
(lp108
S'OK'
p109
as(I45
S'get HB13-1-LeakageCurrent[1-64]_f_rr'
p110
tp111
(lp112
F8.54
aF11.956
aF8.54
aF9.028
aF11.224
aF10.248
aF8.052
aF8.54
aF8.54
aF9.516
aF6.344
aF7.808
aF11.468
aF11.224
aF11.468
aF4.148
aF8.296
aF12.932
aF12.932
aF12.444
aF7.808
aF12.688
aF13.664
aF5.368
aF12.932
aF11.468
aF8.052
aF9.516
aF9.272
aF7.808
aF10.98
aF11.956
aF8.784
aF4.88
aF11.956
aF10.248
aF6.344
aF7.076
aF5.368
aF8.54
aF12.688
aF13.42
aF8.052
aF9.028
aF9.272
aF8.052
aF7.564
aF10.492
aF9.272
aF10.248
aF8.784
aF8.052
aF10.492
aF5.124
aF7.564
aF9.76
aF9.76
aF8.052
aF13.176
aF12.444
aF9.028
aF8.052
aF11.224
aF7.808
as(I0
S'get HB13-1-LeakageCurrent[1-64]_f_rr'
p113
tp114
(lp115
F1.952
aF4.636
aF2.196
aF2.684
aF4.148
aF3.416
aF1.952
aF1.952
aF2.196
aF2.196
aF1.708
aF1.952
aF4.636
aF4.392
aF3.904
aF1.708
aF2.196
aF6.344
aF5.612
aF5.856
aF1.708
aF5.856
aF6.1
aF1.708
aF5.856
aF4.636
aF1.952
aF2.44
aF2.44
aF1.708
aF4.148
aF4.88
aF2.196
aF1.708
aF5.124
aF3.66
aF1.708
aF1.708
aF1.708
aF2.196
aF5.612
aF6.588
aF1.952
aF2.196
aF2.44
aF1.708
aF1.708
aF3.66
aF2.44
aF3.66
aF2.196
aF1.952
aF3.172
aF1.708
aF1.708
aF2.928
aF2.44
aF1.708
aF6.588
aF5.368
aF2.44
aF1.708
aF4.148
aF1.952
as(I15
S'get HB13-1-LeakageCurrent[1-64]_f_rr'
p116
tp117
(lp118
F3.904
aF7.076
aF4.148
aF4.636
aF6.588
aF5.612
aF3.66
aF3.904
aF4.148
aF4.636
aF1.952
aF3.416
aF6.832
aF6.832
aF6.588
aF1.708
aF3.904
aF8.54
aF8.052
aF8.052
aF3.172
aF8.052
aF8.54
aF1.708
aF8.052
aF6.832
aF3.66
aF4.88
aF4.636
aF3.416
aF6.344
aF7.32
aF4.392
aF1.708
aF7.564
aF5.612
aF1.952
aF2.44
aF1.708
aF3.904
aF7.808
aF8.784
aF3.66
aF4.392
aF4.636
aF3.416
aF2.928
aF5.856
aF4.636
aF5.856
aF4.148
aF3.66
aF5.856
aF1.708
aF3.172
aF5.368
aF4.88
aF3.172
aF8.784
aF7.808
aF4.392
aF3.416
aF6.588
aF3.416
as(I50
S'get HB13-1-LeakageCurrent[1-64]_f_rr'
p119
tp120
(lp121
F9.272
aF12.688
aF9.272
aF9.76
aF12.2
aF10.98
aF8.784
aF9.272
aF9.272
aF10.492
aF7.076
aF8.54
aF12.2
aF11.956
aF12.2
aF4.636
aF9.028
aF13.664
aF13.664
aF13.42
aF8.54
aF13.42
aF14.396
aF6.1
aF13.664
aF12.2
aF9.028
aF10.248
aF10.004
aF8.54
aF11.712
aF12.688
aF9.76
aF5.612
aF12.932
aF10.98
aF7.32
aF7.808
aF6.1
aF9.516
aF13.42
aF14.152
aF9.028
aF9.76
aF10.004
aF8.784
aF8.296
aF11.224
aF10.004
aF11.224
aF9.516
aF9.028
aF11.468
aF5.856
aF8.54
aF10.736
aF10.492
aF8.784
aF13.908
aF13.42
aF9.76
aF9.028
aF11.956
aF8.54
as(I20
S'get HB13-1-LeakageCurrent[1-64]_f_rr'
p122
tp123
(lp124
F4.636
aF8.052
aF4.88
aF5.368
aF7.32
aF6.588
aF4.148
aF4.636
aF4.88
aF5.612
aF2.684
aF4.148
aF7.564
aF7.564
aF7.32
aF1.708
aF4.636
aF9.272
aF8.784
aF8.784
aF3.904
aF8.784
aF9.516
aF1.952
aF9.028
aF7.564
aF4.392
aF5.612
aF5.368
aF3.904
aF7.32
aF8.052
aF4.88
aF1.708
aF8.052
aF6.344
aF2.684
aF3.172
aF1.952
aF4.636
aF8.784
aF9.516
aF4.392
aF5.124
aF5.368
aF4.148
aF3.66
aF6.588
aF5.368
aF6.588
aF5.124
aF4.392
aF6.588
aF1.952
aF3.904
aF5.856
aF5.856
aF3.904
aF9.516
aF8.54
aF5.368
aF4.392
aF7.32
aF4.148
as(I50
S'get HB13-1-biasmon[1-64]_f_rr'
p125
tp126
(lp127
F50.0513
aF50.0513
aF50.0513
aF50.0513
aF50.0513
aF50.0317
aF50.0513
aF50.0317
aF50.0317
aF50.0513
aF50.0708
aF50.0513
aF50.0317
aF50.0317
aF50.0317
aF50.0513
aF50.0513
aF50.0513
aF50.0513
aF50.0513
aF50.0513
aF50.0513
aF50.0317
aF50.0317
aF50.0513
aF50.0513
aF50.0513
aF50.0513
aF50.0317
aF50.0513
aF50.0317
aF50.0317
aF50.0513
aF50.0513
aF50.0513
aF50.0513
aF50.0317
aF50.0317
aF50.0513
aF50.0513
aF50.0513
aF50.0317
aF50.0513
aF50.0513
aF50.0513
aF50.0513
aF50.0317
aF50.0317
aF50.0513
aF50.0317
aF50.0513
aF50.0513
aF50.0513
aF50.0513
aF50.0317
aF50.0317
aF50.0513
aF50.0513
aF50.0513
aF50.0513
aF50.0513
aF50.0513
aF50.0317
aF50.0513
as(I45
S'get HB13-1-biasmon[1-64]_f_rr'
p128
tp129
(lp130
F45.0501
aF45.0696
aF45.0501
aF45.0501
aF45.0501
aF45.0501
aF45.0501
aF45.0305
aF45.0501
aF45.0501
aF45.0696
aF45.0501
aF45.0501
aF45.0501
aF45.0305
aF45.0501
aF45.0501
aF45.0501
aF45.0501
aF45.0501
aF45.0501
aF45.0501
aF45.0501
aF45.0305
aF45.0501
aF45.0696
aF45.0501
aF45.0501
aF45.0305
aF45.0305
aF45.0305
aF45.0305
aF45.0501
aF45.0501
aF45.0501
aF45.0501
aF45.0501
aF45.0305
aF45.0501
aF45.0501
aF45.0501
aF45.0305
aF45.0501
aF45.0501
aF45.0501
aF45.0501
aF45.0305
aF45.0305
aF45.0501
aF45.0501
aF45.0501
aF45.0501
aF45.0501
aF45.0501
aF45.0305
aF45.0305
aF45.0501
aF45.0501
aF45.0501
aF45.0501
aF45.0501
aF45.0501
aF45.0305
aF45.0501
as.