(dp0
(I25
S'get HB13-4-biasmon[1-64]_f_rr'
p1
tp2
(lp3
F25.0647
aF25.0647
aF25.0842
aF25.0647
aF25.0647
aF25.0647
aF25.0647
aF25.0647
aF25.0647
aF25.0647
aF25.0842
aF25.0647
aF25.0647
aF25.0842
aF25.0647
aF25.0647
aF25.0647
aF25.0647
aF25.0647
aF25.0647
aF25.0647
aF25.0647
aF25.0647
aF25.0647
aF25.0842
aF25.0842
aF25.0842
aF25.0842
aF25.0647
aF25.0647
aF25.0647
aF25.0647
aF25.0647
aF25.0842
aF25.0647
aF25.0647
aF25.0647
aF25.0647
aF25.0647
aF25.0647
aF25.0647
aF25.0842
aF25.0842
aF25.0842
aF25.0647
aF25.0647
aF25.0647
aF25.0647
aF25.0647
aF25.0647
aF25.0647
aF25.0647
aF25.0647
aF25.0647
aF25.0647
aF25.0647
aF25.0842
aF25.0647
aF25.0842
aF25.0647
aF25.0647
aF25.0647
aF25.0647
aF25.0647
as(I15
S'get HB13-4-biasmon[1-64]_f_rr'
p4
tp5
(lp6
F15.0623
aF15.0623
aF15.0623
aF15.0623
aF15.0623
aF15.0623
aF15.0623
aF15.0818
aF15.0623
aF15.0623
aF15.0623
aF15.0623
aF15.0623
aF15.0623
aF15.0623
aF15.0623
aF15.0623
aF15.0623
aF15.0623
aF15.0623
aF15.0623
aF15.0623
aF15.0623
aF15.0623
aF15.0623
aF15.0623
aF15.0623
aF15.0818
aF15.0623
aF15.0623
aF15.0623
aF15.0623
aF15.0623
aF15.0818
aF15.0623
aF15.0623
aF15.0623
aF15.0623
aF15.0623
aF15.0623
aF15.0623
aF15.0818
aF15.0623
aF15.0623
aF15.0623
aF15.0623
aF15.0623
aF15.0623
aF15.0623
aF15.0623
aF15.0623
aF15.0623
aF15.0623
aF15.0623
aF15.0623
aF15.0623
aF15.0623
aF15.0623
aF15.0623
aF15.0623
aF15.0623
aF15.0623
aF15.0623
aF15.0623
as(I25
S'put HB13-4-biasvoltage[1-64]_f 64*25.000000'
p7
tp8
(lp9
S'OK'
p10
as(I0
S'get HB13-4-LeakageCurrent[1-64]_f_rr'
p11
tp12
(lp13
F5.612
aF1.708
aF3.416
aF6.344
aF1.952
aF5.124
aF1.708
aF1.708
aF1.708
aF3.66
aF2.684
aF4.88
aF2.196
aF3.66
aF1.708
aF2.196
aF2.928
aF9.272
aF1.708
aF2.928
aF1.708
aF1.708
aF3.172
aF5.368
aF5.124
aF1.708
aF6.588
aF1.708
aF1.952
aF6.344
aF1.708
aF5.124
aF1.708
aF2.928
aF2.196
aF1.952
aF1.708
aF3.172
aF1.952
aF1.708
aF4.636
aF3.172
aF1.708
aF5.856
aF4.148
aF2.196
aF1.708
aF6.588
aF1.952
aF3.172
aF4.148
aF5.856
aF1.708
aF1.952
aF2.44
aF5.856
aF2.196
aF4.88
aF5.124
aF1.708
aF3.172
aF1.708
aF1.952
aF2.928
as(I50
S'get HB13-4-LeakageCurrent[1-64]_f_rr'
p14
tp15
(lp16
F12.932
aF8.54
aF11.468
aF13.664
aF7.564
aF12.2
aF8.784
aF6.832
aF4.148
aF11.468
aF10.736
aF13.664
aF9.028
aF11.224
aF8.296
aF9.272
aF9.76
aF17.568
aF7.564
aF10.248
aF7.076
aF8.54
aF10.736
aF12.444
aF13.176
aF5.856
aF14.152
aF7.32
aF8.784
aF13.908
aF6.588
aF12.444
aF7.564
aF11.224
aF10.004
aF9.516
aF7.564
aF10.736
aF9.028
aF7.564
aF12.2
aF11.224
aF6.832
aF14.152
aF11.712
aF9.516
aF8.54
aF14.64
aF9.028
aF10.736
aF11.956
aF13.176
aF8.54
aF10.004
aF9.516
aF13.42
aF10.004
aF13.176
aF13.176
aF7.076
aF10.248
aF6.832
aF9.76
aF10.004
as(I20
S'get HB13-4-LeakageCurrent[1-64]_f_rr'
p17
tp18
(lp19
F8.54
aF3.904
aF6.832
aF9.272
aF3.416
aF7.808
aF4.148
aF2.196
aF1.708
aF6.832
aF5.856
aF8.54
aF4.636
aF6.588
aF3.904
aF4.636
aF5.612
aF12.688
aF2.928
aF5.856
aF2.684
aF3.416
aF6.1
aF8.052
aF8.296
aF1.708
aF9.516
aF2.928
aF4.148
aF9.272
aF2.196
aF7.808
aF3.172
aF6.344
aF5.368
aF4.636
aF2.928
aF6.1
aF4.636
aF2.928
aF7.564
aF6.344
aF2.196
aF9.272
aF7.076
aF4.88
aF3.904
aF10.004
aF4.636
aF6.1
aF7.076
aF8.54
aF3.904
aF5.124
aF5.124
aF8.784
aF5.368
aF8.296
aF8.54
aF2.44
aF5.856
aF2.684
aF5.124
aF5.612
as(I0
S'get HB13-4-biasmon[1-64]_f_rr'
p20
tp21
(lp22
F0.0586081
aF0.0586081
aF0.0586081
aF0.0586081
aF0.0586081
aF0.0586081
aF0.0586081
aF0.0781441
aF0.0586081
aF0.0586081
aF0.0586081
aF0.0586081
aF0.0586081
aF0.0586081
aF0.0586081
aF0.0586081
aF0.0586081
aF0.0586081
aF0.0586081
aF0.0586081
aF0.0586081
aF0.0586081
aF0.0586081
aF0.0586081
aF0.0586081
aF0.0586081
aF0.0586081
aF0.0586081
aF0.0586081
aF0.0586081
aF0.0586081
aF0.0586081
aF0.0586081
aF0.0586081
aF0.0586081
aF0.0586081
aF0.0586081
aF0.0586081
aF0.0586081
aF0.0586081
aF0.0586081
aF0.0586081
aF0.0586081
aF0.0586081
aF0.0586081
aF0.0586081
aF0.0586081
aF0.0586081
aF0.0586081
aF0.0586081
aF0.0586081
aF0.0586081
aF0.0586081
aF0.0586081
aF0.0586081
aF0.0586081
aF0.0586081
aF0.0586081
aF0.0586081
aF0.0586081
aF0.0586081
aF0.0586081
aF0.0586081
aF0.0586081
as(I35
S'put HB13-4-biasvoltage[1-64]_f 64*35.000000'
p23
tp24
(lp25
S'OK'
p26
as(I50
S'put HB13-4-biasvoltage[1-64]_f 64*50.000000'
p27
tp28
(lp29
S'OK'
p30
as(I10
S'get HB13-4-LeakageCurrent[1-64]_f_rr'
p31
tp32
(lp33
F7.076
aF2.196
aF4.88
aF7.564
aF2.196
aF6.588
aF2.684
aF1.708
aF1.708
aF5.368
aF4.148
aF6.832
aF3.172
aF5.124
aF2.44
aF3.172
aF4.148
aF11.224
aF1.952
aF4.392
aF1.708
aF2.196
aF4.636
aF6.588
aF6.588
aF1.708
aF8.296
aF1.708
aF2.928
aF7.564
aF1.708
aF6.588
aF1.952
aF4.636
aF3.66
aF3.172
aF1.708
aF4.636
aF2.928
aF1.708
aF5.856
aF4.88
aF1.708
aF7.564
aF5.368
aF3.416
aF2.44
aF8.296
aF2.928
aF4.636
aF5.612
aF7.076
aF2.44
aF3.66
aF3.904
aF7.564
aF3.66
aF6.832
aF6.588
aF1.708
aF4.148
aF1.708
aF3.172
aF4.148
as(I30
S'put HB13-4-biasvoltage[1-64]_f 64*30.000000'
p34
tp35
(lp36
S'OK'
p37
as(I35
S'get HB13-4-LeakageCurrent[1-64]_f_rr'
p38
tp39
(lp40
F10.736
aF6.1
aF9.272
aF11.468
aF5.368
aF10.004
aF6.588
aF4.636
aF1.952
aF9.272
aF8.052
aF11.224
aF6.832
aF8.784
aF6.1
aF6.832
aF7.564
aF15.128
aF5.368
aF8.052
aF4.88
aF5.856
aF8.54
aF10.248
aF10.736
aF3.66
aF11.712
aF5.124
aF6.588
aF11.712
aF4.148
aF10.004
aF5.368
aF8.784
aF7.564
aF7.076
aF5.124
aF8.296
aF6.832
aF5.124
aF9.76
aF8.54
aF4.636
aF11.712
aF9.516
aF7.32
aF6.344
aF12.444
aF6.832
aF8.296
aF9.516
aF10.736
aF6.344
aF7.564
aF7.32
aF11.224
aF7.808
aF10.736
aF10.736
aF4.636
aF8.052
aF4.636
aF7.564
aF7.564
as(I15
S'put HB13-4-biasvoltage[1-64]_f 64*15.000000'
p41
tp42
(lp43
S'OK'
p44
as(I20
S'put HB13-4-biasvoltage[1-64]_f 64*20.000000'
p45
tp46
(lp47
S'OK'
p48
as(I55
S'put HB13-4-biasvoltage[1-64]_f 64*55.000000'
p49
tp50
(lp51
S'OK'
p52
as(I5
S'put HB13-4-biasvoltage[1-64]_f 64*5.000000'
p53
tp54
(lp55
S'OK'
p56
as(I45
S'put HB13-4-biasvoltage[1-64]_f 64*45.000000'
p57
tp58
(lp59
S'OK'
p60
as(I45
S'get HB13-4-biasmon[1-64]_f_rr'
p61
tp62
(lp63
F45.0696
aF45.0696
aF45.0696
aF45.0696
aF45.0501
aF45.0501
aF45.0501
aF45.0696
aF45.0696
aF45.0696
aF45.0696
aF45.0696
aF45.0696
aF45.0696
aF45.0501
aF45.0501
aF45.0696
aF45.0696
aF45.0696
aF45.0696
aF45.0501
aF45.0501
aF45.0501
aF45.0696
aF45.0696
aF45.0696
aF45.0696
aF45.0696
aF45.0501
aF45.0501
aF45.0696
aF45.0696
aF45.0696
aF45.0891
aF45.0696
aF45.0696
aF45.0501
aF45.0501
aF45.0501
aF45.0501
aF45.0696
aF45.0891
aF45.0891
aF45.0696
aF45.0501
aF45.0501
aF45.0501
aF45.0501
aF45.0501
aF45.0696
aF45.0696
aF45.0696
aF45.0696
aF45.0501
aF45.0696
aF45.0501
aF45.0696
aF45.0696
aF45.0696
aF45.0696
aF45.0696
aF45.0501
aF45.0501
aF45.0501
as(I25
S'get HB13-4-LeakageCurrent[1-64]_f_rr'
p64
tp65
(lp66
F9.272
aF4.636
aF7.564
aF10.004
aF4.148
aF8.54
aF4.88
aF2.928
aF1.708
aF7.564
aF6.588
aF9.516
aF5.368
aF7.32
aF4.636
aF5.612
aF6.1
aF13.664
aF3.66
aF6.588
aF3.416
aF4.392
aF6.832
aF8.784
aF9.028
aF2.196
aF10.492
aF3.66
aF5.124
aF10.004
aF2.684
aF8.54
aF3.904
aF7.32
aF6.1
aF5.612
aF3.66
aF6.832
aF5.368
aF3.66
aF8.296
aF7.076
aF2.928
aF10.004
aF7.808
aF5.612
aF4.636
aF10.736
aF5.368
aF6.832
aF8.052
aF9.272
aF4.636
aF5.856
aF5.856
aF9.516
aF6.1
aF9.028
aF9.272
aF3.172
aF6.588
aF3.416
aF5.856
aF6.1
as(I50
S'get HB13-4-biasmon[1-64]_f_rr'
p67
tp68
(lp69
F50.0708
aF50.0513
aF50.0708
aF50.0708
aF50.0513
aF50.0513
aF50.0513
aF50.0708
aF50.0708
aF50.0708
aF50.0904
aF50.0708
aF50.0513
aF50.0513
aF50.0513
aF50.0513
aF50.0708
aF50.0708
aF50.0708
aF50.0708
aF50.0513
aF50.0513
aF50.0513
aF50.0708
aF50.0708
aF50.0708
aF50.0708
aF50.0708
aF50.0317
aF50.0513
aF50.0708
aF50.0708
aF50.0708
aF50.0904
aF50.0708
aF50.0708
aF50.0513
aF50.0513
aF50.0513
aF50.0513
aF50.0708
aF50.0904
aF50.0708
aF50.0708
aF50.0513
aF50.0513
aF50.0513
aF50.0513
aF50.0708
aF50.0708
aF50.0708
aF50.0708
aF50.0513
aF50.0513
aF50.0513
aF50.0317
aF50.0708
aF50.0708
aF50.0708
aF50.0708
aF50.0513
aF50.0513
aF50.0513
aF50.0513
as(I45
S'get HB13-4-LeakageCurrent[1-64]_f_rr'
p70
tp71
(lp72
F12.2
aF7.808
aF10.736
aF12.932
aF6.832
aF11.468
aF8.052
aF6.1
aF3.416
aF10.736
aF9.76
aF12.932
aF8.296
aF10.492
aF7.564
aF8.54
aF9.272
aF16.836
aF6.832
aF9.516
aF6.1
aF7.564
aF10.004
aF11.712
aF12.2
aF5.124
aF13.42
aF6.588
aF8.052
aF13.176
aF5.856
aF11.712
aF6.832
aF10.492
aF9.272
aF8.54
aF6.832
aF9.76
aF8.296
aF6.832
aF11.468
aF10.248
aF6.1
aF13.42
aF10.98
aF8.54
aF7.808
aF13.908
aF8.296
aF10.004
aF10.98
aF12.444
aF7.808
aF9.028
aF8.784
aF12.444
aF9.516
aF12.444
aF12.444
aF6.344
aF9.516
aF6.1
aF9.028
aF9.028
as(I30
S'get HB13-4-biasmon[1-64]_f_rr'
p73
tp74
(lp75
F30.0855
aF30.0659
aF30.0855
aF30.0659
aF30.0659
aF30.0659
aF30.0659
aF30.0855
aF30.0855
aF30.0855
aF30.0855
aF30.0855
aF30.0659
aF30.0659
aF30.0659
aF30.0659
aF30.0659
aF30.0855
aF30.0659
aF30.0855
aF30.0659
aF30.0659
aF30.0659
aF30.0659
aF30.0855
aF30.0855
aF30.0855
aF30.0855
aF30.0659
aF30.0659
aF30.0659
aF30.0855
aF30.0659
aF30.0855
aF30.0855
aF30.0659
aF30.0659
aF30.0659
aF30.0659
aF30.0659
aF30.0659
aF30.0855
aF30.0855
aF30.0855
aF30.0659
aF30.0659
aF30.0659
aF30.0659
aF30.0659
aF30.0855
aF30.0659
aF30.0855
aF30.0659
aF30.0659
aF30.0659
aF30.0659
aF30.0855
aF30.0659
aF30.0855
aF30.0855
aF30.0659
aF30.0659
aF30.0659
aF30.0659
as(I40
S'put HB13-4-biasvoltage[1-64]_f 64*40.000000'
p76
tp77
(lp78
S'OK'
p79
as(I35
S'get HB13-4-biasmon[1-64]_f_rr'
p80
tp81
(lp82
F35.0672
aF35.0672
aF35.0867
aF35.0867
aF35.0672
aF35.0672
aF35.0672
aF35.0867
aF35.0867
aF35.0867
aF35.0867
aF35.0867
aF35.0672
aF35.0672
aF35.0672
aF35.0672
aF35.0867
aF35.0672
aF35.0672
aF35.0867
aF35.0672
aF35.0672
aF35.0672
aF35.0672
aF35.0867
aF35.0867
aF35.0867
aF35.0867
aF35.0672
aF35.0672
aF35.0672
aF35.0867
aF35.0672
aF35.0867
aF35.0867
aF35.0672
aF35.0672
aF35.0672
aF35.0672
aF35.0672
aF35.0867
aF35.0867
aF35.0867
aF35.0867
aF35.0672
aF35.0672
aF35.0672
aF35.0672
aF35.0672
aF35.0867
aF35.0672
aF35.0867
aF35.0672
aF35.0672
aF35.0672
aF35.0672
aF35.0867
aF35.0867
aF35.0867
aF35.0867
aF35.0672
aF35.0672
aF35.0672
aF35.0672
as(I40
S'get HB13-4-biasmon[1-64]_f_rr'
p83
tp84
(lp85
F40.0684
aF40.0684
aF40.0684
aF40.0684
aF40.0488
aF40.0488
aF40.0684
aF40.0684
aF40.0684
aF40.0684
aF40.0879
aF40.0684
aF40.0684
aF40.0684
aF40.0488
aF40.0684
aF40.0684
aF40.0684
aF40.0684
aF40.0684
aF40.0488
aF40.0488
aF40.0488
aF40.0684
aF40.0684
aF40.0684
aF40.0684
aF40.0684
aF40.0488
aF40.0684
aF40.0684
aF40.0684
aF40.0684
aF40.0879
aF40.0684
aF40.0684
aF40.0684
aF40.0488
aF40.0488
aF40.0684
aF40.0684
aF40.0684
aF40.0879
aF40.0684
aF40.0684
aF40.0488
aF40.0488
aF40.0488
aF40.0684
aF40.0684
aF40.0684
aF40.0684
aF40.0684
aF40.0488
aF40.0684
aF40.0488
aF40.0684
aF40.0684
aF40.0684
aF40.0684
aF40.0684
aF40.0684
aF40.0488
aF40.0488
as(I55
S'get HB13-4-biasmon[1-64]_f_rr'
p86
tp87
(lp88
F55.072
aF55.072
aF55.072
aF55.072
aF55.0525
aF55.0525
aF55.0525
aF55.072
aF55.0916
aF55.072
aF55.0916
aF55.0916
aF55.0525
aF55.072
aF55.033
aF55.0525
aF55.072
aF55.072
aF55.072
aF55.072
aF55.0525
aF55.0525
aF55.0525
aF55.0525
aF55.0916
aF55.072
aF55.0916
aF55.072
aF55.0525
aF55.0525
aF55.0525
aF55.072
aF55.072
aF55.0916
aF55.072
aF55.072
aF55.0525
aF55.0525
aF55.0525
aF55.0525
aF55.072
aF55.0916
aF55.072
aF55.072
aF55.0525
aF55.0525
aF55.0525
aF55.0525
aF55.0525
aF55.072
aF55.0525
aF55.072
aF55.0525
aF55.0525
aF55.072
aF55.033
aF55.072
aF55.072
aF55.072
aF55.072
aF55.0525
aF55.0525
aF55.0525
aF55.0525
as(I60
S'put HB13-4-biasvoltage[1-64]_f 64*60.000000'
p89
tp90
(lp91
S'OK'
p92
as(I5
S'get HB13-4-biasmon[1-64]_f_rr'
p93
tp94
(lp95
F5.05983
aF5.05983
aF5.05983
aF5.05983
aF5.05983
aF5.05983
aF5.05983
aF5.05983
aF5.05983
aF5.05983
aF5.05983
aF5.05983
aF5.05983
aF5.05983
aF5.05983
aF5.05983
aF5.05983
aF5.05983
aF5.05983
aF5.05983
aF5.05983
aF5.05983
aF5.05983
aF5.05983
aF5.05983
aF5.05983
aF5.05983
aF5.05983
aF5.05983
aF5.05983
aF5.05983
aF5.05983
aF5.05983
aF5.07937
aF5.05983
aF5.05983
aF5.05983
aF5.05983
aF5.05983
aF5.05983
aF5.05983
aF5.05983
aF5.05983
aF5.05983
aF5.05983
aF5.05983
aF5.05983
aF5.05983
aF5.05983
aF5.05983
aF5.05983
aF5.05983
aF5.05983
aF5.05983
aF5.05983
aF5.05983
aF5.05983
aF5.05983
aF5.05983
aF5.05983
aF5.05983
aF5.05983
aF5.05983
aF5.05983
as(I60
S'get HB13-4-biasmon[1-64]_f_rr'
p96
tp97
(lp98
F60.0733
aF60.0733
aF60.0928
aF60.0733
aF60.0537
aF60.0537
aF60.0537
aF60.0733
aF60.0928
aF60.0928
aF60.0928
aF60.0928
aF60.0733
aF60.0733
aF60.0537
aF60.0537
aF60.0733
aF60.0928
aF60.0733
aF60.0733
aF60.0537
aF60.0537
aF60.0537
aF60.0733
aF60.0733
aF60.0928
aF60.0928
aF60.0928
aF60.0342
aF60.0537
aF60.0733
aF60.0733
aF60.0733
aF60.0928
aF60.0928
aF60.0733
aF60.0537
aF60.0537
aF60.0537
aF60.0537
aF60.0928
aF60.0928
aF60.0928
aF60.0733
aF60.0537
aF60.0537
aF60.0537
aF60.0537
aF60.0733
aF60.0928
aF60.0733
aF60.0928
aF60.0537
aF60.0537
aF60.0733
aF60.0537
aF60.0928
aF60.0733
aF60.0928
aF60.0733
aF60.0537
aF60.0537
aF60.0537
aF60.0537
as(I10
S'get HB13-4-biasmon[1-64]_f_rr'
p99
tp100
(lp101
F10.0611
aF10.0611
aF10.0611
aF10.0611
aF10.0611
aF10.0611
aF10.0611
aF10.0611
aF10.0611
aF10.0611
aF10.0611
aF10.0611
aF10.0611
aF10.0806
aF10.0611
aF10.0611
aF10.0611
aF10.0611
aF10.0611
aF10.0611
aF10.0611
aF10.0611
aF10.0611
aF10.0611
aF10.0611
aF10.0611
aF10.0806
aF10.0611
aF10.0611
aF10.0611
aF10.0611
aF10.0611
aF10.0611
aF10.0806
aF10.0611
aF10.0611
aF10.0611
aF10.0611
aF10.0611
aF10.0611
aF10.0611
aF10.0611
aF10.0611
aF10.0611
aF10.0611
aF10.0611
aF10.0611
aF10.0611
aF10.0611
aF10.0611
aF10.0611
aF10.0611
aF10.0611
aF10.0611
aF10.0611
aF10.0611
aF10.0611
aF10.0611
aF10.0611
aF10.0611
aF10.0611
aF10.0611
aF10.0611
aF10.0611
as(I5
S'get HB13-4-LeakageCurrent[1-64]_f_rr'
p102
tp103
(lp104
F6.1
aF1.708
aF4.392
aF6.832
aF1.952
aF6.1
aF2.196
aF1.708
aF1.708
aF4.392
aF2.928
aF5.856
aF2.44
aF4.148
aF1.952
aF2.928
aF3.66
aF10.736
aF1.708
aF3.66
aF1.708
aF1.708
aF4.148
aF5.856
aF6.1
aF1.708
aF7.32
aF1.708
aF2.44
aF7.32
aF1.708
aF5.612
aF1.708
aF3.66
aF2.684
aF2.44
aF1.708
aF3.904
aF2.44
aF1.708
aF5.124
aF3.904
aF1.708
aF7.076
aF4.88
aF2.684
aF1.952
aF7.32
aF2.44
aF3.66
aF5.124
aF6.344
aF1.952
aF2.928
aF3.416
aF6.588
aF3.172
aF5.612
aF6.344
aF1.708
aF3.416
aF1.708
aF2.928
aF3.416
as(I55
S'get HB13-4-LeakageCurrent[1-64]_f_rr'
p105
tp106
(lp107
F13.908
aF9.516
aF12.444
aF14.64
aF8.54
aF12.932
aF9.516
aF7.564
aF4.88
aF12.2
aF11.468
aF14.396
aF9.76
aF11.956
aF9.272
aF10.004
aF10.736
aF18.3
aF8.296
aF10.98
aF7.808
aF9.272
aF11.712
aF13.42
aF13.908
aF6.588
aF14.884
aF8.052
aF9.516
aF14.64
aF7.32
aF13.176
aF8.296
aF12.2
aF10.736
aF10.248
aF8.296
aF11.468
aF9.76
aF8.296
aF12.932
aF11.956
aF7.564
aF15.128
aF12.444
aF10.248
aF9.516
aF15.372
aF9.76
aF11.468
aF12.688
aF13.908
aF9.516
aF10.736
aF10.492
aF14.152
aF10.98
aF13.908
aF14.152
aF7.808
aF11.224
aF7.564
aF10.736
aF10.736
as(I0
S'put HB13-4-biasvoltage[1-64]_f 64*0.000000'
p108
tp109
(lp110
S'OK'
p111
as(I40
S'get HB13-4-LeakageCurrent[1-64]_f_rr'
p112
tp113
(lp114
F11.468
aF7.076
aF10.004
aF12.444
aF6.1
aF10.736
aF7.32
aF5.368
aF2.684
aF9.76
aF9.028
aF11.956
aF7.564
aF9.516
aF6.832
aF7.564
aF8.54
aF15.86
aF6.1
aF8.784
aF5.612
aF6.832
aF9.272
aF10.98
aF11.468
aF4.392
aF12.688
aF5.856
aF7.32
aF12.444
aF4.88
aF10.736
aF6.1
aF9.76
aF8.54
aF7.808
aF5.856
aF9.272
aF7.564
aF5.856
aF10.736
aF9.516
aF5.368
aF12.444
aF10.004
aF7.808
aF7.076
aF13.176
aF7.564
aF9.272
aF10.248
aF11.712
aF7.076
aF8.296
aF8.052
aF11.956
aF8.54
aF11.468
aF11.712
aF5.612
aF8.784
aF5.612
aF8.296
aF8.54
as(I60
S'get HB13-4-LeakageCurrent[1-64]_f_rr'
p115
tp116
(lp117
F14.64
aF10.004
aF13.176
aF15.372
aF9.028
aF13.664
aF10.492
aF8.54
aF5.612
aF13.176
aF12.2
aF15.128
aF10.492
aF12.688
aF10.004
aF10.736
aF11.468
aF19.276
aF9.028
aF11.956
aF8.54
aF10.004
aF12.444
aF13.908
aF14.64
aF7.32
aF15.616
aF9.028
aF10.248
aF15.372
aF8.052
aF13.908
aF9.028
aF12.932
aF11.468
aF10.98
aF9.028
aF12.2
aF10.736
aF9.028
aF13.664
aF12.688
aF8.54
aF15.86
aF13.176
aF10.98
aF10.248
aF16.348
aF10.492
aF12.444
aF13.42
aF14.64
aF10.004
aF11.468
aF11.224
aF14.884
aF11.712
aF14.64
aF14.884
aF8.54
aF11.956
aF8.54
aF11.712
aF11.224
as(I20
S'get HB13-4-biasmon[1-64]_f_rr'
p118
tp119
(lp120
F20.0635
aF20.0635
aF20.083
aF20.0635
aF20.0635
aF20.0635
aF20.0635
aF20.083
aF20.083
aF20.083
aF20.083
aF20.083
aF20.0635
aF20.083
aF20.0635
aF20.0635
aF20.0635
aF20.0635
aF20.0635
aF20.083
aF20.0635
aF20.0635
aF20.0635
aF20.0635
aF20.083
aF20.0635
aF20.083
aF20.0635
aF20.0635
aF20.0635
aF20.0635
aF20.083
aF20.0635
aF20.083
aF20.0635
aF20.0635
aF20.0635
aF20.0635
aF20.0635
aF20.0635
aF20.0635
aF20.083
aF20.083
aF20.0635
aF20.0635
aF20.0635
aF20.0635
aF20.0635
aF20.0635
aF20.0635
aF20.0635
aF20.0635
aF20.0635
aF20.0635
aF20.0635
aF20.0635
aF20.083
aF20.0635
aF20.0635
aF20.0635
aF20.0635
aF20.0635
aF20.0635
aF20.0635
as(I30
S'get HB13-4-LeakageCurrent[1-64]_f_rr'
p121
tp122
(lp123
F10.004
aF5.612
aF8.296
aF10.736
aF4.636
aF9.272
aF5.856
aF3.66
aF1.708
aF8.296
aF7.32
aF10.248
aF6.1
aF8.052
aF5.368
aF6.344
aF6.832
aF14.396
aF4.636
aF7.32
aF4.148
aF5.124
aF7.564
aF9.516
aF10.004
aF2.928
aF11.224
aF4.148
aF5.856
aF10.736
aF3.416
aF9.272
aF4.636
aF8.052
aF6.832
aF6.1
aF4.392
aF7.564
aF6.1
aF4.392
aF9.028
aF7.808
aF3.66
aF10.98
aF8.54
aF6.344
aF5.612
aF11.468
aF6.1
aF7.564
aF8.54
aF10.004
aF5.612
aF6.832
aF6.588
aF10.248
aF6.832
aF9.76
aF10.004
aF3.904
aF7.32
aF3.904
aF6.832
aF7.076
as(I10
S'put HB13-4-biasvoltage[1-64]_f 64*10.000000'
p124
tp125
(lp126
S'OK'
p127
as(I15
S'get HB13-4-LeakageCurrent[1-64]_f_rr'
p128
tp129
(lp130
F7.808
aF3.172
aF6.1
aF8.54
aF2.928
aF7.076
aF3.66
aF1.708
aF1.708
aF6.1
aF4.88
aF7.564
aF3.904
aF5.856
aF3.172
aF3.904
aF4.88
aF11.956
aF2.44
aF4.88
aF2.196
aF2.684
aF5.368
aF7.32
aF7.564
aF1.708
aF8.784
aF2.196
aF3.66
aF8.54
aF1.708
aF7.32
aF2.44
aF5.612
aF4.392
aF3.904
aF2.196
aF5.368
aF3.66
aF2.196
aF6.832
aF5.612
aF1.708
aF8.54
aF6.344
aF4.148
aF3.172
aF9.028
aF3.66
aF5.368
aF6.588
aF7.808
aF3.172
aF4.392
aF4.392
aF8.052
aF4.636
aF7.564
aF7.564
aF1.708
aF5.124
aF2.196
aF4.392
aF4.636
as.