(dp0
(I26
S'get HB10-4-LeakageCurrent[1-64]_f_rr'
p1
tp2
(lp3
F1.708
aF5.368
aF9.516
aF10.004
aF10.736
aF4.148
aF7.564
aF4.88
aF6.1
aF9.76
aF6.832
aF7.808
aF10.004
aF2.928
aF4.88
aF3.416
aF9.76
aF9.272
aF5.856
aF8.54
aF4.636
aF7.564
aF7.32
aF2.928
aF4.636
aF3.416
aF8.296
aF9.76
aF6.832
aF11.224
aF8.296
aF9.028
aF5.612
aF4.392
aF9.76
aF9.76
aF6.588
aF7.808
aF11.468
aF13.908
aF4.636
aF9.028
aF4.392
aF4.636
aF9.516
aF11.468
aF5.368
aF7.564
aF10.004
aF6.588
aF7.564
aF3.416
aF6.344
aF1.952
aF6.1
aF5.368
aF5.612
aF4.148
aF3.66
aF5.856
aF4.392
aF8.052
aF5.124
aF10.98
as(I18
S'get HB10-4-biasmon[1-64]_f_rr'
p4
tp5
(lp6
F17.9145
aF17.9145
aF17.895
aF17.9145
aF17.9341
aF17.9341
aF17.9341
aF17.9341
aF17.9145
aF17.9145
aF17.9145
aF17.9341
aF17.9145
aF17.9341
aF17.9341
aF17.9341
aF17.9145
aF17.9145
aF17.9145
aF17.9145
aF17.9341
aF17.9341
aF17.9341
aF17.9341
aF17.9145
aF17.9145
aF17.9145
aF17.9145
aF17.9145
aF17.9341
aF17.9341
aF17.9341
aF17.9145
aF17.9145
aF17.9145
aF17.9341
aF17.9341
aF17.9341
aF17.9341
aF17.9145
aF17.9341
aF17.9145
aF17.9341
aF17.9145
aF17.9145
aF17.9145
aF17.9145
aF17.9145
aF17.9145
aF17.9341
aF17.9145
aF17.9145
aF17.9145
aF17.9341
aF17.9145
aF17.9341
aF17.9341
aF17.9145
aF17.9341
aF17.9341
aF17.9341
aF17.9145
aF17.9145
aF17.9341
as(I32
S'put HB10-4-biasvoltage[1-64]_f 64*32.000000'
p7
tp8
(lp9
S'OK'
p10
as(I46
S'put HB10-4-biasvoltage[1-64]_f 64*46.000000'
p11
tp12
(lp13
S'OK'
p14
as(I14
S'get HB10-4-biasmon[1-64]_f_rr'
p15
tp16
(lp17
F13.9683
aF13.9683
aF13.9487
aF13.9683
aF13.9683
aF13.9878
aF13.9683
aF13.9683
aF13.9683
aF13.9683
aF13.9683
aF13.9683
aF13.9683
aF13.9683
aF13.9683
aF13.9683
aF13.9683
aF13.9683
aF13.9487
aF13.9683
aF13.9683
aF13.9683
aF13.9878
aF13.9683
aF13.9683
aF13.9683
aF13.9683
aF13.9683
aF13.9683
aF13.9683
aF13.9683
aF13.9683
aF13.9683
aF13.9487
aF13.9683
aF13.9683
aF13.9878
aF13.9878
aF13.9878
aF13.9683
aF13.9683
aF13.9683
aF13.9683
aF13.9683
aF13.9683
aF13.9683
aF13.9683
aF13.9683
aF13.9683
aF13.9878
aF13.9683
aF13.9683
aF13.9683
aF13.9683
aF13.9683
aF13.9683
aF13.9683
aF13.9683
aF13.9683
aF13.9683
aF13.9683
aF13.9683
aF13.9683
aF13.9683
as(I40
S'put HB10-4-biasvoltage[1-64]_f 64*40.000000'
p18
tp19
(lp20
S'OK'
p21
as(I16
S'get HB10-4-LeakageCurrent[1-64]_f_rr'
p22
tp23
(lp24
F1.708
aF3.66
aF8.052
aF8.54
aF9.272
aF2.684
aF5.856
aF3.66
aF4.636
aF8.052
aF5.368
aF6.344
aF8.296
aF1.952
aF3.416
aF2.196
aF8.296
aF7.808
aF4.392
aF7.076
aF3.172
aF6.1
aF5.856
aF1.952
aF2.928
aF2.196
aF6.832
aF8.052
aF5.368
aF9.516
aF6.832
aF7.564
aF3.904
aF2.928
aF8.296
aF8.052
aF5.124
aF6.344
aF9.76
aF12.444
aF3.172
aF7.32
aF2.928
aF3.416
aF7.808
aF9.76
aF3.904
aF5.856
aF8.54
aF4.88
aF6.1
aF2.196
aF4.636
aF1.708
aF4.636
aF3.904
aF3.904
aF2.928
aF2.196
aF4.148
aF2.928
aF6.588
aF3.66
aF9.516
as(I58
S'get HB10-4-LeakageCurrent[1-64]_f_rr'
p25
tp26
(lp27
F4.636
aF10.492
aF14.64
aF15.128
aF15.86
aF9.272
aF12.444
aF10.004
aF11.224
aF14.64
aF11.956
aF12.932
aF14.884
aF7.564
aF9.76
aF8.54
aF14.884
aF13.908
aF10.492
aF13.664
aF9.516
aF12.688
aF12.2
aF7.808
aF9.516
aF8.54
aF13.42
aF14.884
aF11.712
aF16.348
aF13.42
aF13.908
aF10.492
aF9.516
aF14.64
aF14.884
aF11.712
aF12.688
aF16.348
aF19.032
aF9.272
aF13.908
aF9.516
aF9.516
aF14.396
aF16.348
aF10.248
aF12.444
aF15.128
aF11.712
aF12.444
aF8.54
aF11.224
aF6.588
aF11.224
aF10.248
aF10.492
aF9.272
aF8.296
aF10.98
aF9.272
aF12.932
aF10.004
aF15.86
as(I60
S'put HB10-4-biasvoltage[1-64]_f 64*60.000000'
p28
tp29
(lp30
S'OK'
p31
as(I52
S'put HB10-4-biasvoltage[1-64]_f 64*52.000000'
p32
tp33
(lp34
S'OK'
p35
as(I52
S'get HB10-4-LeakageCurrent[1-64]_f_rr'
p36
tp37
(lp38
F3.904
aF9.516
aF13.664
aF14.152
aF15.128
aF8.296
aF11.468
aF9.028
aF10.492
aF13.664
aF10.736
aF11.956
aF13.908
aF6.588
aF8.784
aF7.564
aF13.908
aF13.176
aF9.516
aF12.688
aF8.54
aF11.712
aF11.224
aF6.832
aF8.54
aF7.564
aF12.444
aF13.908
aF10.736
aF15.372
aF12.444
aF12.932
aF9.516
aF8.54
aF13.908
aF13.908
aF10.736
aF11.956
aF15.372
aF18.056
aF8.296
aF12.932
aF8.54
aF8.54
aF13.664
aF15.372
aF9.272
aF11.712
aF13.908
aF10.736
aF11.712
aF7.564
aF10.492
aF5.612
aF10.248
aF9.516
aF9.516
aF8.296
aF7.32
aF10.004
aF8.296
aF11.956
aF9.028
aF15.128
as(I38
S'get HB10-4-biasmon[1-64]_f_rr'
p39
tp40
(lp41
F37.7631
aF37.7631
aF37.7436
aF37.7631
aF37.7827
aF37.7827
aF37.7827
aF37.7827
aF37.7827
aF37.7631
aF37.7631
aF37.7827
aF37.7631
aF37.7827
aF37.7827
aF37.7827
aF37.7631
aF37.7631
aF37.7631
aF37.7827
aF37.7827
aF37.7827
aF37.8022
aF37.7827
aF37.7631
aF37.7631
aF37.7631
aF37.7827
aF37.7827
aF37.7827
aF37.7827
aF37.7827
aF37.7631
aF37.7631
aF37.7827
aF37.7827
aF37.7827
aF37.7827
aF37.7827
aF37.7827
aF37.7827
aF37.7631
aF37.7827
aF37.7631
aF37.7827
aF37.7827
aF37.7827
aF37.7827
aF37.7631
aF37.7827
aF37.7827
aF37.7631
aF37.7827
aF37.7827
aF37.7827
aF37.7827
aF37.7827
aF37.7631
aF37.7631
aF37.7827
aF37.7827
aF37.7827
aF37.7827
aF37.7827
as(I38
S'get HB10-4-LeakageCurrent[1-64]_f_rr'
p42
tp43
(lp44
F2.196
aF7.32
aF11.468
aF11.956
aF12.688
aF6.1
aF9.272
aF6.832
aF8.052
aF11.712
aF8.784
aF9.76
aF11.956
aF4.636
aF6.588
aF5.368
aF11.712
aF10.98
aF7.564
aF10.492
aF6.588
aF9.516
aF9.028
aF4.636
aF6.588
aF5.368
aF10.248
aF11.712
aF8.54
aF13.176
aF10.248
aF10.736
aF7.32
aF6.344
aF11.712
aF11.712
aF8.54
aF9.76
aF13.176
aF15.86
aF6.1
aF10.736
aF6.344
aF6.588
aF11.224
aF13.176
aF7.32
aF9.516
aF11.712
aF8.54
aF9.516
aF5.368
aF8.052
aF3.416
aF8.052
aF7.32
aF7.32
aF6.1
aF5.368
aF7.564
aF6.1
aF9.76
aF6.832
aF12.932
as(I34
S'put HB10-4-biasvoltage[1-64]_f 64*34.000000'
p45
tp46
(lp47
S'OK'
p48
as(I20
S'put HB10-4-biasvoltage[1-64]_f 64*20.000000'
p49
tp50
(lp51
S'OK'
p52
as(I48
S'get HB10-4-LeakageCurrent[1-64]_f_rr'
p53
tp54
(lp55
F3.416
aF8.784
aF13.176
aF13.664
aF14.396
aF7.564
aF10.736
aF8.54
aF9.76
aF13.176
aF10.004
aF11.224
aF13.42
aF6.1
aF8.296
aF6.832
aF13.42
aF12.444
aF9.028
aF12.2
aF7.808
aF10.98
aF10.736
aF6.344
aF8.052
aF6.832
aF11.712
aF13.176
aF10.248
aF14.64
aF11.712
aF12.444
aF9.028
aF7.808
aF13.176
aF13.42
aF10.004
aF11.468
aF14.64
aF17.324
aF7.564
aF12.444
aF7.808
aF8.052
aF12.932
aF14.64
aF8.54
aF10.98
aF13.42
aF10.004
aF10.98
aF6.832
aF9.76
aF4.88
aF9.516
aF8.784
aF9.028
aF7.564
aF6.832
aF9.272
aF7.808
aF11.468
aF8.54
aF14.396
as(I28
S'put HB10-4-biasvoltage[1-64]_f 64*28.000000'
p56
tp57
(lp58
S'OK'
p59
as(I6
S'put HB10-4-biasvoltage[1-64]_f 64*6.000000'
p60
tp61
(lp62
S'OK'
p63
as(I52
S'get HB10-4-biasmon[1-64]_f_rr'
p64
tp65
(lp66
F51.6532
aF51.6728
aF51.6532
aF51.6728
aF51.6923
aF51.6923
aF51.6728
aF51.6728
aF51.6728
aF51.6728
aF51.6728
aF51.6728
aF51.6728
aF51.6923
aF51.6923
aF51.6923
aF51.6728
aF51.6532
aF51.6532
aF51.6728
aF51.6728
aF51.6923
aF51.6923
aF51.6923
aF51.6728
aF51.6728
aF51.6728
aF51.6728
aF51.6923
aF51.6923
aF51.6923
aF51.6923
aF51.6532
aF51.6728
aF51.6728
aF51.6728
aF51.6923
aF51.6923
aF51.6923
aF51.6923
aF51.6728
aF51.6728
aF51.6728
aF51.6728
aF51.6728
aF51.6728
aF51.6728
aF51.6728
aF51.6728
aF51.6728
aF51.6728
aF51.6728
aF51.6923
aF51.6923
aF51.6923
aF51.6728
aF51.6728
aF51.6728
aF51.6728
aF51.6728
aF51.6923
aF51.6728
aF51.6728
aF51.6728
as(I42
S'put HB10-4-biasvoltage[1-64]_f 64*42.000000'
p67
tp68
(lp69
S'OK'
p70
as(I32
S'get HB10-4-LeakageCurrent[1-64]_f_rr'
p71
tp72
(lp73
F1.708
aF6.344
aF10.736
aF10.98
aF11.712
aF5.124
aF8.296
aF5.856
aF7.32
aF10.736
aF7.808
aF8.784
aF10.736
aF3.66
aF5.612
aF4.392
aF10.736
aF10.004
aF6.588
aF9.516
aF5.612
aF8.54
aF8.052
aF3.904
aF5.612
aF4.392
aF9.272
aF10.736
aF7.564
aF12.2
aF9.272
aF10.004
aF6.588
aF5.368
aF10.736
aF10.736
aF7.564
aF8.784
aF12.2
aF14.884
aF5.368
aF9.76
aF5.368
aF5.612
aF10.492
aF12.444
aF6.344
aF8.296
aF10.98
aF7.564
aF8.54
aF4.392
aF7.32
aF2.684
aF7.076
aF6.344
aF6.588
aF5.124
aF4.392
aF6.832
aF5.368
aF8.784
aF5.856
aF11.956
as(I2
S'get HB10-4-LeakageCurrent[1-64]_f_rr'
p74
tp75
(lp76
F1.708
aF2.196
aF5.612
aF6.588
aF6.832
aF1.952
aF3.416
aF1.952
aF2.196
aF5.856
aF3.172
aF4.392
aF6.344
aF1.708
aF1.952
aF1.952
aF6.1
aF5.856
aF2.684
aF4.88
aF1.708
aF3.904
aF3.66
aF1.708
aF1.708
aF1.952
aF4.636
aF5.856
aF2.928
aF7.076
aF4.636
aF5.368
aF1.952
aF1.952
aF6.1
aF5.368
aF2.928
aF4.148
aF7.564
aF10.492
aF1.952
aF4.88
aF1.708
aF1.952
aF5.856
aF7.808
aF2.196
aF3.416
aF6.1
aF2.928
aF3.904
aF1.952
aF2.684
aF1.708
aF2.684
aF2.196
aF1.952
aF1.952
aF1.708
aF2.196
aF1.708
aF4.636
aF1.952
aF7.564
as(I16
S'put HB10-4-biasvoltage[1-64]_f 64*16.000000'
p77
tp78
(lp79
S'OK'
p80
as(I20
S'get HB10-4-biasmon[1-64]_f_rr'
p81
tp82
(lp83
F19.9267
aF19.9267
aF19.9072
aF19.9267
aF19.9267
aF19.9267
aF19.9267
aF19.9267
aF19.9267
aF19.9072
aF19.9072
aF19.9267
aF19.9267
aF19.9267
aF19.9267
aF19.9267
aF19.9072
aF19.9072
aF19.9072
aF19.9267
aF19.9267
aF19.9267
aF19.9267
aF19.9267
aF19.9267
aF19.9267
aF19.9072
aF19.9267
aF19.9267
aF19.9267
aF19.9267
aF19.9267
aF19.9072
aF19.9072
aF19.9267
aF19.9267
aF19.9267
aF19.9267
aF19.9267
aF19.9267
aF19.9267
aF19.9267
aF19.9267
aF19.9267
aF19.9267
aF19.9267
aF19.9072
aF19.9267
aF19.9267
aF19.9267
aF19.9072
aF19.9072
aF19.9267
aF19.9267
aF19.9267
aF19.9267
aF19.9267
aF19.9072
aF19.9267
aF19.9267
aF19.9267
aF19.9267
aF19.9267
aF19.9267
as(I0
S'get HB10-4-biasmon[1-64]_f_rr'
p84
tp85
(lp86
F0.0586081
aF0.0586081
aF0.0586081
aF0.0586081
aF0.0586081
aF0.0586081
aF0.0586081
aF0.0586081
aF0.0586081
aF0.0586081
aF0.0586081
aF0.0586081
aF0.0586081
aF0.0586081
aF0.0586081
aF0.0586081
aF0.0586081
aF0.0586081
aF0.0586081
aF0.0586081
aF0.0586081
aF0.0586081
aF0.0586081
aF0.0586081
aF0.0586081
aF0.0586081
aF0.0586081
aF0.0586081
aF0.0586081
aF0.0586081
aF0.0586081
aF0.0586081
aF0.0586081
aF0.0586081
aF0.0586081
aF0.0586081
aF0.0586081
aF0.0586081
aF0.0586081
aF0.0586081
aF0.0586081
aF0.0586081
aF0.0586081
aF0.0586081
aF0.0586081
aF0.0586081
aF0.0586081
aF0.0586081
aF0.0586081
aF0.0586081
aF0.0586081
aF0.0586081
aF0.0586081
aF0.0586081
aF0.0586081
aF0.0586081
aF0.0586081
aF0.0586081
aF0.0586081
aF0.0586081
aF0.0586081
aF0.0586081
aF0.0586081
aF0.0586081
as(I56
S'get HB10-4-biasmon[1-64]_f_rr'
p87
tp88
(lp89
F55.619
aF55.619
aF55.5995
aF55.619
aF55.6386
aF55.6386
aF55.6386
aF55.619
aF55.619
aF55.619
aF55.619
aF55.619
aF55.619
aF55.6386
aF55.6386
aF55.6386
aF55.619
aF55.619
aF55.5995
aF55.619
aF55.619
aF55.6386
aF55.6386
aF55.6386
aF55.619
aF55.619
aF55.619
aF55.6386
aF55.6386
aF55.6386
aF55.6386
aF55.6386
aF55.619
aF55.619
aF55.619
aF55.619
aF55.6386
aF55.6386
aF55.6386
aF55.6386
aF55.619
aF55.619
aF55.619
aF55.619
aF55.6386
aF55.619
aF55.619
aF55.6386
aF55.619
aF55.6386
aF55.619
aF55.619
aF55.6386
aF55.6386
aF55.6386
aF55.6386
aF55.619
aF55.619
aF55.6386
aF55.619
aF55.6386
aF55.6386
aF55.6386
aF55.6386
as(I0
S'put HB10-4-biasvoltage[1-64]_f 64*0.000000'
p90
tp91
(lp92
S'OK'
p93
as(I24
S'get HB10-4-biasmon[1-64]_f_rr'
p94
tp95
(lp96
F23.873
aF23.873
aF23.873
aF23.873
aF23.873
aF23.873
aF23.873
aF23.873
aF23.873
aF23.873
aF23.873
aF23.873
aF23.873
aF23.873
aF23.873
aF23.873
aF23.873
aF23.873
aF23.873
aF23.873
aF23.873
aF23.8926
aF23.8926
aF23.8926
aF23.873
aF23.873
aF23.873
aF23.873
aF23.873
aF23.873
aF23.8926
aF23.8926
aF23.873
aF23.873
aF23.873
aF23.873
aF23.8926
aF23.8926
aF23.8926
aF23.873
aF23.873
aF23.873
aF23.873
aF23.873
aF23.873
aF23.873
aF23.873
aF23.873
aF23.873
aF23.873
aF23.873
aF23.873
aF23.8926
aF23.873
aF23.873
aF23.873
aF23.873
aF23.873
aF23.873
aF23.873
aF23.8926
aF23.873
aF23.873
aF23.8926
as(I2
S'get HB10-4-biasmon[1-64]_f_rr'
p97
tp98
(lp99
F2.03175
aF2.03175
aF2.03175
aF2.03175
aF2.03175
aF2.03175
aF2.03175
aF2.05128
aF2.03175
aF2.03175
aF2.03175
aF2.03175
aF2.03175
aF2.05128
aF2.03175
aF2.03175
aF2.03175
aF2.03175
aF2.03175
aF2.05128
aF2.03175
aF2.05128
aF2.05128
aF2.05128
aF2.03175
aF2.03175
aF2.03175
aF2.05128
aF2.03175
aF2.05128
aF2.03175
aF2.03175
aF2.03175
aF2.03175
aF2.03175
aF2.05128
aF2.03175
aF2.05128
aF2.05128
aF2.03175
aF2.03175
aF2.03175
aF2.03175
aF2.05128
aF2.03175
aF2.03175
aF2.03175
aF2.03175
aF2.03175
aF2.05128
aF2.03175
aF2.03175
aF2.05128
aF2.03175
aF2.05128
aF2.03175
aF2.05128
aF2.03175
aF2.03175
aF2.05128
aF2.03175
aF2.03175
aF2.03175
aF2.05128
as(I58
S'put HB10-4-biasvoltage[1-64]_f 64*58.000000'
p100
tp101
(lp102
S'OK'
p103
as(I58
S'get HB10-4-biasmon[1-64]_f_rr'
p104
tp105
(lp106
F57.6117
aF57.6117
aF57.5922
aF57.6117
aF57.6313
aF57.6313
aF57.6313
aF57.6313
aF57.6117
aF57.6313
aF57.6117
aF57.6313
aF57.6117
aF57.6508
aF57.6508
aF57.6313
aF57.6117
aF57.6117
aF57.6117
aF57.6117
aF57.6313
aF57.6313
aF57.6313
aF57.6313
aF57.6117
aF57.6117
aF57.6117
aF57.6313
aF57.6313
aF57.6313
aF57.6508
aF57.6313
aF57.6117
aF57.6117
aF57.6117
aF57.6313
aF57.6313
aF57.6313
aF57.6508
aF57.6313
aF57.6313
aF57.6313
aF57.6313
aF57.6313
aF57.6313
aF57.6117
aF57.6313
aF57.6313
aF57.6313
aF57.6508
aF57.6313
aF57.6117
aF57.6313
aF57.6313
aF57.6313
aF57.6313
aF57.6313
aF57.6117
aF57.6313
aF57.6117
aF57.6313
aF57.6313
aF57.6313
aF57.6313
as(I56
S'put HB10-4-biasvoltage[1-64]_f 64*56.000000'
p107
tp108
(lp109
S'OK'
p110
as(I54
S'get HB10-4-biasmon[1-64]_f_rr'
p111
tp112
(lp113
F53.6459
aF53.6459
aF53.6264
aF53.6459
aF53.6654
aF53.6654
aF53.6654
aF53.6654
aF53.6459
aF53.6459
aF53.6459
aF53.6459
aF53.6459
aF53.6654
aF53.6654
aF53.6654
aF53.6459
aF53.6264
aF53.6264
aF53.6459
aF53.6654
aF53.6654
aF53.6654
aF53.6654
aF53.6459
aF53.6459
aF53.6654
aF53.6459
aF53.6654
aF53.6654
aF53.6654
aF53.6654
aF53.6459
aF53.6459
aF53.6459
aF53.6654
aF53.6654
aF53.6654
aF53.6654
aF53.6654
aF53.6459
aF53.6459
aF53.6654
aF53.6459
aF53.6459
aF53.6654
aF53.6654
aF53.6654
aF53.6459
aF53.6654
aF53.6654
aF53.6459
aF53.6654
aF53.6654
aF53.6654
aF53.6654
aF53.6459
aF53.6459
aF53.6459
aF53.6654
aF53.6654
aF53.6654
aF53.6654
aF53.6654
as(I8
S'get HB10-4-LeakageCurrent[1-64]_f_rr'
p114
tp115
(lp116
F1.708
aF2.44
aF7.076
aF7.564
aF7.808
aF1.952
aF4.392
aF2.196
aF3.416
aF6.832
aF4.392
aF5.368
aF7.076
aF1.708
aF2.196
aF1.952
aF6.832
aF6.832
aF3.416
aF5.856
aF2.196
aF4.88
aF4.392
aF1.708
aF1.952
aF1.952
aF5.612
aF6.588
aF3.904
aF8.296
aF5.612
aF6.344
aF2.684
aF2.196
aF7.076
aF6.832
aF3.904
aF5.124
aF8.54
aF11.224
aF2.196
aF5.856
aF1.952
aF2.196
aF6.588
aF8.54
aF2.928
aF4.392
aF7.076
aF3.904
aF4.636
aF1.952
aF3.416
aF1.708
aF3.172
aF2.684
aF2.684
aF2.196
aF1.708
aF2.928
aF1.952
aF5.368
aF2.44
aF8.052
as(I8
S'put HB10-4-biasvoltage[1-64]_f 64*8.000000'
p117
tp118
(lp119
S'OK'
p120
as(I26
S'put HB10-4-biasvoltage[1-64]_f 64*26.000000'
p121
tp122
(lp123
S'OK'
p124
as(I30
S'get HB10-4-LeakageCurrent[1-64]_f_rr'
p125
tp126
(lp127
F1.708
aF6.1
aF10.248
aF10.736
aF11.712
aF4.88
aF8.052
aF5.612
aF6.832
aF10.492
aF7.564
aF8.54
aF10.492
aF3.416
aF5.368
aF4.148
aF10.492
aF9.76
aF6.344
aF9.272
aF5.368
aF8.296
aF7.808
aF3.66
aF5.124
aF4.148
aF9.028
aF10.248
aF7.32
aF11.956
aF8.784
aF9.516
aF6.1
aF5.124
aF10.492
aF10.492
aF7.32
aF8.54
aF11.956
aF14.64
aF5.124
aF9.516
aF5.124
aF5.368
aF10.004
aF11.956
aF6.1
aF8.052
aF10.492
aF7.32
aF8.296
aF4.148
aF6.832
aF2.44
aF6.832
aF6.1
aF6.1
aF4.88
aF4.148
aF6.588
aF4.88
aF8.54
aF5.856
aF11.712
as(I26
S'get HB10-4-biasmon[1-64]_f_rr'
p128
tp129
(lp130
F25.8657
aF25.8657
aF25.8462
aF25.8657
aF25.8657
aF25.8657
aF25.8657
aF25.8657
aF25.8657
aF25.8657
aF25.8657
aF25.8657
aF25.8657
aF25.8657
aF25.8657
aF25.8657
aF25.8657
aF25.8657
aF25.8462
aF25.8657
aF25.8657
aF25.8852
aF25.8852
aF25.8852
aF25.8657
aF25.8657
aF25.8657
aF25.8657
aF25.8657
aF25.8852
aF25.8657
aF25.8657
aF25.8657
aF25.8657
aF25.8657
aF25.8657
aF25.8657
aF25.8852
aF25.8852
aF25.8657
aF25.8657
aF25.8657
aF25.8657
aF25.8657
aF25.8657
aF25.8657
aF25.8657
aF25.8657
aF25.8657
aF25.8657
aF25.8657
aF25.8657
aF25.8852
aF25.8657
aF25.8657
aF25.8657
aF25.8657
aF25.8657
aF25.8657
aF25.8657
aF25.8657
aF25.8657
aF25.8657
aF25.8657
as(I22
S'get HB10-4-biasmon[1-64]_f_rr'
p131
tp132
(lp133
F21.8803
aF21.8803
aF21.8803
aF21.8999
aF21.8999
aF21.8999
aF21.8999
aF21.8999
aF21.8999
aF21.8803
aF21.8803
aF21.8999
aF21.8999
aF21.8999
aF21.8999
aF21.8999
aF21.8999
aF21.8803
aF21.8803
aF21.8999
aF21.8999
aF21.8999
aF21.8999
aF21.8999
aF21.8803
aF21.8803
aF21.8803
aF21.8999
aF21.8803
aF21.8999
aF21.8999
aF21.8999
aF21.8803
aF21.8803
aF21.8803
aF21.8999
aF21.8999
aF21.8999
aF21.8999
aF21.8999
aF21.8999
aF21.8999
aF21.8999
aF21.8999
aF21.8999
aF21.8999
aF21.8999
aF21.8999
aF21.8999
aF21.8999
aF21.8803
aF21.8803
aF21.8999
aF21.8999
aF21.8999
aF21.8999
aF21.8999
aF21.8803
aF21.8999
aF21.8999
aF21.8999
aF21.8803
aF21.8999
aF21.8999
as(I40
S'get HB10-4-LeakageCurrent[1-64]_f_rr'
p134
tp135
(lp136
F2.196
aF7.564
aF11.712
aF12.2
aF13.176
aF6.344
aF9.516
aF7.32
aF8.54
aF11.956
aF9.272
aF10.004
aF12.2
aF4.88
aF6.832
aF5.612
aF11.956
aF11.224
aF7.808
aF10.98
aF6.832
aF9.76
aF9.516
aF5.124
aF6.832
aF5.612
aF10.736
aF11.956
aF9.028
aF13.664
aF10.492
aF11.224
aF7.564
aF6.588
aF11.956
aF11.956
aF8.784
aF10.004
aF13.42
aF16.104
aF6.588
aF11.224
aF6.588
aF6.832
aF11.712
aF13.664
aF7.564
aF9.516
aF12.2
aF8.784
aF9.76
aF5.612
aF8.54
aF3.66
aF8.54
aF7.564
aF7.564
aF6.344
aF5.612
aF8.052
aF6.588
aF10.248
aF7.32
aF13.176
as(I24
S'get HB10-4-LeakageCurrent[1-64]_f_rr'
p137
tp138
(lp139
F1.708
aF4.88
aF9.272
aF9.76
aF10.492
aF3.904
aF7.076
aF4.636
aF5.856
aF9.272
aF6.588
aF7.564
aF9.516
aF2.684
aF4.636
aF3.172
aF9.516
aF8.784
aF5.368
aF8.296
aF4.148
aF7.32
aF6.832
aF2.684
aF4.148
aF3.172
aF8.052
aF9.516
aF6.588
aF10.98
aF7.808
aF8.784
aF5.368
aF4.148
aF9.516
aF9.516
aF6.344
aF7.564
aF10.98
aF13.664
aF4.148
aF8.54
aF4.148
aF4.392
aF9.272
aF10.98
aF5.124
aF7.32
aF9.516
aF6.344
aF7.32
aF3.172
aF5.856
aF1.952
aF5.856
aF5.124
aF5.124
aF3.904
aF3.416
aF5.612
aF3.904
aF7.564
aF4.636
aF10.736
as(I36
S'get HB10-4-LeakageCurrent[1-64]_f_rr'
p140
tp141
(lp142
F1.952
aF6.832
aF11.224
aF11.712
aF12.444
aF5.856
aF9.028
aF6.588
aF7.808
aF11.224
aF8.54
aF9.516
aF11.468
aF4.148
aF6.344
aF5.124
aF11.468
aF10.736
aF7.32
aF10.248
aF6.1
aF9.272
aF8.784
aF4.392
aF6.1
aF4.88
aF10.004
aF11.468
aF8.296
aF12.932
aF9.76
aF10.492
aF7.076
aF6.1
aF11.468
aF11.468
aF8.296
aF9.516
aF12.688
aF15.372
aF5.856
aF10.492
aF5.856
aF6.1
aF10.98
aF12.932
aF6.832
aF9.028
aF11.712
aF8.052
aF9.272
aF5.124
aF7.808
aF3.172
aF7.564
aF6.832
aF7.076
aF5.856
aF5.124
aF7.564
aF5.856
aF9.516
aF6.588
aF12.444
as(I54
S'put HB10-4-biasvoltage[1-64]_f 64*54.000000'
p143
tp144
(lp145
S'OK'
p146
as(I50
S'put HB10-4-biasvoltage[1-64]_f 64*50.000000'
p147
tp148
(lp149
S'OK'
p150
as(I46
S'get HB10-4-biasmon[1-64]_f_rr'
p151
tp152
(lp153
F45.7143
aF45.7143
aF45.6948
aF45.7143
aF45.7338
aF45.7338
aF45.7143
aF45.7338
aF45.7143
aF45.7143
aF45.6948
aF45.7143
aF45.7143
aF45.7338
aF45.7338
aF45.7338
aF45.7143
aF45.6948
aF45.6948
aF45.7143
aF45.7143
aF45.7338
aF45.7338
aF45.7338
aF45.7143
aF45.7143
aF45.7143
aF45.7143
aF45.7143
aF45.7338
aF45.7338
aF45.7338
aF45.7143
aF45.6948
aF45.7143
aF45.7338
aF45.7338
aF45.7338
aF45.7338
aF45.7338
aF45.7143
aF45.7143
aF45.7143
aF45.7143
aF45.7143
aF45.7143
aF45.7143
aF45.7143
aF45.7143
aF45.7338
aF45.7143
aF45.7143
aF45.7338
aF45.7338
aF45.7143
aF45.7143
aF45.7143
aF45.6948
aF45.7143
aF45.7143
aF45.7338
aF45.7338
aF45.7338
aF45.7338
as(I46
S'get HB10-4-LeakageCurrent[1-64]_f_rr'
p154
tp155
(lp156
F3.172
aF8.54
aF12.688
aF13.176
aF14.152
aF7.32
aF10.492
aF8.052
aF9.516
aF12.932
aF10.004
aF10.98
aF13.176
aF5.856
aF7.808
aF6.588
aF12.932
aF12.2
aF8.54
aF11.956
aF7.564
aF10.736
aF10.492
aF5.856
aF7.564
aF6.588
aF11.712
aF12.932
aF9.76
aF14.396
aF11.468
aF11.956
aF8.54
aF7.564
aF12.932
aF12.932
aF9.76
aF10.98
aF14.396
aF17.08
aF7.32
aF11.956
aF7.564
aF7.564
aF12.688
aF14.396
aF8.296
aF10.736
aF13.176
aF9.76
aF10.736
aF6.588
aF9.516
aF4.636
aF9.272
aF8.54
aF8.54
aF7.32
aF6.588
aF9.028
aF7.564
aF11.224
aF8.052
aF14.152
as(I4
S'put HB10-4-biasvoltage[1-64]_f 64*4.000000'
p157
tp158
(lp159
S'OK'
p160
as(I56
S'get HB10-4-LeakageCurrent[1-64]_f_rr'
p161
tp162
(lp163
F4.392
aF10.004
aF14.396
aF14.64
aF15.616
aF8.784
aF11.956
aF9.516
aF10.98
aF14.396
aF11.712
aF12.444
aF14.64
aF7.32
aF9.516
aF8.052
aF14.64
aF13.664
aF10.004
aF13.42
aF9.272
aF12.444
aF11.956
aF7.564
aF9.272
aF8.052
aF13.176
aF14.396
aF11.468
aF16.104
aF12.932
aF13.664
aF10.248
aF9.272
aF14.396
aF14.64
aF11.468
aF12.688
aF15.86
aF18.544
aF9.028
aF13.664
aF9.272
aF9.272
aF14.152
aF15.86
aF10.004
aF12.2
aF14.64
aF11.468
aF12.444
aF8.052
aF10.98
aF6.344
aF10.736
aF10.004
aF10.248
aF8.784
aF7.808
aF10.736
aF9.028
aF12.688
aF9.516
aF15.616
as(I4
S'get HB10-4-biasmon[1-64]_f_rr'
p164
tp165
(lp166
F4.04396
aF4.04396
aF4.02442
aF4.04396
aF4.04396
aF4.04396
aF4.04396
aF4.04396
aF4.04396
aF4.04396
aF4.04396
aF4.04396
aF4.04396
aF4.04396
aF4.04396
aF4.04396
aF4.04396
aF4.04396
aF4.02442
aF4.04396
aF4.04396
aF4.04396
aF4.04396
aF4.04396
aF4.04396
aF4.04396
aF4.04396
aF4.04396
aF4.04396
aF4.04396
aF4.02442
aF4.04396
aF4.02442
aF4.04396
aF4.04396
aF4.04396
aF4.04396
aF4.04396
aF4.04396
aF4.04396
aF4.04396
aF4.04396
aF4.04396
aF4.04396
aF4.04396
aF4.04396
aF4.04396
aF4.04396
aF4.04396
aF4.04396
aF4.02442
aF4.02442
aF4.04396
aF4.04396
aF4.04396
aF4.04396
aF4.04396
aF4.04396
aF4.04396
aF4.04396
aF4.04396
aF4.04396
aF4.04396
aF4.04396
as(I14
S'put HB10-4-biasvoltage[1-64]_f 64*14.000000'
p167
tp168
(lp169
S'OK'
p170
as(I60
S'get HB10-4-biasmon[1-64]_f_rr'
p171
tp172
(lp173
F59.5849
aF59.5849
aF59.5849
aF59.5849
aF59.6044
aF59.6239
aF59.6044
aF59.6044
aF59.6044
aF59.6044
aF59.5849
aF59.6044
aF59.6044
aF59.6239
aF59.6239
aF59.6044
aF59.5849
aF59.5849
aF59.5849
aF59.6044
aF59.6044
aF59.6044
aF59.6239
aF59.6239
aF59.6044
aF59.6044
aF59.6044
aF59.6044
aF59.6044
aF59.6239
aF59.6239
aF59.6239
aF59.5849
aF59.5849
aF59.6044
aF59.6044
aF59.6044
aF59.6239
aF59.6239
aF59.6239
aF59.6044
aF59.6044
aF59.6044
aF59.6044
aF59.6044
aF59.6044
aF59.6044
aF59.6044
aF59.6044
aF59.6239
aF59.6044
aF59.5849
aF59.6239
aF59.6239
aF59.6044
aF59.6044
aF59.6044
aF59.5849
aF59.6044
aF59.6044
aF59.6044
aF59.6044
aF59.6044
aF59.6239
as(I40
S'get HB10-4-biasmon[1-64]_f_rr'
p174
tp175
(lp176
F39.7558
aF39.7363
aF39.7363
aF39.7558
aF39.7753
aF39.7558
aF39.7558
aF39.7558
aF39.7558
aF39.7558
aF39.7363
aF39.7558
aF39.7558
aF39.7558
aF39.7558
aF39.7558
aF39.7558
aF39.7363
aF39.7363
aF39.7558
aF39.7558
aF39.7753
aF39.7558
aF39.7753
aF39.7363
aF39.7558
aF39.7558
aF39.7558
aF39.7558
aF39.7558
aF39.7753
aF39.7558
aF39.7363
aF39.7363
aF39.7558
aF39.7558
aF39.7558
aF39.7753
aF39.7753
aF39.7558
aF39.7558
aF39.7558
aF39.7558
aF39.7558
aF39.7558
aF39.7558
aF39.7558
aF39.7558
aF39.7558
aF39.7558
aF39.7558
aF39.7363
aF39.7753
aF39.7753
aF39.7558
aF39.7558
aF39.7558
aF39.7558
aF39.7558
aF39.7558
aF39.7558
aF39.7558
aF39.7558
aF39.7558
as(I36
S'put HB10-4-biasvoltage[1-64]_f 64*36.000000'
p177
tp178
(lp179
S'OK'
p180
as(I6
S'get HB10-4-LeakageCurrent[1-64]_f_rr'
p181
tp182
(lp183
F1.708
aF2.196
aF6.832
aF6.832
aF7.564
aF1.952
aF3.904
aF2.196
aF2.928
aF6.832
aF3.66
aF5.124
aF6.588
aF1.708
aF2.196
aF1.708
aF6.832
aF6.588
aF2.928
aF5.612
aF1.952
aF4.636
aF3.904
aF1.708
aF1.708
aF1.952
aF5.124
aF6.1
aF3.66
aF8.052
aF4.88
aF6.1
aF2.684
aF1.952
aF7.076
aF6.1
aF3.66
aF4.88
aF8.54
aF10.98
aF1.952
aF5.368
aF1.708
aF2.44
aF6.588
aF8.54
aF2.928
aF4.392
aF6.832
aF3.172
aF4.88
aF1.952
aF3.172
aF1.708
aF3.416
aF2.44
aF2.44
aF1.952
aF1.708
aF2.684
aF1.952
aF4.636
aF2.44
aF7.808
as(I28
S'get HB10-4-biasmon[1-64]_f_rr'
p184
tp185
(lp186
F27.8388
aF27.8388
aF27.8388
aF27.8388
aF27.8584
aF27.8584
aF27.8388
aF27.8584
aF27.8388
aF27.8388
aF27.8388
aF27.8388
aF27.8388
aF27.8388
aF27.8584
aF27.8388
aF27.8388
aF27.8388
aF27.8388
aF27.8388
aF27.8388
aF27.8584
aF27.8584
aF27.8584
aF27.8388
aF27.8388
aF27.8388
aF27.8388
aF27.8388
aF27.8584
aF27.8584
aF27.8584
aF27.8388
aF27.8388
aF27.8388
aF27.8388
aF27.8584
aF27.8584
aF27.8584
aF27.8584
aF27.8388
aF27.8388
aF27.8584
aF27.8388
aF27.8388
aF27.8584
aF27.8388
aF27.8584
aF27.8388
aF27.8584
aF27.8388
aF27.8388
aF27.8584
aF27.8584
aF27.8584
aF27.8584
aF27.8388
aF27.8388
aF27.8388
aF27.8388
aF27.8584
aF27.8388
aF27.8584
aF27.8584
as(I8
S'get HB10-4-biasmon[1-64]_f_rr'
p187
tp188
(lp189
F7.99023
aF7.99023
aF7.9707
aF7.99023
aF7.99023
aF7.99023
aF7.99023
aF7.99023
aF7.99023
aF7.99023
aF7.99023
aF7.99023
aF7.99023
aF7.99023
aF7.99023
aF7.99023
aF7.99023
aF7.99023
aF7.99023
aF7.99023
aF7.99023
aF8.00977
aF7.99023
aF7.99023
aF7.99023
aF7.99023
aF7.99023
aF7.99023
aF7.99023
aF7.99023
aF7.99023
aF7.99023
aF7.99023
aF7.99023
aF7.99023
aF7.99023
aF7.99023
aF7.99023
aF7.99023
aF7.99023
aF7.99023
aF7.99023
aF7.99023
aF7.99023
aF7.99023
aF7.99023
aF7.99023
aF7.99023
aF7.99023
aF7.99023
aF7.99023
aF7.99023
aF7.99023
aF7.99023
aF7.99023
aF7.99023
aF7.99023
aF7.99023
aF7.99023
aF7.99023
aF7.99023
aF7.99023
aF7.99023
aF7.99023
as(I0
S'get HB10-4-LeakageCurrent[1-64]_f_rr'
p190
tp191
(lp192
F1.708
aF1.952
aF5.612
aF5.856
aF6.588
aF1.952
aF3.172
aF1.952
aF2.196
aF5.612
aF2.928
aF3.904
aF5.856
aF1.708
aF1.952
aF1.952
aF5.612
aF5.612
aF2.196
aF4.636
aF1.708
aF3.66
aF3.416
aF1.952
aF1.708
aF1.952
aF4.392
aF5.368
aF2.928
aF6.832
aF4.148
aF5.124
aF1.952
aF1.952
aF6.1
aF5.124
aF2.684
aF3.66
aF7.564
aF10.248
aF1.952
aF4.636
aF1.708
aF1.952
aF5.368
aF7.32
aF1.952
aF3.172
aF5.856
aF2.684
aF3.66
aF1.952
aF2.44
aF1.708
aF2.196
aF2.196
aF1.952
aF1.952
aF1.708
aF2.196
aF1.708
aF3.904
aF1.708
aF6.832
as(I42
S'get HB10-4-biasmon[1-64]_f_rr'
p193
tp194
(lp195
F41.7289
aF41.7485
aF41.7289
aF41.7485
aF41.7485
aF41.7485
aF41.7485
aF41.7485
aF41.7485
aF41.7485
aF41.7485
aF41.7485
aF41.7485
aF41.768
aF41.768
aF41.7485
aF41.7485
aF41.7289
aF41.7289
aF41.7485
aF41.7485
aF41.7485
aF41.768
aF41.768
aF41.7485
aF41.7485
aF41.7485
aF41.7485
aF41.7485
aF41.768
aF41.768
aF41.768
aF41.7485
aF41.7485
aF41.7485
aF41.7485
aF41.7485
aF41.768
aF41.768
aF41.7485
aF41.7485
aF41.7485
aF41.7485
aF41.7485
aF41.7485
aF41.7485
aF41.7485
aF41.7485
aF41.7485
aF41.768
aF41.7485
aF41.7289
aF41.768
aF41.768
aF41.7485
aF41.7485
aF41.7485
aF41.7485
aF41.7485
aF41.7485
aF41.7485
aF41.7485
aF41.7485
aF41.768
as(I12
S'get HB10-4-LeakageCurrent[1-64]_f_rr'
p196
tp197
(lp198
F1.708
aF2.928
aF7.564
aF7.808
aF8.54
aF2.44
aF5.124
aF2.928
aF3.904
aF7.564
aF4.636
aF5.856
aF7.564
aF1.708
aF2.684
aF1.952
aF7.564
aF7.32
aF3.66
aF6.588
aF2.684
aF5.368
aF5.124
aF1.708
aF2.44
aF1.952
aF6.1
aF7.564
aF4.636
aF9.028
aF5.856
aF6.832
aF3.416
aF2.44
aF7.808
aF7.32
aF4.392
aF5.612
aF9.272
aF11.956
aF2.684
aF6.588
aF2.196
aF2.684
aF7.32
aF9.272
aF3.416
aF5.124
aF7.808
aF4.148
aF5.612
aF1.952
aF4.148
aF1.708
aF3.904
aF3.416
aF3.416
aF2.44
aF1.952
aF3.66
aF2.44
aF5.856
aF2.928
aF8.784
as(I22
S'get HB10-4-LeakageCurrent[1-64]_f_rr'
p199
tp200
(lp201
F1.708
aF4.636
aF9.028
aF9.516
aF10.248
aF3.66
aF6.832
aF4.392
aF5.612
aF9.028
aF6.344
aF7.32
aF9.272
aF2.196
aF4.148
aF2.928
aF9.272
aF8.54
aF5.124
aF8.052
aF3.904
aF7.076
aF6.832
aF2.44
aF3.904
aF2.928
aF7.564
aF9.028
aF6.1
aF10.492
aF7.564
aF8.54
aF4.88
aF3.66
aF9.272
aF9.028
aF6.1
aF7.32
aF10.736
aF13.42
aF3.904
aF8.052
aF3.904
aF4.148
aF8.784
aF10.736
aF4.88
aF6.832
aF9.272
aF5.856
aF7.076
aF2.928
aF5.856
aF1.708
aF5.612
aF4.88
aF4.88
aF3.66
aF2.928
aF5.124
aF3.66
aF7.32
aF4.636
aF10.492
as(I32
S'get HB10-4-biasmon[1-64]_f_rr'
p202
tp203
(lp204
F31.8242
aF31.8046
aF31.8046
aF31.8242
aF31.8242
aF31.8437
aF31.8242
aF31.8242
aF31.8242
aF31.8242
aF31.8242
aF31.8242
aF31.8242
aF31.8437
aF31.8437
aF31.8242
aF31.8242
aF31.8046
aF31.8046
aF31.8242
aF31.8242
aF31.8242
aF31.8437
aF31.8437
aF31.8242
aF31.8242
aF31.8242
aF31.8242
aF31.8242
aF31.8242
aF31.8437
aF31.8437
aF31.8046
aF31.8046
aF31.8242
aF31.8242
aF31.8242
aF31.8437
aF31.8437
aF31.8242
aF31.8242
aF31.8242
aF31.8242
aF31.8242
aF31.8242
aF31.8242
aF31.8242
aF31.8242
aF31.8242
aF31.8437
aF31.8242
aF31.8046
aF31.8437
aF31.8437
aF31.8242
aF31.8242
aF31.8242
aF31.8046
aF31.8242
aF31.8242
aF31.8242
aF31.8242
aF31.8242
aF31.8437
as(I18
S'get HB10-4-LeakageCurrent[1-64]_f_rr'
p205
tp206
(lp207
F1.708
aF4.148
aF8.296
aF8.784
aF9.516
aF2.928
aF6.1
aF3.904
aF4.88
aF8.54
aF5.856
aF6.832
aF8.54
aF1.952
aF3.66
aF2.44
aF8.54
aF8.052
aF4.636
aF7.32
aF3.416
aF6.344
aF6.1
aF1.952
aF3.416
aF2.44
aF7.076
aF8.54
aF5.612
aF10.004
aF7.076
aF7.808
aF4.392
aF3.172
aF8.54
aF8.296
aF5.368
aF6.588
aF10.248
aF12.688
aF3.416
aF7.564
aF3.172
aF3.66
aF8.296
aF10.004
aF4.392
aF6.1
aF8.784
aF5.368
aF6.588
aF2.44
aF5.124
aF1.708
aF4.88
aF4.148
aF4.148
aF3.172
aF2.684
aF4.636
aF3.172
aF6.588
aF3.904
aF9.76
as(I12
S'put HB10-4-biasvoltage[1-64]_f 64*12.000000'
p208
tp209
(lp210
S'OK'
p211
as(I10
S'get HB10-4-biasmon[1-64]_f_rr'
p212
tp213
(lp214
F9.98291
aF9.98291
aF9.98291
aF9.98291
aF9.98291
aF9.98291
aF9.98291
aF9.98291
aF9.98291
aF9.98291
aF9.98291
aF9.98291
aF9.98291
aF9.98291
aF9.98291
aF9.98291
aF9.98291
aF9.98291
aF9.98291
aF9.98291
aF9.98291
aF9.98291
aF9.98291
aF9.98291
aF9.98291
aF9.98291
aF9.98291
aF9.98291
aF9.98291
aF9.98291
aF9.98291
aF9.98291
aF9.98291
aF9.98291
aF9.98291
aF9.98291
aF9.98291
aF9.98291
aF9.98291
aF9.98291
aF9.98291
aF9.98291
aF9.98291
aF9.98291
aF9.98291
aF9.98291
aF9.98291
aF9.98291
aF9.98291
aF9.98291
aF9.98291
aF9.98291
aF9.98291
aF9.98291
aF9.98291
aF9.98291
aF9.98291
aF9.98291
aF9.98291
aF9.98291
aF9.98291
aF9.98291
aF9.98291
aF9.98291
as(I44
S'get HB10-4-LeakageCurrent[1-64]_f_rr'
p215
tp216
(lp217
F2.684
aF8.052
aF12.444
aF12.932
aF13.664
aF7.076
aF10.248
aF7.808
aF9.028
aF12.444
aF9.76
aF10.736
aF12.688
aF5.368
aF7.564
aF6.1
aF12.688
aF11.956
aF8.296
aF11.468
aF7.32
aF10.492
aF10.004
aF5.856
aF7.564
aF6.1
aF11.224
aF12.444
aF9.516
aF14.152
aF10.98
aF11.712
aF8.296
aF7.32
aF12.688
aF12.688
aF9.516
aF10.736
aF14.152
aF16.836
aF7.076
aF11.712
aF7.32
aF7.564
aF12.2
aF14.152
aF8.052
aF10.248
aF12.688
aF9.516
aF10.492
aF6.344
aF9.028
aF4.392
aF9.028
aF8.052
aF8.296
aF7.076
aF6.1
aF8.54
aF7.076
aF10.736
aF7.808
aF13.908
as(I6
S'get HB10-4-biasmon[1-64]_f_rr'
p218
tp219
(lp220
F6.01709
aF5.99756
aF5.99756
aF6.01709
aF6.01709
aF6.01709
aF5.99756
aF6.01709
aF5.99756
aF5.99756
aF6.01709
aF6.01709
aF5.99756
aF6.01709
aF5.99756
aF5.99756
aF6.01709
aF5.99756
aF5.99756
aF6.01709
aF5.99756
aF6.01709
aF6.01709
aF6.01709
aF5.99756
aF5.99756
aF6.01709
aF6.01709
aF5.99756
aF6.01709
aF5.99756
aF6.01709
aF5.99756
aF5.99756
aF5.99756
aF6.01709
aF6.01709
aF6.01709
aF6.01709
aF5.99756
aF6.01709
aF6.01709
aF6.01709
aF6.01709
aF5.99756
aF6.01709
aF5.99756
aF5.99756
aF5.99756
aF6.01709
aF6.01709
aF5.99756
aF6.01709
aF6.01709
aF6.01709
aF5.99756
aF6.01709
aF5.99756
aF6.01709
aF6.01709
aF6.01709
aF5.99756
aF6.01709
aF6.01709
as(I28
S'get HB10-4-LeakageCurrent[1-64]_f_rr'
p221
tp222
(lp223
F1.708
aF5.612
aF10.004
aF10.492
aF11.224
aF4.636
aF7.564
aF5.368
aF6.588
aF10.004
aF7.32
aF8.052
aF10.248
aF2.928
aF5.124
aF3.66
aF10.004
aF9.516
aF6.1
aF9.028
aF4.88
aF7.808
aF7.564
aF3.172
aF4.88
aF3.66
aF8.784
aF10.004
aF7.076
aF11.712
aF8.54
aF9.272
aF5.856
aF4.636
aF10.248
aF10.004
aF7.076
aF8.052
aF11.712
aF14.396
aF4.636
aF9.272
aF4.636
aF5.124
aF9.76
aF11.712
aF5.856
aF7.564
aF10.248
aF6.832
aF8.052
aF3.66
aF6.588
aF2.196
aF6.588
aF5.856
aF5.856
aF4.636
aF3.904
aF6.1
aF4.636
aF8.296
aF5.368
aF11.224
as(I54
S'get HB10-4-LeakageCurrent[1-64]_f_rr'
p224
tp225
(lp226
F4.148
aF9.76
aF13.908
aF14.64
aF15.372
aF8.54
aF11.712
aF9.272
aF10.736
aF14.152
aF10.98
aF12.2
aF14.396
aF7.076
aF9.272
aF7.808
aF14.152
aF13.42
aF9.76
aF13.176
aF8.784
aF11.956
aF11.712
aF7.32
aF8.784
aF7.564
aF12.688
aF14.152
aF11.224
aF15.616
aF12.688
aF13.42
aF9.76
aF8.784
aF14.152
aF14.396
aF11.224
aF12.2
aF15.616
aF18.3
aF8.54
aF13.42
aF8.784
aF8.784
aF13.908
aF15.616
aF9.516
aF11.956
aF14.396
aF10.98
aF11.956
aF7.808
aF10.736
aF6.1
aF10.736
aF9.516
aF10.004
aF8.54
aF7.564
aF10.248
aF8.54
aF12.444
aF9.272
aF15.372
as(I50
S'get HB10-4-LeakageCurrent[1-64]_f_rr'
p227
tp228
(lp229
F3.66
aF9.028
aF13.42
aF13.908
aF14.64
aF7.808
aF11.224
aF8.784
aF10.004
aF13.42
aF10.492
aF11.712
aF13.664
aF6.344
aF8.54
aF7.076
aF13.664
aF12.688
aF9.272
aF12.444
aF8.296
aF11.468
aF10.98
aF6.588
aF8.296
aF7.076
aF12.2
aF13.664
aF10.492
aF15.128
aF11.956
aF12.688
aF9.272
aF8.296
aF13.664
aF13.664
aF10.492
aF11.712
aF14.884
aF17.812
aF8.052
aF12.688
aF8.296
aF8.296
aF13.42
aF15.128
aF9.028
aF11.468
aF13.664
aF10.492
aF11.468
aF7.32
aF10.004
aF5.368
aF10.004
aF9.028
aF9.272
aF7.808
aF7.076
aF9.516
aF8.052
aF11.712
aF8.784
aF14.64
as(I24
S'put HB10-4-biasvoltage[1-64]_f 64*24.000000'
p230
tp231
(lp232
S'OK'
p233
as(I48
S'put HB10-4-biasvoltage[1-64]_f 64*48.000000'
p234
tp235
(lp236
S'OK'
p237
as(I34
S'get HB10-4-biasmon[1-64]_f_rr'
p238
tp239
(lp240
F33.7973
aF33.7973
aF33.7778
aF33.7973
aF33.8169
aF33.8169
aF33.8169
aF33.8169
aF33.7973
aF33.7973
aF33.7973
aF33.8169
aF33.7973
aF33.8169
aF33.8169
aF33.8169
aF33.7973
aF33.7973
aF33.7973
aF33.7973
aF33.8169
aF33.8169
aF33.8169
aF33.8169
aF33.7973
aF33.7973
aF33.7973
aF33.8169
aF33.7973
aF33.8169
aF33.8169
aF33.8169
aF33.7973
aF33.7973
aF33.7973
aF33.8169
aF33.8169
aF33.8169
aF33.8169
aF33.8169
aF33.7973
aF33.7973
aF33.7973
aF33.8169
aF33.7973
aF33.7973
aF33.7973
aF33.8169
aF33.7973
aF33.8169
aF33.7973
aF33.7973
aF33.8169
aF33.8169
aF33.8169
aF33.8169
aF33.7973
aF33.7973
aF33.7973
aF33.7973
aF33.8169
aF33.8169
aF33.8169
aF33.8169
as(I30
S'put HB10-4-biasvoltage[1-64]_f 64*30.000000'
p241
tp242
(lp243
S'OK'
p244
as(I34
S'get HB10-4-LeakageCurrent[1-64]_f_rr'
p245
tp246
(lp247
F1.708
aF6.588
aF10.98
aF11.468
aF12.2
aF5.612
aF8.54
aF6.344
aF7.564
aF10.98
aF8.296
aF9.028
aF11.224
aF3.904
aF6.1
aF4.636
aF11.224
aF10.248
aF6.832
aF10.004
aF5.856
aF8.784
aF8.54
aF4.148
aF5.856
aF4.636
aF9.516
aF10.98
aF8.052
aF12.444
aF9.516
aF10.248
aF6.832
aF5.856
aF11.224
aF10.98
aF7.808
aF9.028
aF12.444
aF15.128
aF5.612
aF10.248
aF5.856
aF5.856
aF10.736
aF12.688
aF6.588
aF8.784
aF11.224
aF7.808
aF8.784
aF4.636
aF7.564
aF2.928
aF7.564
aF6.588
aF6.832
aF5.612
aF4.636
aF7.076
aF5.612
aF9.272
aF6.344
aF12.2
as(I30
S'get HB10-4-biasmon[1-64]_f_rr'
p248
tp249
(lp250
F29.851
aF29.851
aF29.8315
aF29.851
aF29.851
aF29.851
aF29.851
aF29.851
aF29.851
aF29.851
aF29.8315
aF29.851
aF29.851
aF29.851
aF29.851
aF29.851
aF29.851
aF29.8315
aF29.8315
aF29.851
aF29.851
aF29.851
aF29.851
aF29.851
aF29.851
aF29.851
aF29.851
aF29.851
aF29.851
aF29.851
aF29.851
aF29.851
aF29.8315
aF29.8315
aF29.851
aF29.851
aF29.851
aF29.851
aF29.851
aF29.851
aF29.851
aF29.851
aF29.851
aF29.851
aF29.851
aF29.851
aF29.851
aF29.851
aF29.851
aF29.851
aF29.851
aF29.8315
aF29.851
aF29.851
aF29.851
aF29.851
aF29.851
aF29.8315
aF29.851
aF29.851
aF29.851
aF29.851
aF29.851
aF29.851
as(I2
S'put HB10-4-biasvoltage[1-64]_f 64*2.000000'
p251
tp252
(lp253
S'OK'
p254
as(I60
S'get HB10-4-LeakageCurrent[1-64]_f_rr'
p255
tp256
(lp257
F5.124
aF10.736
aF14.884
aF15.372
aF16.348
aF9.516
aF12.688
aF10.248
aF11.712
aF15.128
aF12.2
aF13.176
aF15.372
aF7.808
aF10.004
aF8.784
aF15.128
aF14.396
aF10.736
aF13.908
aF9.76
aF12.932
aF12.444
aF8.052
aF9.76
aF8.54
aF13.664
aF15.128
aF11.956
aF16.592
aF13.664
aF14.152
aF10.736
aF9.76
aF15.128
aF15.372
aF11.956
aF13.176
aF16.592
aF19.276
aF9.516
aF14.396
aF9.76
aF9.76
aF14.64
aF16.592
aF10.492
aF12.932
aF15.372
aF11.956
aF12.932
aF8.54
aF11.712
aF6.832
aF11.712
aF10.492
aF10.736
aF9.516
aF8.54
aF11.224
aF9.516
aF13.42
aF10.248
aF16.348
as(I22
S'put HB10-4-biasvoltage[1-64]_f 64*22.000000'
p258
tp259
(lp260
S'OK'
p261
as(I44
S'get HB10-4-biasmon[1-64]_f_rr'
p262
tp263
(lp264
F43.7216
aF43.7216
aF43.7021
aF43.7216
aF43.7411
aF43.7411
aF43.7216
aF43.7411
aF43.7216
aF43.7216
aF43.7216
aF43.7216
aF43.7216
aF43.7411
aF43.7411
aF43.7411
aF43.7216
aF43.7216
aF43.7021
aF43.7216
aF43.7411
aF43.7411
aF43.7411
aF43.7411
aF43.7216
aF43.7216
aF43.7216
aF43.7411
aF43.7411
aF43.7411
aF43.7411
aF43.7411
aF43.7216
aF43.7216
aF43.7411
aF43.7411
aF43.7411
aF43.7607
aF43.7411
aF43.7216
aF43.7216
aF43.7216
aF43.7411
aF43.7216
aF43.7411
aF43.7216
aF43.7411
aF43.7411
aF43.7216
aF43.7411
aF43.7216
aF43.7216
aF43.7411
aF43.7411
aF43.7411
aF43.7411
aF43.7411
aF43.7216
aF43.7216
aF43.7411
aF43.7411
aF43.7411
aF43.7411
aF43.7411
as(I10
S'put HB10-4-biasvoltage[1-64]_f 64*10.000000'
p265
tp266
(lp267
S'OK'
p268
as(I12
S'get HB10-4-biasmon[1-64]_f_rr'
p269
tp270
(lp271
F11.9756
aF11.9756
aF11.956
aF11.9756
aF11.9756
aF11.9756
aF11.9756
aF11.9756
aF11.956
aF11.956
aF11.956
aF11.9756
aF11.956
aF11.9756
aF11.9756
aF11.9756
aF11.9756
aF11.956
aF11.956
aF11.9756
aF11.956
aF11.9756
aF11.9756
aF11.9756
aF11.956
aF11.956
aF11.956
aF11.9756
aF11.956
aF11.9756
aF11.9756
aF11.9756
aF11.956
aF11.956
aF11.956
aF11.9756
aF11.9756
aF11.9756
aF11.9756
aF11.956
aF11.956
aF11.9756
aF11.9756
aF11.9756
aF11.9756
aF11.9756
aF11.956
aF11.956
aF11.956
aF11.9756
aF11.956
aF11.956
aF11.9756
aF11.9756
aF11.9756
aF11.9756
aF11.9756
aF11.956
aF11.9756
aF11.9756
aF11.9756
aF11.956
aF11.9756
aF11.9756
as(I44
S'put HB10-4-biasvoltage[1-64]_f 64*44.000000'
p272
tp273
(lp274
S'OK'
p275
as(I4
S'get HB10-4-LeakageCurrent[1-64]_f_rr'
p276
tp277
(lp278
F1.708
aF1.952
aF6.588
aF6.832
aF7.564
aF1.952
aF3.904
aF2.196
aF2.928
aF6.344
aF3.904
aF4.88
aF6.1
aF1.708
aF1.952
aF1.708
aF6.588
aF5.856
aF2.684
aF5.612
aF1.952
aF3.904
aF4.148
aF1.708
aF1.708
aF1.952
aF5.368
aF6.344
aF3.416
aF7.564
aF4.636
aF5.856
aF2.196
aF1.952
aF6.832
aF5.856
aF2.928
aF4.636
aF8.54
aF10.736
aF1.952
aF5.612
aF1.708
aF2.196
aF5.856
aF8.052
aF2.684
aF3.66
aF6.832
aF2.928
aF4.636
aF1.952
aF2.684
aF1.708
aF2.684
aF2.196
aF2.196
aF1.952
aF1.708
aF2.44
aF1.708
aF4.88
aF1.952
aF7.808
as(I48
S'get HB10-4-biasmon[1-64]_f_rr'
p279
tp280
(lp281
F47.6874
aF47.6874
aF47.6874
aF47.6874
aF47.707
aF47.707
aF47.707
aF47.707
aF47.6874
aF47.6874
aF47.6874
aF47.6874
aF47.6874
aF47.707
aF47.7265
aF47.707
aF47.6874
aF47.6874
aF47.6874
aF47.6874
aF47.6874
aF47.7265
aF47.707
aF47.707
aF47.6874
aF47.6874
aF47.707
aF47.6874
aF47.707
aF47.707
aF47.707
aF47.707
aF47.6874
aF47.6874
aF47.707
aF47.707
aF47.707
aF47.7265
aF47.7265
aF47.707
aF47.6874
aF47.6874
aF47.6874
aF47.6874
aF47.707
aF47.707
aF47.707
aF47.707
aF47.6874
aF47.707
aF47.6874
aF47.6874
aF47.707
aF47.707
aF47.707
aF47.707
aF47.6874
aF47.6874
aF47.6874
aF47.6874
aF47.707
aF47.707
aF47.707
aF47.707
as(I14
S'get HB10-4-LeakageCurrent[1-64]_f_rr'
p282
tp283
(lp284
F1.708
aF3.416
aF7.564
aF8.296
aF9.028
aF2.44
aF5.368
aF3.416
aF4.392
aF7.564
aF5.124
aF6.1
aF8.052
aF1.952
aF2.928
aF1.952
aF7.808
aF7.564
aF4.148
aF6.832
aF2.928
aF5.856
aF5.368
aF1.708
aF2.928
aF2.196
aF6.588
aF7.564
aF4.88
aF9.272
aF6.344
aF7.32
aF3.66
aF2.684
aF8.052
aF7.564
aF4.636
aF5.856
aF9.516
aF12.2
aF2.928
aF6.832
aF2.684
aF3.172
aF7.564
aF9.516
aF3.66
aF5.612
aF8.052
aF4.636
aF5.856
aF2.196
aF4.392
aF1.708
aF4.392
aF3.66
aF3.66
aF2.684
aF2.196
aF3.904
aF2.684
aF6.1
aF3.416
aF9.272
as(I10
S'get HB10-4-LeakageCurrent[1-64]_f_rr'
p285
tp286
(lp287
F1.708
aF2.684
aF7.32
aF7.564
aF8.296
aF2.196
aF4.88
aF2.684
aF3.416
aF7.32
aF4.636
aF5.368
aF7.32
aF1.708
aF2.684
aF1.952
aF7.32
aF6.832
aF3.416
aF6.1
aF2.44
aF5.368
aF4.636
aF1.708
aF2.196
aF1.952
aF5.856
aF7.32
aF4.148
aF8.54
aF5.856
aF6.588
aF2.928
aF2.196
aF7.564
aF6.832
aF4.392
aF5.368
aF9.028
aF11.468
aF2.44
aF6.1
aF2.196
aF2.684
aF7.076
aF9.028
aF2.928
aF4.88
aF7.564
aF3.904
aF5.368
aF1.952
aF3.66
aF1.708
aF3.66
aF2.928
aF2.928
aF2.196
aF1.708
aF3.416
aF2.196
aF5.368
aF2.684
aF8.54
as(I36
S'get HB10-4-biasmon[1-64]_f_rr'
p288
tp289
(lp290
F35.79
aF35.7705
aF35.7705
aF35.79
aF35.8095
aF35.8095
aF35.79
aF35.79
aF35.79
aF35.79
aF35.79
aF35.79
aF35.79
aF35.8095
aF35.8095
aF35.8095
aF35.79
aF35.79
aF35.7705
aF35.79
aF35.79
aF35.8095
aF35.8095
aF35.8095
aF35.79
aF35.79
aF35.79
aF35.79
aF35.79
aF35.8095
aF35.79
aF35.8095
aF35.7705
aF35.79
aF35.79
aF35.79
aF35.8095
aF35.8095
aF35.8095
aF35.79
aF35.79
aF35.79
aF35.79
aF35.8095
aF35.8095
aF35.79
aF35.79
aF35.79
aF35.79
aF35.8095
aF35.79
aF35.79
aF35.8095
aF35.8095
aF35.8095
aF35.79
aF35.79
aF35.79
aF35.79
aF35.79
aF35.79
aF35.79
aF35.79
aF35.79
as(I16
S'get HB10-4-biasmon[1-64]_f_rr'
p291
tp292
(lp293
F15.9414
aF15.9414
aF15.9414
aF15.9414
aF15.9414
aF15.9414
aF15.9414
aF15.9414
aF15.9414
aF15.9414
aF15.9414
aF15.9414
aF15.9414
aF15.9414
aF15.9414
aF15.9414
aF15.9414
aF15.9414
aF15.9414
aF15.9414
aF15.9414
aF15.9414
aF15.9414
aF15.9414
aF15.9414
aF15.9414
aF15.9414
aF15.9414
aF15.9414
aF15.9414
aF15.9414
aF15.9414
aF15.9414
aF15.9414
aF15.9414
aF15.9414
aF15.9414
aF15.9609
aF15.9609
aF15.9414
aF15.9414
aF15.9414
aF15.9414
aF15.9414
aF15.9414
aF15.9414
aF15.9414
aF15.9414
aF15.9414
aF15.9414
aF15.9414
aF15.9414
aF15.9414
aF15.9414
aF15.9414
aF15.9414
aF15.9414
aF15.9414
aF15.9414
aF15.9414
aF15.9414
aF15.9414
aF15.9414
aF15.9414
as(I50
S'get HB10-4-biasmon[1-64]_f_rr'
p294
tp295
(lp296
F49.6606
aF49.6606
aF49.6606
aF49.6606
aF49.6996
aF49.6996
aF49.6801
aF49.6996
aF49.6801
aF49.6606
aF49.6606
aF49.6801
aF49.6801
aF49.6996
aF49.6996
aF49.6801
aF49.6606
aF49.6606
aF49.6606
aF49.6801
aF49.6801
aF49.6996
aF49.6996
aF49.6996
aF49.6801
aF49.6606
aF49.6801
aF49.6801
aF49.6996
aF49.6996
aF49.6996
aF49.6996
aF49.6606
aF49.6606
aF49.6801
aF49.6801
aF49.6996
aF49.6996
aF49.6996
aF49.6996
aF49.6801
aF49.6801
aF49.6801
aF49.6801
aF49.6801
aF49.6801
aF49.6996
aF49.6801
aF49.6801
aF49.6996
aF49.6801
aF49.6606
aF49.6996
aF49.6801
aF49.6996
aF49.6801
aF49.6801
aF49.6606
aF49.6801
aF49.6801
aF49.6801
aF49.6801
aF49.6801
aF49.6996
as(I20
S'get HB10-4-LeakageCurrent[1-64]_f_rr'
p297
tp298
(lp299
F1.708
aF4.392
aF8.784
aF9.272
aF10.004
aF3.416
aF6.344
aF4.148
aF5.368
aF8.784
aF6.1
aF7.076
aF9.028
aF2.196
aF3.904
aF2.684
aF8.784
aF8.296
aF4.88
aF7.564
aF3.66
aF6.832
aF6.344
aF2.196
aF3.66
aF2.684
aF7.564
aF8.784
aF5.856
aF10.248
aF7.32
aF8.052
aF4.636
aF3.416
aF9.028
aF8.784
aF5.856
aF6.832
aF10.492
aF13.176
aF3.66
aF7.808
aF3.416
aF3.904
aF8.54
aF10.492
aF4.636
aF6.588
aF9.028
aF5.612
aF6.832
aF2.684
aF5.368
aF1.708
aF5.368
aF4.636
aF4.636
aF3.416
aF2.928
aF4.88
aF3.416
aF7.076
aF4.148
aF10.004
as(I18
S'put HB10-4-biasvoltage[1-64]_f 64*18.000000'
p300
tp301
(lp302
S'OK'
p303
as(I42
S'get HB10-4-LeakageCurrent[1-64]_f_rr'
p304
tp305
(lp306
F2.44
aF7.808
aF12.2
aF12.444
aF13.42
aF6.588
aF9.76
aF7.564
aF8.784
aF12.2
aF9.272
aF10.248
aF12.444
aF5.124
aF7.32
aF5.856
aF12.444
aF11.712
aF8.052
aF11.224
aF7.076
aF10.004
aF9.76
aF5.368
aF7.076
aF5.856
aF10.98
aF12.2
aF9.272
aF13.908
aF10.736
aF11.468
aF8.052
aF7.076
aF12.444
aF12.444
aF9.272
aF10.492
aF13.664
aF16.348
aF6.832
aF11.468
aF6.832
aF7.076
aF11.956
aF13.908
aF7.808
aF10.004
aF12.444
aF9.272
aF10.248
aF6.1
aF8.784
aF4.148
aF8.54
aF7.808
aF8.052
aF6.832
aF5.856
aF8.54
aF6.832
aF10.492
aF7.564
aF13.664
as(I38
S'put HB10-4-biasvoltage[1-64]_f 64*38.000000'
p307
tp308
(lp309
S'OK'
p310
as.