(dp0
(I58
S'put HB13-3-biasvoltage[1-64]_f 64*58.000000'
p1
tp2
(lp3
S'OK'
p4
as(I14
S'get HB13-3-LeakageCurrent[1-64]_f_rr'
p5
tp6
(lp7
F3.172
aF4.88
aF3.66
aF5.856
aF1.708
aF6.832
aF4.392
aF5.124
aF4.636
aF6.588
aF3.416
aF5.856
aF2.196
aF4.636
aF7.076
aF8.54
aF8.296
aF3.66
aF4.636
aF4.88
aF5.856
aF4.148
aF4.392
aF7.076
aF3.66
aF2.928
aF5.124
aF5.612
aF1.708
aF5.612
aF11.468
aF11.468
aF3.66
aF4.636
aF3.904
aF4.148
aF10.492
aF6.344
aF2.928
aF8.052
aF4.636
aF7.32
aF4.88
aF6.1
aF3.66
aF7.808
aF1.708
aF7.32
aF6.832
aF6.1
aF5.856
aF5.124
aF1.708
aF4.392
aF8.052
aF6.832
aF2.196
aF2.928
aF8.052
aF6.1
aF6.588
aF5.124
aF7.32
aF6.344
as(I42
S'get HB13-3-biasmon[1-64]_f_rr'
p8
tp9
(lp10
F42.0611
aF42.0611
aF42.0611
aF42.0611
aF42.0806
aF42.0611
aF42.0806
aF42.0806
aF42.0611
aF42.0611
aF42.0611
aF42.0806
aF42.0611
aF42.0806
aF42.0611
aF42.0611
aF42.0611
aF42.0611
aF42.0611
aF42.0611
aF42.0806
aF42.0806
aF42.0806
aF42.0611
aF42.0806
aF42.0806
aF42.0806
aF42.0611
aF42.0611
aF42.0806
aF42.0806
aF42.0611
aF42.0611
aF42.0611
aF42.0806
aF42.0611
aF42.0611
aF42.1001
aF42.0611
aF42.0611
aF42.0806
aF42.0806
aF42.0611
aF42.0611
aF42.0611
aF42.0611
aF42.0611
aF42.0611
aF42.0806
aF42.0611
aF42.0611
aF42.0611
aF42.0611
aF42.0806
aF42.0806
aF42.0611
aF42.0611
aF42.0611
aF42.0611
aF42.0611
aF42.0611
aF42.0611
aF42.0611
aF42.0611
as(I46
S'get HB13-3-biasmon[1-64]_f_rr'
p11
tp12
(lp13
F46.0659
aF46.0659
aF46.0855
aF46.0659
aF46.0855
aF46.0659
aF46.0855
aF46.0855
aF46.0659
aF46.0659
aF46.0855
aF46.0855
aF46.0659
aF46.0855
aF46.0659
aF46.0855
aF46.0659
aF46.0659
aF46.0659
aF46.0659
aF46.0855
aF46.0855
aF46.0855
aF46.0855
aF46.0855
aF46.0855
aF46.0855
aF46.0659
aF46.0659
aF46.0855
aF46.0855
aF46.0659
aF46.0659
aF46.0855
aF46.0855
aF46.0855
aF46.0659
aF46.0855
aF46.0855
aF46.0659
aF46.0855
aF46.0855
aF46.0855
aF46.0855
aF46.0659
aF46.0659
aF46.0659
aF46.0659
aF46.0855
aF46.0855
aF46.0659
aF46.0659
aF46.0659
aF46.0855
aF46.0855
aF46.0659
aF46.0659
aF46.0659
aF46.0659
aF46.0659
aF46.0659
aF46.0659
aF46.0659
aF46.0659
as(I8
S'put HB13-3-biasvoltage[1-64]_f 64*8.000000'
p14
tp15
(lp16
S'OK'
p17
as(I28
S'get HB13-3-biasmon[1-64]_f_rr'
p18
tp19
(lp20
F28.0537
aF28.0537
aF28.0537
aF28.0537
aF28.0733
aF28.0733
aF28.0733
aF28.0733
aF28.0537
aF28.0537
aF28.0733
aF28.0733
aF28.0537
aF28.0733
aF28.0733
aF28.0537
aF28.0537
aF28.0733
aF28.0537
aF28.0537
aF28.0733
aF28.0733
aF28.0733
aF28.0733
aF28.0733
aF28.0733
aF28.0733
aF28.0537
aF28.0537
aF28.0733
aF28.0733
aF28.0733
aF28.0537
aF28.0733
aF28.0733
aF28.0733
aF28.0733
aF28.0733
aF28.0733
aF28.0733
aF28.0733
aF28.0733
aF28.0733
aF28.0733
aF28.0537
aF28.0733
aF28.0537
aF28.0733
aF28.0733
aF28.0733
aF28.0537
aF28.0733
aF28.0733
aF28.0733
aF28.0733
aF28.0537
aF28.0733
aF28.0537
aF28.0537
aF28.0733
aF28.0537
aF28.0733
aF28.0733
aF28.0733
as(I44
S'put HB13-3-biasvoltage[1-64]_f 64*44.000000'
p21
tp22
(lp23
S'OK'
p24
as(I30
S'get HB13-3-biasmon[1-64]_f_rr'
p25
tp26
(lp27
F30.0659
aF30.0855
aF30.0855
aF30.0659
aF30.105
aF30.0659
aF30.105
aF30.0855
aF30.0855
aF30.0659
aF30.0855
aF30.0855
aF30.0855
aF30.0855
aF30.0855
aF30.0855
aF30.0855
aF30.0855
aF30.0659
aF30.0855
aF30.0855
aF30.0855
aF30.0855
aF30.0855
aF30.105
aF30.0855
aF30.0855
aF30.0855
aF30.0659
aF30.0855
aF30.0855
aF30.0855
aF30.0855
aF30.0855
aF30.0855
aF30.0855
aF30.0855
aF30.105
aF30.0855
aF30.0855
aF30.0855
aF30.0855
aF30.0855
aF30.0855
aF30.0659
aF30.0855
aF30.0659
aF30.0659
aF30.0855
aF30.0855
aF30.0659
aF30.0855
aF30.0855
aF30.0855
aF30.0855
aF30.0855
aF30.0855
aF30.0659
aF30.0855
aF30.0855
aF30.0659
aF30.0855
aF30.0855
aF30.0855
as(I48
S'get HB13-3-LeakageCurrent[1-64]_f_rr'
p28
tp29
(lp30
F8.296
aF10.248
aF8.784
aF11.224
aF5.856
aF12.2
aF9.272
aF10.248
aF9.516
aF11.956
aF8.784
aF11.224
aF7.076
aF9.516
aF12.2
aF13.908
aF13.664
aF8.784
aF10.248
aF10.004
aF11.468
aF9.272
aF9.516
aF12.444
aF9.028
aF8.052
aF10.248
aF10.736
aF4.148
aF10.736
aF16.836
aF16.592
aF8.784
aF9.76
aF9.028
aF9.76
aF15.86
aF11.712
aF8.296
aF13.176
aF9.516
aF12.444
aF10.004
aF11.224
aF8.54
aF13.176
aF5.856
aF12.444
aF11.956
aF11.468
aF10.736
aF10.492
aF6.1
aF9.76
aF13.908
aF11.956
aF7.32
aF8.052
aF13.42
aF11.224
aF11.712
aF10.004
aF11.956
aF11.712
as(I14
S'put HB13-3-biasvoltage[1-64]_f 64*14.000000'
p31
tp32
(lp33
S'OK'
p34
as(I12
S'get HB13-3-LeakageCurrent[1-64]_f_rr'
p35
tp36
(lp37
F2.928
aF4.636
aF3.172
aF5.368
aF1.708
aF6.344
aF4.148
aF4.88
aF4.392
aF6.1
aF3.172
aF5.368
aF2.196
aF4.392
aF6.832
aF8.54
aF8.052
aF3.416
aF4.392
aF4.636
aF5.612
aF3.904
aF3.904
aF6.832
aF3.416
aF2.928
aF4.88
aF5.368
aF1.708
aF5.368
aF11.224
aF10.98
aF3.416
aF4.392
aF3.416
aF3.904
aF10.248
aF6.1
aF2.684
aF7.564
aF4.392
aF7.076
aF4.636
aF5.612
aF3.416
aF7.564
aF1.708
aF7.32
aF6.344
aF5.856
aF5.368
aF4.88
aF1.708
aF3.904
aF7.808
aF6.344
aF2.196
aF2.684
aF7.808
aF5.856
aF6.1
aF4.636
aF6.832
aF6.1
as(I48
S'get HB13-3-biasmon[1-64]_f_rr'
p38
tp39
(lp40
F48.0586
aF48.0586
aF48.0586
aF48.0586
aF48.0781
aF48.0586
aF48.0781
aF48.0781
aF48.0586
aF48.0586
aF48.0586
aF48.0781
aF48.0781
aF48.0781
aF48.0586
aF48.0781
aF48.0586
aF48.0586
aF48.0586
aF48.0586
aF48.0781
aF48.0781
aF48.0781
aF48.0781
aF48.0781
aF48.0781
aF48.0781
aF48.0586
aF48.0586
aF48.0781
aF48.0781
aF48.0586
aF48.0586
aF48.0586
aF48.0781
aF48.0586
aF48.0781
aF48.0781
aF48.0781
aF48.0586
aF48.0781
aF48.0781
aF48.0586
aF48.0586
aF48.0586
aF48.0586
aF48.0586
aF48.0586
aF48.0781
aF48.0586
aF48.0586
aF48.0586
aF48.0781
aF48.0781
aF48.0781
aF48.0586
aF48.0586
aF48.0586
aF48.0586
aF48.0586
aF48.0586
aF48.0586
aF48.0586
aF48.0586
as(I12
S'get HB13-3-biasmon[1-64]_f_rr'
p41
tp42
(lp43
F12.0537
aF12.0537
aF12.0537
aF12.0537
aF12.0733
aF12.0537
aF12.0733
aF12.0733
aF12.0537
aF12.0537
aF12.0537
aF12.0733
aF12.0537
aF12.0733
aF12.0537
aF12.0537
aF12.0537
aF12.0537
aF12.0537
aF12.0537
aF12.0733
aF12.0537
aF12.0733
aF12.0733
aF12.0733
aF12.0733
aF12.0537
aF12.0537
aF12.0537
aF12.0733
aF12.0733
aF12.0537
aF12.0537
aF12.0537
aF12.0537
aF12.0537
aF12.0733
aF12.0733
aF12.0537
aF12.0537
aF12.0733
aF12.0537
aF12.0537
aF12.0733
aF12.0537
aF12.0537
aF12.0537
aF12.0537
aF12.0537
aF12.0537
aF12.0537
aF12.0537
aF12.0537
aF12.0733
aF12.0733
aF12.0537
aF12.0537
aF12.0537
aF12.0537
aF12.0537
aF12.0537
aF12.0537
aF12.0537
aF12.0733
as(I0
S'get HB13-3-biasmon[1-64]_f_rr'
p44
tp45
(lp46
F0.0586081
aF0.0586081
aF0.0586081
aF0.0586081
aF0.0781441
aF0.0586081
aF0.0586081
aF0.0586081
aF0.0586081
aF0.0586081
aF0.0586081
aF0.0586081
aF0.0586081
aF0.0586081
aF0.0586081
aF0.0586081
aF0.0586081
aF0.0586081
aF0.0586081
aF0.0586081
aF0.0586081
aF0.0586081
aF0.0586081
aF0.0586081
aF0.0586081
aF0.0586081
aF0.0586081
aF0.0586081
aF0.0586081
aF0.0586081
aF0.0586081
aF0.0586081
aF0.0586081
aF0.0586081
aF0.0586081
aF0.0586081
aF0.0586081
aF0.0586081
aF0.0586081
aF0.0586081
aF0.0586081
aF0.0586081
aF0.0586081
aF0.0586081
aF0.0586081
aF0.0586081
aF0.0586081
aF0.0586081
aF0.0586081
aF0.0586081
aF0.0586081
aF0.0586081
aF0.0586081
aF0.0586081
aF0.0586081
aF0.0586081
aF0.0586081
aF0.0586081
aF0.0586081
aF0.0586081
aF0.0586081
aF0.0586081
aF0.0586081
aF0.0586081
as(I18
S'put HB13-3-biasvoltage[1-64]_f 64*18.000000'
p47
tp48
(lp49
S'OK'
p50
as(I44
S'get HB13-3-LeakageCurrent[1-64]_f_rr'
p51
tp52
(lp53
F7.808
aF9.516
aF8.296
aF10.492
aF5.124
aF11.712
aF8.54
aF9.516
aF9.028
aF11.468
aF8.296
aF10.492
aF6.588
aF8.784
aF11.712
aF13.42
aF12.932
aF8.052
aF9.516
aF9.516
aF10.736
aF8.54
aF8.784
aF11.712
aF8.296
aF7.564
aF9.516
aF10.004
aF3.66
aF10.004
aF16.348
aF15.86
aF8.052
aF9.272
aF8.54
aF8.784
aF15.128
aF10.98
aF7.564
aF12.444
aF9.028
aF11.956
aF9.516
aF10.492
aF8.052
aF12.688
aF5.368
aF11.956
aF11.224
aF10.736
aF10.004
aF9.76
aF5.612
aF9.272
aF13.176
aF11.468
aF6.832
aF7.564
aF12.688
aF10.736
aF10.98
aF9.516
aF11.712
aF10.98
as(I60
S'put HB13-3-biasvoltage[1-64]_f 64*60.000000'
p54
tp55
(lp56
S'OK'
p57
as(I12
S'put HB13-3-biasvoltage[1-64]_f 64*12.000000'
p58
tp59
(lp60
S'OK'
p61
as(I52
S'get HB13-3-biasmon[1-64]_f_rr'
p62
tp63
(lp64
F52.0635
aF52.0635
aF52.083
aF52.0635
aF52.083
aF52.0635
aF52.083
aF52.083
aF52.0635
aF52.0635
aF52.083
aF52.083
aF52.083
aF52.083
aF52.083
aF52.0635
aF52.0635
aF52.083
aF52.0635
aF52.083
aF52.083
aF52.083
aF52.083
aF52.083
aF52.1026
aF52.083
aF52.083
aF52.0635
aF52.0635
aF52.1026
aF52.1026
aF52.0635
aF52.0635
aF52.083
aF52.083
aF52.083
aF52.083
aF52.1026
aF52.083
aF52.0635
aF52.083
aF52.083
aF52.083
aF52.083
aF52.0635
aF52.0635
aF52.0635
aF52.0635
aF52.083
aF52.0635
aF52.0635
aF52.083
aF52.083
aF52.083
aF52.083
aF52.0635
aF52.083
aF52.0635
aF52.0635
aF52.0635
aF52.0635
aF52.083
aF52.0635
aF52.0635
as(I46
S'put HB13-3-biasvoltage[1-64]_f 64*46.000000'
p65
tp66
(lp67
S'OK'
p68
as(I50
S'get HB13-3-LeakageCurrent[1-64]_f_rr'
p69
tp70
(lp71
F8.54
aF10.492
aF9.272
aF11.468
aF6.1
aF12.444
aF9.516
aF10.492
aF10.004
aF12.2
aF9.272
aF11.468
aF7.564
aF9.76
aF12.688
aF14.396
aF13.908
aF9.272
aF10.492
aF10.492
aF11.712
aF9.516
aF9.76
aF12.444
aF9.272
aF8.54
aF10.492
aF10.98
aF4.392
aF11.224
aF17.324
aF17.08
aF9.028
aF10.004
aF9.516
aF10.004
aF16.104
aF11.956
aF8.54
aF13.42
aF10.004
aF12.932
aF10.492
aF11.468
aF9.028
aF13.42
aF6.1
aF12.932
aF12.2
aF11.712
aF11.224
aF10.736
aF6.588
aF10.004
aF14.152
aF12.444
aF7.564
aF8.296
aF13.664
aF11.712
aF11.956
aF10.492
aF12.444
aF11.956
as(I4
S'get HB13-3-LeakageCurrent[1-64]_f_rr'
p72
tp73
(lp74
F1.952
aF3.416
aF2.44
aF3.904
aF1.708
aF4.636
aF2.684
aF4.148
aF3.172
aF5.368
aF2.196
aF4.148
aF1.708
aF3.416
aF5.856
aF7.076
aF6.588
aF2.44
aF3.172
aF3.416
aF4.148
aF2.684
aF2.928
aF5.368
aF2.196
aF1.952
aF3.66
aF3.904
aF1.708
aF4.148
aF9.516
aF9.516
aF2.196
aF3.172
aF2.196
aF2.928
aF9.516
aF4.636
aF1.952
aF6.832
aF3.66
aF5.368
aF3.416
aF4.636
aF2.196
aF6.1
aF1.708
aF5.612
aF5.124
aF4.636
aF3.904
aF3.904
aF1.708
aF3.172
aF6.1
aF5.124
aF1.708
aF1.952
aF6.588
aF4.88
aF4.88
aF3.416
aF6.1
aF4.636
as(I50
S'get HB13-3-biasmon[1-64]_f_rr'
p75
tp76
(lp77
F50.0513
aF50.0708
aF50.0708
aF50.0708
aF50.0708
aF50.0513
aF50.0708
aF50.0708
aF50.0513
aF50.0513
aF50.0708
aF50.0708
aF50.0708
aF50.0708
aF50.0708
aF50.0708
aF50.0513
aF50.0708
aF50.0513
aF50.0513
aF50.0708
aF50.0708
aF50.0708
aF50.0708
aF50.0708
aF50.0708
aF50.0708
aF50.0708
aF50.0513
aF50.0904
aF50.0708
aF50.0708
aF50.0513
aF50.0708
aF50.0708
aF50.0708
aF50.0708
aF50.0708
aF50.0708
aF50.0708
aF50.0708
aF50.0708
aF50.0708
aF50.0708
aF50.0513
aF50.0513
aF50.0513
aF50.0708
aF50.0708
aF50.0513
aF50.0513
aF50.0708
aF50.0708
aF50.0708
aF50.0708
aF50.0513
aF50.0708
aF50.0513
aF50.0513
aF50.0513
aF50.0513
aF50.0708
aF50.0708
aF50.0708
as(I54
S'get HB13-3-biasmon[1-64]_f_rr'
p78
tp79
(lp80
F54.0562
aF54.0757
aF54.0562
aF54.0562
aF54.0757
aF54.0562
aF54.0757
aF54.0757
aF54.0562
aF54.0562
aF54.0757
aF54.0757
aF54.0562
aF54.0952
aF54.0757
aF54.0757
aF54.0562
aF54.0757
aF54.0562
aF54.0757
aF54.0757
aF54.0757
aF54.0757
aF54.0757
aF54.0952
aF54.0757
aF54.0757
aF54.0757
aF54.0562
aF54.0952
aF54.0757
aF54.0757
aF54.0562
aF54.0757
aF54.0757
aF54.0757
aF54.0757
aF54.0952
aF54.0757
aF54.0757
aF54.0757
aF54.0757
aF54.0757
aF54.0757
aF54.0562
aF54.0562
aF54.0562
aF54.0562
aF54.0757
aF54.0757
aF54.0562
aF54.0757
aF54.0757
aF54.0757
aF54.0757
aF54.0757
aF54.0757
aF54.0562
aF54.0757
aF54.0757
aF54.0562
aF54.0757
aF54.0757
aF54.0757
as(I60
S'get HB13-3-LeakageCurrent[1-64]_f_rr'
p81
tp82
(lp83
F10.248
aF12.2
aF10.736
aF13.176
aF7.564
aF14.152
aF11.224
aF11.956
aF11.712
aF13.908
aF10.736
aF12.932
aF9.028
aF11.224
aF14.152
aF15.86
aF15.372
aF10.736
aF11.956
aF11.956
aF13.42
aF10.98
aF11.468
aF14.152
aF10.98
aF9.76
aF11.956
aF12.444
aF5.856
aF12.688
aF18.788
aF18.544
aF10.492
aF11.712
aF10.98
aF11.468
aF17.568
aF13.42
aF10.248
aF15.128
aF11.468
aF14.64
aF11.956
aF12.932
aF10.492
aF15.128
aF7.564
aF14.396
aF13.664
aF13.42
aF12.688
aF12.444
aF8.052
aF11.712
aF15.616
aF13.908
aF9.272
aF10.004
aF15.128
aF13.176
aF13.42
aF11.956
aF13.908
aF13.42
as(I16
S'get HB13-3-LeakageCurrent[1-64]_f_rr'
p84
tp85
(lp86
F3.416
aF5.368
aF3.904
aF6.1
aF1.708
aF7.076
aF4.636
aF5.612
aF4.88
aF6.832
aF3.904
aF6.1
aF2.684
aF4.88
aF7.564
aF9.028
aF8.54
aF3.904
aF5.124
aF5.368
aF6.1
aF4.392
aF4.636
aF7.32
aF3.904
aF3.416
aF5.612
aF5.856
aF1.708
aF5.856
aF11.712
aF11.712
aF3.904
aF5.124
aF4.148
aF4.636
aF10.736
aF6.832
aF3.416
aF8.296
aF4.88
aF7.564
aF5.368
aF6.344
aF3.904
aF8.296
aF1.708
aF7.564
aF7.076
aF6.588
aF5.856
aF5.368
aF1.708
aF4.636
aF8.54
aF7.076
aF2.684
aF3.172
aF8.54
aF6.588
aF6.832
aF5.368
aF7.564
aF6.588
as(I2
S'get HB13-3-biasmon[1-64]_f_rr'
p87
tp88
(lp89
F2.05128
aF2.05128
aF2.05128
aF2.05128
aF2.05128
aF2.05128
aF2.05128
aF2.05128
aF2.05128
aF2.05128
aF2.05128
aF2.05128
aF2.05128
aF2.05128
aF2.05128
aF2.05128
aF2.05128
aF2.05128
aF2.05128
aF2.05128
aF2.05128
aF2.05128
aF2.05128
aF2.05128
aF2.07082
aF2.05128
aF2.05128
aF2.05128
aF2.05128
aF2.05128
aF2.05128
aF2.05128
aF2.03175
aF2.05128
aF2.05128
aF2.05128
aF2.05128
aF2.05128
aF2.05128
aF2.05128
aF2.05128
aF2.05128
aF2.05128
aF2.05128
aF2.05128
aF2.05128
aF2.05128
aF2.05128
aF2.05128
aF2.05128
aF2.05128
aF2.05128
aF2.05128
aF2.05128
aF2.07082
aF2.05128
aF2.05128
aF2.05128
aF2.05128
aF2.05128
aF2.05128
aF2.05128
aF2.05128
aF2.05128
as(I36
S'get HB13-3-LeakageCurrent[1-64]_f_rr'
p90
tp91
(lp92
F6.588
aF8.296
aF7.076
aF9.272
aF3.904
aF10.248
aF7.564
aF8.296
aF7.808
aF10.004
aF6.832
aF9.272
aF5.368
aF7.564
aF10.492
aF11.956
aF11.712
aF6.832
aF8.296
aF8.296
aF9.516
aF7.564
aF7.564
aF10.248
aF7.32
aF6.1
aF8.296
aF8.784
aF2.44
aF9.028
aF15.128
aF14.884
aF6.832
aF8.052
aF7.32
aF7.564
aF13.908
aF9.76
aF6.588
aF11.224
aF7.808
aF10.736
aF8.296
aF9.516
aF6.832
aF11.468
aF4.148
aF10.736
aF10.004
aF9.516
aF8.784
aF8.54
aF4.392
aF7.808
aF11.956
aF10.248
aF5.612
aF6.1
aF11.468
aF9.516
aF9.76
aF8.296
aF10.248
aF9.76
as(I2
S'put HB13-3-biasvoltage[1-64]_f 64*2.000000'
p93
tp94
(lp95
S'OK'
p96
as(I24
S'put HB13-3-biasvoltage[1-64]_f 64*24.000000'
p97
tp98
(lp99
S'OK'
p100
as(I36
S'get HB13-3-biasmon[1-64]_f_rr'
p101
tp102
(lp103
F36.083
aF36.083
aF36.083
aF36.083
aF36.1026
aF36.083
aF36.1026
aF36.1026
aF36.083
aF36.083
aF36.083
aF36.083
aF36.083
aF36.1026
aF36.083
aF36.083
aF36.083
aF36.083
aF36.083
aF36.083
aF36.083
aF36.1026
aF36.083
aF36.083
aF36.1026
aF36.1026
aF36.083
aF36.083
aF36.0635
aF36.1026
aF36.1026
aF36.083
aF36.083
aF36.083
aF36.083
aF36.083
aF36.083
aF36.1026
aF36.083
aF36.083
aF36.083
aF36.1026
aF36.083
aF36.083
aF36.083
aF36.083
aF36.083
aF36.083
aF36.083
aF36.083
aF36.083
aF36.083
aF36.083
aF36.083
aF36.1026
aF36.083
aF36.083
aF36.083
aF36.083
aF36.083
aF36.083
aF36.083
aF36.083
aF36.083
as(I24
S'get HB13-3-biasmon[1-64]_f_rr'
p104
tp105
(lp106
F24.0488
aF24.0684
aF24.0684
aF24.0684
aF24.0684
aF24.0684
aF24.0684
aF24.0684
aF24.0684
aF24.0684
aF24.0684
aF24.0684
aF24.0684
aF24.0684
aF24.0684
aF24.0684
aF24.0684
aF24.0684
aF24.0488
aF24.0684
aF24.0684
aF24.0684
aF24.0684
aF24.0684
aF24.0684
aF24.0684
aF24.0684
aF24.0684
aF24.0488
aF24.0684
aF24.0684
aF24.0684
aF24.0684
aF24.0684
aF24.0684
aF24.0684
aF24.0684
aF24.0684
aF24.0684
aF24.0684
aF24.0684
aF24.0684
aF24.0684
aF24.0684
aF24.0488
aF24.0684
aF24.0488
aF24.0684
aF24.0684
aF24.0684
aF24.0684
aF24.0684
aF24.0684
aF24.0684
aF24.0684
aF24.0684
aF24.0684
aF24.0684
aF24.0684
aF24.0684
aF24.0488
aF24.0684
aF24.0684
aF24.0684
as(I38
S'get HB13-3-LeakageCurrent[1-64]_f_rr'
p107
tp108
(lp109
F6.832
aF8.54
aF7.32
aF9.516
aF4.148
aF10.736
aF7.808
aF8.54
aF8.052
aF10.492
aF7.32
aF9.516
aF5.612
aF8.052
aF10.736
aF12.444
aF11.956
aF7.32
aF8.54
aF8.54
aF9.76
aF7.564
aF8.052
aF10.736
aF7.564
aF6.588
aF8.54
aF9.028
aF2.684
aF9.272
aF15.128
aF15.128
aF7.32
aF8.296
aF7.564
aF8.052
aF14.396
aF10.004
aF6.832
aF11.712
aF8.052
aF10.98
aF8.54
aF9.516
aF7.32
aF11.712
aF4.392
aF10.98
aF10.492
aF10.004
aF9.272
aF8.784
aF4.636
aF8.052
aF12.2
aF10.492
aF5.856
aF6.588
aF11.712
aF9.76
aF10.004
aF8.54
aF10.736
aF10.004
as(I10
S'put HB13-3-biasvoltage[1-64]_f 64*10.000000'
p110
tp111
(lp112
S'OK'
p113
as(I38
S'get HB13-3-biasmon[1-64]_f_rr'
p114
tp115
(lp116
F38.0757
aF38.0757
aF38.0757
aF38.0757
aF38.0952
aF38.0757
aF38.0757
aF38.0757
aF38.0757
aF38.0757
aF38.0757
aF38.0757
aF38.0757
aF38.0757
aF38.0757
aF38.0757
aF38.0757
aF38.0757
aF38.0757
aF38.0757
aF38.0757
aF38.0952
aF38.0757
aF38.0952
aF38.0952
aF38.0757
aF38.0757
aF38.0757
aF38.0757
aF38.0952
aF38.0952
aF38.0757
aF38.0562
aF38.0757
aF38.0757
aF38.0757
aF38.0757
aF38.0952
aF38.0952
aF38.0757
aF38.0952
aF38.0757
aF38.0757
aF38.0952
aF38.0757
aF38.0757
aF38.0757
aF38.0757
aF38.0757
aF38.0757
aF38.0757
aF38.0757
aF38.0757
aF38.0952
aF38.0757
aF38.0757
aF38.0757
aF38.0757
aF38.0757
aF38.0757
aF38.0562
aF38.0757
aF38.0757
aF38.0757
as(I32
S'get HB13-3-LeakageCurrent[1-64]_f_rr'
p117
tp118
(lp119
F5.856
aF7.564
aF6.344
aF8.54
aF3.172
aF9.516
aF7.076
aF7.808
aF7.32
aF9.516
aF6.344
aF8.54
aF4.636
aF7.076
aF9.76
aF11.468
aF11.224
aF6.344
aF7.564
aF7.564
aF8.784
aF6.832
aF7.076
aF10.004
aF6.588
aF5.856
aF7.808
aF8.052
aF1.952
aF8.54
aF14.396
aF14.152
aF6.344
aF7.32
aF6.588
aF7.076
aF13.42
aF9.272
aF5.856
aF10.736
aF7.32
aF10.004
aF7.564
aF8.784
aF6.1
aF10.736
aF3.66
aF10.004
aF9.516
aF9.028
aF8.296
aF8.052
aF3.66
aF7.32
aF11.224
aF9.516
aF4.88
aF5.612
aF10.736
aF8.784
aF9.272
aF7.564
aF9.76
aF9.028
as(I34
S'put HB13-3-biasvoltage[1-64]_f 64*34.000000'
p120
tp121
(lp122
S'OK'
p123
as(I8
S'get HB13-3-LeakageCurrent[1-64]_f_rr'
p124
tp125
(lp126
F2.44
aF4.148
aF2.684
aF4.636
aF1.708
aF5.612
aF3.416
aF4.392
aF3.904
aF5.612
aF2.44
aF4.636
aF1.952
aF3.66
aF6.588
aF7.808
aF7.564
aF2.684
aF3.904
aF4.148
aF4.88
aF3.416
aF3.66
aF6.1
aF2.928
aF2.44
aF4.392
aF4.636
aF1.708
aF4.88
aF10.492
aF10.248
aF2.684
aF3.904
aF2.928
aF3.416
aF9.516
aF5.368
aF2.196
aF6.832
aF3.904
aF6.1
aF4.148
aF5.368
aF2.684
aF6.832
aF1.708
aF6.344
aF5.856
aF5.124
aF4.88
aF4.392
aF1.708
aF3.172
aF7.564
aF5.856
aF1.708
aF2.44
aF7.076
aF5.612
aF5.612
aF3.904
aF6.588
aF5.368
as(I8
S'get HB13-3-biasmon[1-64]_f_rr'
p127
tp128
(lp129
F8.04884
aF8.04884
aF8.04884
aF8.04884
aF8.06838
aF8.04884
aF8.04884
aF8.04884
aF8.04884
aF8.04884
aF8.04884
aF8.04884
aF8.04884
aF8.06838
aF8.04884
aF8.04884
aF8.04884
aF8.04884
aF8.04884
aF8.04884
aF8.04884
aF8.04884
aF8.04884
aF8.04884
aF8.06838
aF8.06838
aF8.04884
aF8.04884
aF8.04884
aF8.06838
aF8.04884
aF8.04884
aF8.04884
aF8.04884
aF8.04884
aF8.04884
aF8.04884
aF8.06838
aF8.04884
aF8.04884
aF8.06838
aF8.06838
aF8.04884
aF8.04884
aF8.04884
aF8.04884
aF8.04884
aF8.04884
aF8.04884
aF8.04884
aF8.04884
aF8.04884
aF8.04884
aF8.04884
aF8.06838
aF8.04884
aF8.04884
aF8.04884
aF8.04884
aF8.04884
aF8.04884
aF8.04884
aF8.04884
aF8.04884
as(I18
S'get HB13-3-LeakageCurrent[1-64]_f_rr'
p130
tp131
(lp132
F3.66
aF5.612
aF4.148
aF6.588
aF1.708
aF7.564
aF4.88
aF5.856
aF5.368
aF7.32
aF4.148
aF6.344
aF2.928
aF5.124
aF7.808
aF9.516
aF9.028
aF4.148
aF5.368
aF5.612
aF6.588
aF4.636
aF4.88
aF7.564
aF4.148
aF3.66
aF5.856
aF6.1
aF1.708
aF6.344
aF11.956
aF11.956
aF4.148
aF5.368
aF4.392
aF4.88
aF11.224
aF6.832
aF3.66
aF8.54
aF5.368
aF7.808
aF5.612
aF6.588
aF4.148
aF8.54
aF1.952
aF8.052
aF7.32
aF6.832
aF6.1
aF5.856
aF1.952
aF5.124
aF9.028
aF7.32
aF2.928
aF3.66
aF8.784
aF6.832
aF7.076
aF5.612
aF7.808
aF7.076
as(I22
S'put HB13-3-biasvoltage[1-64]_f 64*22.000000'
p133
tp134
(lp135
S'OK'
p136
as(I40
S'get HB13-3-LeakageCurrent[1-64]_f_rr'
p137
tp138
(lp139
F7.076
aF9.028
aF7.564
aF9.76
aF4.636
aF10.98
aF8.296
aF9.028
aF8.54
aF10.736
aF7.564
aF9.76
aF5.856
aF8.296
aF11.224
aF12.688
aF12.444
aF7.564
aF8.784
aF8.784
aF10.004
aF8.052
aF8.296
aF10.98
aF7.808
aF6.832
aF9.028
aF9.516
aF2.928
aF9.516
aF15.616
aF15.372
aF7.564
aF8.54
aF7.808
aF8.296
aF14.64
aF10.492
aF7.076
aF11.956
aF8.54
aF11.468
aF9.028
aF10.004
aF7.564
aF11.956
aF4.636
aF11.468
aF10.736
aF10.248
aF9.516
aF9.272
aF4.88
aF8.54
aF12.444
aF10.736
aF6.1
aF6.832
aF11.956
aF10.004
aF10.492
aF8.784
aF10.98
aF10.248
as(I26
S'get HB13-3-biasmon[1-64]_f_rr'
p140
tp141
(lp142
F26.0611
aF26.0611
aF26.0806
aF26.0806
aF26.1001
aF26.0611
aF26.0806
aF26.0806
aF26.0806
aF26.0806
aF26.0806
aF26.0806
aF26.0806
aF26.0806
aF26.0806
aF26.0611
aF26.0611
aF26.0806
aF26.0806
aF26.0806
aF26.0806
aF26.0806
aF26.0806
aF26.0806
aF26.1001
aF26.0806
aF26.0806
aF26.0806
aF26.0611
aF26.0806
aF26.0806
aF26.0806
aF26.0806
aF26.0806
aF26.0806
aF26.0806
aF26.0806
aF26.1001
aF26.0806
aF26.0611
aF26.0806
aF26.0806
aF26.0806
aF26.0806
aF26.0611
aF26.0806
aF26.0611
aF26.0806
aF26.0806
aF26.0806
aF26.0806
aF26.0806
aF26.0806
aF26.0806
aF26.0806
aF26.0806
aF26.0611
aF26.0611
aF26.0611
aF26.0806
aF26.0806
aF26.0806
aF26.0806
aF26.0806
as(I28
S'get HB13-3-LeakageCurrent[1-64]_f_rr'
p143
tp144
(lp145
F5.368
aF7.076
aF5.856
aF8.052
aF2.684
aF9.028
aF6.588
aF7.32
aF6.832
aF8.784
aF5.856
aF8.052
aF4.148
aF6.588
aF9.272
aF10.736
aF10.492
aF5.856
aF7.076
aF7.076
aF8.052
aF6.1
aF6.588
aF9.272
aF5.856
aF5.124
aF7.32
aF7.564
aF1.952
aF7.808
aF13.664
aF13.664
aF5.612
aF6.832
aF6.1
aF6.588
aF12.688
aF8.54
aF5.124
aF10.004
aF6.832
aF9.516
aF7.076
aF8.052
aF5.612
aF10.004
aF2.928
aF9.516
aF8.784
aF8.54
aF7.808
aF7.32
aF2.928
aF6.588
aF10.492
aF9.028
aF4.148
aF4.88
aF10.248
aF8.296
aF8.54
aF7.076
aF9.272
aF8.54
as(I38
S'put HB13-3-biasvoltage[1-64]_f 64*38.000000'
p146
tp147
(lp148
S'OK'
p149
as(I52
S'put HB13-3-biasvoltage[1-64]_f 64*52.000000'
p150
tp151
(lp152
S'OK'
p153
as(I60
S'get HB13-3-biasmon[1-64]_f_rr'
p154
tp155
(lp156
F60.0537
aF60.0733
aF60.0733
aF60.0537
aF60.0733
aF60.0537
aF60.0733
aF60.0733
aF60.0537
aF60.0537
aF60.0733
aF60.0733
aF60.0733
aF60.0733
aF60.0733
aF60.0733
aF60.0537
aF60.0733
aF60.0733
aF60.0733
aF60.0733
aF60.0733
aF60.0733
aF60.0733
aF60.0733
aF60.0733
aF60.0733
aF60.0537
aF60.0537
aF60.0928
aF60.0733
aF60.0733
aF60.0537
aF60.0733
aF60.0733
aF60.0733
aF60.0733
aF60.0928
aF60.0733
aF60.0733
aF60.0733
aF60.0733
aF60.0733
aF60.0733
aF60.0537
aF60.0537
aF60.0537
aF60.0537
aF60.0733
aF60.0733
aF60.0733
aF60.0733
aF60.0733
aF60.0733
aF60.0733
aF60.0537
aF60.0733
aF60.0537
aF60.0537
aF60.0733
aF60.0537
aF60.0537
aF60.0733
aF60.0733
as(I28
S'put HB13-3-biasvoltage[1-64]_f 64*28.000000'
p157
tp158
(lp159
S'OK'
p160
as(I4
S'put HB13-3-biasvoltage[1-64]_f 64*4.000000'
p161
tp162
(lp163
S'OK'
p164
as(I34
S'get HB13-3-LeakageCurrent[1-64]_f_rr'
p165
tp166
(lp167
F6.1
aF8.052
aF6.832
aF9.028
aF3.66
aF10.004
aF7.32
aF8.052
aF7.564
aF9.76
aF6.832
aF8.784
aF4.88
aF7.32
aF10.248
aF11.712
aF11.468
aF6.588
aF8.052
aF8.052
aF9.272
aF7.076
aF7.32
aF10.004
aF6.832
aF6.1
aF8.052
aF8.54
aF2.196
aF8.54
aF14.64
aF14.396
aF6.588
aF7.564
aF7.076
aF7.32
aF13.664
aF9.516
aF6.1
aF10.98
aF7.564
aF10.492
aF8.052
aF9.028
aF6.588
aF10.98
aF3.904
aF10.492
aF9.76
aF9.272
aF8.54
aF8.296
aF3.904
aF7.564
aF11.712
aF9.76
aF5.124
aF5.856
aF11.224
aF9.272
aF9.516
aF8.052
aF10.004
aF9.516
as(I6
S'get HB13-3-LeakageCurrent[1-64]_f_rr'
p168
tp169
(lp170
F2.196
aF3.66
aF2.196
aF4.392
aF1.708
aF5.856
aF3.416
aF3.904
aF3.416
aF5.368
aF2.196
aF4.636
aF1.952
aF3.416
aF5.856
aF7.564
aF7.32
aF2.684
aF3.416
aF3.66
aF4.636
aF2.928
aF3.416
aF5.612
aF2.44
aF2.196
aF4.148
aF4.636
aF1.708
aF4.392
aF10.248
aF10.248
aF2.684
aF3.904
aF2.684
aF2.928
aF9.028
aF4.88
aF1.952
aF6.832
aF3.416
aF5.856
aF3.904
aF4.636
aF2.684
aF6.344
aF1.708
aF6.344
aF5.856
aF4.636
aF4.636
aF4.148
aF1.708
aF3.172
aF6.832
aF5.612
aF1.708
aF2.196
aF6.832
aF4.88
aF5.124
aF3.66
aF6.344
aF5.124
as(I10
S'get HB13-3-LeakageCurrent[1-64]_f_rr'
p171
tp172
(lp173
F2.684
aF4.392
aF2.928
aF5.368
aF1.708
aF6.1
aF3.904
aF4.636
aF4.148
aF5.856
aF2.928
aF5.124
aF1.952
aF3.904
aF6.588
aF8.052
aF7.808
aF2.928
aF4.148
aF4.392
aF5.124
aF3.66
aF3.904
aF6.588
aF2.928
aF2.44
aF4.636
aF5.124
aF1.708
aF4.88
aF10.98
aF10.736
aF2.928
aF4.148
aF3.172
aF3.66
aF10.004
aF5.856
aF2.44
aF7.32
aF4.148
aF6.588
aF4.636
aF5.368
aF2.928
aF7.076
aF1.708
aF6.832
aF5.856
aF5.612
aF4.88
aF4.636
aF1.708
aF3.66
aF7.564
aF6.1
aF1.952
aF2.44
aF7.564
aF5.368
aF6.1
aF4.636
aF6.588
aF5.612
as(I56
S'get HB13-3-LeakageCurrent[1-64]_f_rr'
p174
tp175
(lp176
F9.516
aF11.468
aF10.004
aF12.444
aF6.832
aF13.42
aF10.736
aF11.468
aF10.98
aF13.176
aF10.004
aF12.444
aF8.296
aF10.736
aF13.664
aF15.128
aF14.884
aF10.004
aF11.468
aF11.468
aF12.688
aF10.492
aF10.736
aF13.664
aF10.248
aF9.516
aF11.468
aF11.956
aF5.368
aF11.956
aF18.3
aF17.812
aF10.004
aF10.98
aF10.248
aF10.736
aF16.836
aF12.688
aF9.516
aF14.396
aF10.736
aF13.908
aF11.468
aF12.444
aF9.76
aF14.396
aF7.076
aF13.664
aF13.176
aF12.688
aF11.956
aF11.712
aF7.32
aF10.98
aF15.128
aF13.176
aF8.54
aF9.272
aF14.64
aF12.444
aF12.932
aF11.224
aF13.42
aF12.688
as(I16
S'put HB13-3-biasvoltage[1-64]_f 64*16.000000'
p177
tp178
(lp179
S'OK'
p180
as(I10
S'get HB13-3-biasmon[1-64]_f_rr'
p181
tp182
(lp183
F10.0611
aF10.0611
aF10.0611
aF10.0611
aF10.0806
aF10.0611
aF10.0806
aF10.0806
aF10.0611
aF10.0611
aF10.0611
aF10.0611
aF10.0611
aF10.0806
aF10.0611
aF10.0611
aF10.0611
aF10.0611
aF10.0611
aF10.0611
aF10.0611
aF10.0806
aF10.0611
aF10.0611
aF10.0806
aF10.0806
aF10.0611
aF10.0611
aF10.0611
aF10.0806
aF10.0806
aF10.0611
aF10.0611
aF10.0611
aF10.0611
aF10.0611
aF10.0611
aF10.0806
aF10.0611
aF10.0611
aF10.0611
aF10.0806
aF10.0611
aF10.0806
aF10.0611
aF10.0611
aF10.0611
aF10.0611
aF10.0611
aF10.0611
aF10.0611
aF10.0611
aF10.0611
aF10.0611
aF10.0806
aF10.0611
aF10.0611
aF10.0611
aF10.0611
aF10.0611
aF10.0611
aF10.0611
aF10.0611
aF10.0611
as(I14
S'get HB13-3-biasmon[1-64]_f_rr'
p184
tp185
(lp186
F14.0855
aF14.0659
aF14.0855
aF14.0659
aF14.0855
aF14.0855
aF14.0855
aF14.0855
aF14.0659
aF14.0659
aF14.0659
aF14.0855
aF14.0659
aF14.0855
aF14.0659
aF14.0659
aF14.0659
aF14.0855
aF14.0659
aF14.0659
aF14.0855
aF14.0855
aF14.0855
aF14.0855
aF14.0855
aF14.0855
aF14.0855
aF14.0659
aF14.0659
aF14.0855
aF14.0855
aF14.0855
aF14.0659
aF14.0659
aF14.0855
aF14.0659
aF14.0855
aF14.0855
aF14.0855
aF14.0855
aF14.0855
aF14.0855
aF14.0659
aF14.0855
aF14.0659
aF14.0659
aF14.0659
aF14.0659
aF14.0659
aF14.0659
aF14.0659
aF14.0659
aF14.0659
aF14.0855
aF14.0855
aF14.0855
aF14.0855
aF14.0659
aF14.0659
aF14.0855
aF14.0659
aF14.0855
aF14.0659
aF14.0855
as(I0
S'get HB13-3-LeakageCurrent[1-64]_f_rr'
p187
tp188
(lp189
F1.952
aF2.928
aF1.708
aF3.66
aF1.708
aF4.392
aF2.684
aF3.172
aF2.928
aF4.392
aF1.952
aF3.66
aF1.952
aF2.928
aF5.124
aF6.832
aF6.344
aF2.196
aF2.684
aF3.172
aF3.416
aF2.44
aF2.44
aF4.88
aF1.952
aF1.952
aF3.416
aF3.66
aF1.952
aF3.66
aF9.272
aF9.028
aF1.952
aF2.928
aF1.952
aF2.44
aF8.54
aF4.148
aF1.708
aF5.856
aF2.928
aF4.88
aF2.928
aF3.904
aF1.952
aF5.856
aF1.708
aF5.368
aF4.636
aF4.148
aF3.66
aF2.928
aF1.708
aF2.196
aF5.856
aF4.636
aF1.708
aF1.952
aF5.856
aF4.148
aF4.636
aF3.172
aF5.368
aF4.392
as(I20
S'get HB13-3-LeakageCurrent[1-64]_f_rr'
p190
tp191
(lp192
F3.904
aF5.856
aF4.636
aF6.832
aF1.952
aF7.564
aF5.368
aF6.1
aF5.612
aF7.564
aF4.636
aF6.832
aF2.928
aF5.368
aF8.052
aF9.516
aF9.272
aF4.636
aF5.856
aF5.856
aF6.832
aF4.88
aF5.368
aF7.808
aF4.636
aF3.904
aF6.1
aF6.588
aF1.708
aF6.588
aF12.444
aF12.2
aF4.392
aF5.612
aF4.636
aF5.124
aF11.468
aF7.32
aF3.904
aF8.784
aF5.612
aF8.052
aF5.856
aF6.832
aF4.636
aF8.784
aF1.952
aF8.296
aF7.564
aF7.076
aF6.588
aF6.1
aF2.196
aF5.368
aF9.272
aF7.564
aF3.172
aF3.904
aF9.028
aF7.076
aF7.32
aF5.856
aF8.052
aF7.32
as(I44
S'get HB13-3-biasmon[1-64]_f_rr'
p193
tp194
(lp195
F44.0537
aF44.0537
aF44.0537
aF44.0537
aF44.0733
aF44.0537
aF44.0733
aF44.0733
aF44.0537
aF44.0537
aF44.0537
aF44.0733
aF44.0733
aF44.0733
aF44.0537
aF44.0537
aF44.0537
aF44.0537
aF44.0537
aF44.0733
aF44.0733
aF44.0733
aF44.0733
aF44.0733
aF44.0733
aF44.0733
aF44.0733
aF44.0537
aF44.0537
aF44.0733
aF44.0733
aF44.0537
aF44.0537
aF44.0733
aF44.0733
aF44.0733
aF44.0733
aF44.0928
aF44.0733
aF44.0733
aF44.0733
aF44.0733
aF44.0537
aF44.0733
aF44.0537
aF44.0537
aF44.0537
aF44.0537
aF44.0733
aF44.0537
aF44.0537
aF44.0733
aF44.0733
aF44.0733
aF44.0733
aF44.0537
aF44.0733
aF44.0537
aF44.0537
aF44.0537
aF44.0537
aF44.0537
aF44.0537
aF44.0537
as(I32
S'get HB13-3-biasmon[1-64]_f_rr'
p196
tp197
(lp198
F32.0781
aF32.0781
aF32.0781
aF32.0781
aF32.0977
aF32.0781
aF32.0977
aF32.0977
aF32.0781
aF32.0781
aF32.0781
aF32.0977
aF32.0781
aF32.0977
aF32.0781
aF32.0781
aF32.0586
aF32.0781
aF32.0781
aF32.0781
aF32.0977
aF32.0781
aF32.0781
aF32.0977
aF32.0977
aF32.0781
aF32.0781
aF32.0781
aF32.0586
aF32.0977
aF32.0977
aF32.0781
aF32.0781
aF32.0781
aF32.0781
aF32.0781
aF32.0781
aF32.0977
aF32.0781
aF32.0781
aF32.0781
aF32.0781
aF32.0781
aF32.0781
aF32.0586
aF32.0586
aF32.0586
aF32.0781
aF32.0781
aF32.0781
aF32.0586
aF32.0781
aF32.0781
aF32.0781
aF32.0781
aF32.0781
aF32.0781
aF32.0781
aF32.0781
aF32.0781
aF32.0781
aF32.0781
aF32.0781
aF32.0781
as(I42
S'get HB13-3-LeakageCurrent[1-64]_f_rr'
p199
tp200
(lp201
F7.564
aF9.272
aF8.052
aF10.248
aF4.636
aF11.224
aF8.54
aF9.272
aF8.784
aF10.98
aF7.808
aF10.004
aF6.344
aF8.54
aF11.468
aF12.932
aF12.688
aF7.808
aF9.272
aF9.272
aF10.492
aF8.296
aF8.54
aF11.468
aF8.052
aF7.32
aF9.272
aF9.76
aF3.172
aF9.76
aF15.86
aF15.616
aF7.808
aF9.028
aF8.052
aF8.54
aF14.884
aF10.736
aF7.32
aF12.2
aF8.784
aF11.712
aF9.272
aF10.248
aF7.808
aF12.2
aF4.88
aF11.712
aF10.98
aF10.492
aF9.76
aF9.516
aF5.368
aF8.784
aF12.688
aF11.224
aF6.588
aF7.076
aF12.444
aF10.492
aF10.736
aF9.272
aF11.224
aF10.736
as(I48
S'put HB13-3-biasvoltage[1-64]_f 64*48.000000'
p202
tp203
(lp204
S'OK'
p205
as(I22
S'get HB13-3-LeakageCurrent[1-64]_f_rr'
p206
tp207
(lp208
F4.392
aF6.1
aF4.88
aF7.076
aF1.952
aF8.052
aF5.368
aF6.344
aF5.856
aF7.808
aF4.636
aF7.076
aF3.416
aF5.612
aF8.296
aF10.004
aF9.516
aF4.88
aF6.1
aF6.1
aF7.32
aF5.368
aF5.612
aF8.296
aF4.88
aF4.148
aF6.344
aF6.832
aF1.708
aF6.832
aF12.688
aF12.444
aF4.636
aF5.856
aF5.124
aF5.612
aF11.712
aF7.564
aF4.148
aF9.272
aF5.856
aF8.54
aF6.1
aF7.32
aF4.636
aF9.028
aF2.196
aF8.54
aF7.808
aF7.564
aF6.832
aF6.344
aF2.196
aF5.612
aF9.516
aF8.052
aF3.416
aF4.148
aF9.272
aF7.32
aF7.564
aF6.1
aF8.296
aF7.564
as(I52
S'get HB13-3-LeakageCurrent[1-64]_f_rr'
p209
tp210
(lp211
F9.028
aF10.736
aF9.516
aF11.712
aF6.344
aF12.688
aF10.004
aF10.736
aF10.248
aF12.444
aF9.516
aF11.712
aF7.564
aF10.004
aF12.932
aF14.64
aF14.152
aF9.516
aF10.736
aF10.736
aF12.2
aF9.76
aF10.248
aF12.932
aF9.76
aF8.54
aF10.736
aF11.224
aF4.636
aF11.468
aF17.324
aF17.324
aF9.516
aF10.492
aF9.76
aF10.248
aF16.348
aF12.2
aF9.028
aF13.664
aF10.248
aF13.176
aF10.736
aF11.712
aF9.272
aF13.908
aF6.588
aF13.176
aF12.444
aF11.956
aF11.224
aF11.224
aF6.832
aF10.492
aF14.396
aF12.688
aF8.052
aF8.54
aF13.908
aF11.956
aF12.2
aF10.736
aF12.688
aF12.2
as(I50
S'put HB13-3-biasvoltage[1-64]_f 64*50.000000'
p212
tp213
(lp214
S'OK'
p215
as(I36
S'put HB13-3-biasvoltage[1-64]_f 64*36.000000'
p216
tp217
(lp218
S'OK'
p219
as(I54
S'get HB13-3-LeakageCurrent[1-64]_f_rr'
p220
tp221
(lp222
F9.272
aF11.224
aF9.76
aF12.2
aF6.832
aF13.176
aF10.492
aF10.98
aF10.736
aF12.932
aF9.76
aF11.956
aF7.808
aF10.492
aF13.176
aF14.884
aF14.396
aF9.76
aF11.224
aF11.224
aF12.444
aF10.004
aF10.492
aF13.176
aF10.004
aF9.028
aF11.224
aF11.712
aF4.88
aF11.712
aF17.812
aF17.568
aF9.516
aF10.736
aF10.004
aF10.248
aF16.592
aF12.444
aF9.272
aF14.152
aF10.492
aF13.664
aF11.224
aF11.956
aF9.516
aF14.152
aF6.832
aF13.42
aF12.688
aF12.444
aF11.712
aF11.468
aF7.32
aF10.736
aF14.64
aF13.176
aF8.296
aF9.028
aF14.152
aF12.2
aF12.444
aF10.98
aF13.176
aF12.444
as(I32
S'put HB13-3-biasvoltage[1-64]_f 64*32.000000'
p223
tp224
(lp225
S'OK'
p226
as(I16
S'get HB13-3-biasmon[1-64]_f_rr'
p227
tp228
(lp229
F16.0586
aF16.0586
aF16.0586
aF16.0586
aF16.0781
aF16.0586
aF16.0781
aF16.0781
aF16.0586
aF16.0586
aF16.0781
aF16.0781
aF16.0781
aF16.0781
aF16.0586
aF16.0586
aF16.0586
aF16.0781
aF16.0586
aF16.0586
aF16.0781
aF16.0781
aF16.0781
aF16.0781
aF16.0781
aF16.0781
aF16.0781
aF16.0586
aF16.0586
aF16.0781
aF16.0781
aF16.0586
aF16.0586
aF16.0586
aF16.0781
aF16.0586
aF16.0781
aF16.0781
aF16.0781
aF16.0781
aF16.0781
aF16.0781
aF16.0586
aF16.0781
aF16.0586
aF16.0586
aF16.0586
aF16.0586
aF16.0781
aF16.0781
aF16.0586
aF16.0781
aF16.0781
aF16.0781
aF16.0781
aF16.0586
aF16.0586
aF16.0586
aF16.0586
aF16.0781
aF16.0586
aF16.0781
aF16.0781
aF16.0781
as(I58
S'get HB13-3-LeakageCurrent[1-64]_f_rr'
p230
tp231
(lp232
F9.76
aF11.712
aF10.492
aF12.688
aF7.32
aF13.664
aF10.98
aF11.712
aF11.224
aF13.664
aF10.492
aF12.688
aF8.54
aF10.98
aF13.908
aF15.372
aF15.128
aF10.248
aF11.712
aF11.712
aF12.932
aF10.736
aF11.224
aF13.908
aF10.736
aF9.516
aF11.712
aF12.2
aF5.856
aF12.2
aF18.3
aF18.3
aF10.248
aF11.224
aF10.492
aF11.224
aF17.324
aF13.176
aF10.004
aF14.64
aF11.224
aF14.152
aF11.712
aF12.688
aF10.248
aF14.64
aF7.564
aF14.152
aF13.42
aF12.932
aF12.444
aF11.956
aF7.808
aF11.468
aF15.372
aF13.664
aF8.784
aF9.516
aF14.884
aF12.688
aF13.176
aF11.712
aF13.664
aF13.176
as(I30
S'get HB13-3-LeakageCurrent[1-64]_f_rr'
p233
tp234
(lp235
F5.612
aF7.564
aF6.1
aF8.296
aF2.928
aF9.272
aF6.832
aF7.564
aF7.076
aF9.272
aF6.1
aF8.296
aF4.392
aF6.832
aF9.516
aF11.224
aF10.736
aF6.1
aF7.32
aF7.32
aF8.54
aF6.588
aF6.832
aF9.516
aF6.1
aF5.368
aF7.564
aF8.052
aF1.952
aF8.052
aF13.908
aF13.908
aF5.856
aF7.076
aF6.344
aF6.832
aF12.932
aF8.784
aF5.612
aF10.492
aF6.832
aF9.76
aF7.32
aF8.54
aF5.856
aF10.492
aF3.172
aF9.76
aF9.028
aF8.54
aF8.052
aF7.564
aF3.416
aF6.832
aF10.98
aF9.272
aF4.636
aF5.368
aF10.492
aF8.54
aF8.784
aF7.32
aF9.516
aF8.784
as(I2
S'get HB13-3-LeakageCurrent[1-64]_f_rr'
p236
tp237
(lp238
F1.952
aF3.416
aF1.952
aF3.904
aF1.708
aF5.124
aF2.684
aF3.66
aF3.172
aF4.636
aF1.952
aF4.148
aF1.708
aF3.172
aF5.612
aF6.832
aF6.588
aF2.196
aF3.172
aF3.172
aF3.66
aF2.44
aF2.684
aF5.124
aF1.952
aF1.952
aF3.66
aF3.904
aF1.708
aF4.148
aF9.516
aF9.516
aF2.196
aF2.928
aF2.196
aF2.684
aF8.54
aF4.148
aF1.708
aF6.1
aF3.172
aF5.612
aF3.416
aF4.148
aF2.196
aF6.1
aF1.708
aF5.612
aF4.88
aF4.636
aF3.904
aF3.416
aF1.708
aF2.44
aF6.1
aF4.88
aF1.708
aF1.952
aF6.1
aF4.148
aF4.636
aF3.416
aF5.612
aF4.392
as(I26
S'put HB13-3-biasvoltage[1-64]_f 64*26.000000'
p239
tp240
(lp241
S'OK'
p242
as(I20
S'put HB13-3-biasvoltage[1-64]_f 64*20.000000'
p243
tp244
(lp245
S'OK'
p246
as(I34
S'get HB13-3-biasmon[1-64]_f_rr'
p247
tp248
(lp249
F34.0708
aF34.0708
aF34.0708
aF34.0708
aF34.0904
aF34.0708
aF34.0904
aF34.0708
aF34.0708
aF34.0708
aF34.0708
aF34.0708
aF34.0708
aF34.0708
aF34.0708
aF34.0708
aF34.0708
aF34.0708
aF34.0708
aF34.0708
aF34.0708
aF34.0708
aF34.0708
aF34.0904
aF34.0904
aF34.0904
aF34.0708
aF34.0708
aF34.0708
aF34.0904
aF34.0904
aF34.0708
aF34.0708
aF34.0708
aF34.0708
aF34.0708
aF34.0708
aF34.0904
aF34.0708
aF34.0708
aF34.0708
aF34.0708
aF34.0708
aF34.0708
aF34.0708
aF34.0708
aF34.0708
aF34.0708
aF34.0904
aF34.0708
aF34.0708
aF34.0708
aF34.0708
aF34.0708
aF34.0708
aF34.0708
aF34.0708
aF34.0708
aF34.0708
aF34.0708
aF34.0708
aF34.0708
aF34.0708
aF34.0708
as(I24
S'get HB13-3-LeakageCurrent[1-64]_f_rr'
p250
tp251
(lp252
F4.636
aF6.588
aF5.124
aF7.32
aF2.196
aF8.296
aF5.856
aF6.588
aF6.1
aF8.052
aF5.124
aF7.32
aF3.66
aF5.856
aF8.54
aF10.248
aF9.76
aF5.124
aF6.344
aF6.588
aF7.564
aF5.612
aF5.856
aF8.784
aF5.368
aF4.636
aF6.588
aF7.076
aF1.952
aF7.076
aF13.176
aF12.932
aF5.124
aF6.1
aF5.368
aF5.856
aF11.956
aF7.808
aF4.636
aF9.516
aF6.1
aF8.784
aF6.588
aF7.564
aF5.124
aF9.516
aF2.44
aF8.784
aF8.052
aF7.564
aF7.076
aF6.832
aF2.684
aF5.856
aF10.004
aF8.296
aF3.66
aF4.392
aF9.516
aF7.564
aF7.808
aF6.588
aF8.54
aF8.052
as(I6
S'put HB13-3-biasvoltage[1-64]_f 64*6.000000'
p253
tp254
(lp255
S'OK'
p256
as(I56
S'put HB13-3-biasvoltage[1-64]_f 64*56.000000'
p257
tp258
(lp259
S'OK'
p260
as(I56
S'get HB13-3-biasmon[1-64]_f_rr'
p261
tp262
(lp263
F56.0488
aF56.0488
aF56.0488
aF56.0488
aF56.0684
aF56.0488
aF56.0684
aF56.0684
aF56.0488
aF56.0488
aF56.0684
aF56.0684
aF56.0684
aF56.0684
aF56.0488
aF56.0684
aF56.0488
aF56.0684
aF56.0488
aF56.0684
aF56.0684
aF56.0684
aF56.0684
aF56.0684
aF56.0879
aF56.0684
aF56.0684
aF56.0488
aF56.0488
aF56.0879
aF56.0879
aF56.0684
aF56.0488
aF56.0488
aF56.0684
aF56.0684
aF56.0684
aF56.0684
aF56.0684
aF56.0488
aF56.0684
aF56.0684
aF56.0684
aF56.0684
aF56.0488
aF56.0488
aF56.0488
aF56.0488
aF56.0684
aF56.0488
aF56.0488
aF56.0684
aF56.0684
aF56.0684
aF56.0488
aF56.0488
aF56.0684
aF56.0488
aF56.0488
aF56.0488
aF56.0488
aF56.0488
aF56.0488
aF56.0684
as(I20
S'get HB13-3-biasmon[1-64]_f_rr'
p264
tp265
(lp266
F20.0635
aF20.0635
aF20.0635
aF20.0635
aF20.083
aF20.0635
aF20.083
aF20.083
aF20.0635
aF20.0635
aF20.083
aF20.083
aF20.0635
aF20.083
aF20.0635
aF20.0635
aF20.0635
aF20.083
aF20.0635
aF20.0635
aF20.0635
aF20.083
aF20.083
aF20.083
aF20.083
aF20.083
aF20.083
aF20.0635
aF20.0635
aF20.083
aF20.083
aF20.0635
aF20.0635
aF20.0635
aF20.083
aF20.0635
aF20.083
aF20.083
aF20.083
aF20.083
aF20.083
aF20.083
aF20.0635
aF20.083
aF20.0635
aF20.083
aF20.0635
aF20.083
aF20.083
aF20.0635
aF20.0635
aF20.083
aF20.0635
aF20.083
aF20.083
aF20.0635
aF20.0635
aF20.0635
aF20.0635
aF20.0635
aF20.0635
aF20.0635
aF20.0635
aF20.083
as(I46
S'get HB13-3-LeakageCurrent[1-64]_f_rr'
p267
tp268
(lp269
F8.052
aF10.004
aF8.54
aF10.736
aF5.368
aF11.956
aF9.028
aF9.76
aF9.516
aF11.712
aF8.54
aF10.736
aF6.832
aF9.272
aF11.956
aF13.664
aF13.42
aF8.54
aF9.76
aF9.76
aF11.224
aF9.028
aF9.272
aF12.2
aF8.784
aF7.808
aF9.76
aF10.492
aF3.904
aF10.492
aF16.348
aF16.348
aF8.296
aF9.516
aF8.784
aF9.272
aF15.372
aF11.468
aF8.052
aF12.932
aF9.272
aF12.444
aF9.76
aF10.98
aF8.296
aF12.932
aF5.612
aF12.2
aF11.712
aF11.224
aF10.492
aF10.004
aF5.856
aF9.516
aF13.664
aF11.712
aF7.076
aF7.808
aF12.932
aF10.98
aF11.224
aF9.76
aF11.712
aF11.224
as(I0
S'put HB13-3-biasvoltage[1-64]_f 64*0.000000'
p270
tp271
(lp272
S'OK'
p273
as(I42
S'put HB13-3-biasvoltage[1-64]_f 64*42.000000'
p274
tp275
(lp276
S'OK'
p277
as(I18
S'get HB13-3-biasmon[1-64]_f_rr'
p278
tp279
(lp280
F18.0513
aF18.0513
aF18.0513
aF18.0513
aF18.0708
aF18.0513
aF18.0708
aF18.0708
aF18.0708
aF18.0513
aF18.0513
aF18.0708
aF18.0708
aF18.0708
aF18.0513
aF18.0513
aF18.0513
aF18.0513
aF18.0513
aF18.0513
aF18.0708
aF18.0708
aF18.0513
aF18.0708
aF18.0708
aF18.0708
aF18.0513
aF18.0513
aF18.0513
aF18.0708
aF18.0708
aF18.0513
aF18.0513
aF18.0513
aF18.0708
aF18.0513
aF18.0708
aF18.0708
aF18.0513
aF18.0513
aF18.0513
aF18.0708
aF18.0513
aF18.0708
aF18.0513
aF18.0708
aF18.0513
aF18.0513
aF18.0708
aF18.0513
aF18.0513
aF18.0513
aF18.0513
aF18.0708
aF18.0708
aF18.0513
aF18.0513
aF18.0513
aF18.0513
aF18.0708
aF18.0513
aF18.0513
aF18.0513
aF18.0708
as(I22
S'get HB13-3-biasmon[1-64]_f_rr'
p281
tp282
(lp283
F22.0562
aF22.0562
aF22.0757
aF22.0757
aF22.0757
aF22.0562
aF22.0757
aF22.0757
aF22.0562
aF22.0757
aF22.0757
aF22.0757
aF22.0757
aF22.0757
aF22.0562
aF22.0562
aF22.0562
aF22.0757
aF22.0562
aF22.0562
aF22.0757
aF22.0757
aF22.0757
aF22.0757
aF22.0757
aF22.0757
aF22.0757
aF22.0562
aF22.0562
aF22.0757
aF22.0757
aF22.0562
aF22.0562
aF22.0757
aF22.0757
aF22.0562
aF22.0757
aF22.0757
aF22.0757
aF22.0757
aF22.0757
aF22.0757
aF22.0757
aF22.0757
aF22.0562
aF22.0562
aF22.0562
aF22.0562
aF22.0757
aF22.0562
aF22.0757
aF22.0562
aF22.0562
aF22.0757
aF22.0757
aF22.0562
aF22.0562
aF22.0562
aF22.0757
aF22.0757
aF22.0562
aF22.0562
aF22.0757
aF22.0562
as(I40
S'get HB13-3-biasmon[1-64]_f_rr'
p284
tp285
(lp286
F40.0488
aF40.0488
aF40.0488
aF40.0488
aF40.0684
aF40.0488
aF40.0684
aF40.0684
aF40.0488
aF40.0488
aF40.0488
aF40.0684
aF40.0684
aF40.0684
aF40.0684
aF40.0488
aF40.0488
aF40.0488
aF40.0488
aF40.0488
aF40.0488
aF40.0684
aF40.0684
aF40.0684
aF40.0684
aF40.0684
aF40.0684
aF40.0488
aF40.0488
aF40.0684
aF40.0684
aF40.0488
aF40.0488
aF40.0488
aF40.0684
aF40.0684
aF40.0684
aF40.0684
aF40.0684
aF40.0488
aF40.0684
aF40.0684
aF40.0684
aF40.0684
aF40.0488
aF40.0488
aF40.0488
aF40.0488
aF40.0684
aF40.0684
aF40.0488
aF40.0684
aF40.0488
aF40.0684
aF40.0684
aF40.0488
aF40.0488
aF40.0488
aF40.0488
aF40.0684
aF40.0488
aF40.0488
aF40.0488
aF40.0684
as(I26
S'get HB13-3-LeakageCurrent[1-64]_f_rr'
p287
tp288
(lp289
F4.88
aF6.832
aF5.368
aF7.564
aF2.44
aF8.54
aF6.1
aF6.832
aF6.344
aF8.54
aF5.368
aF7.564
aF3.904
aF6.1
aF8.784
aF10.492
aF10.248
aF5.368
aF6.832
aF6.832
aF7.808
aF5.856
aF6.1
aF8.784
aF5.612
aF4.636
aF6.832
aF7.32
aF1.708
aF7.564
aF13.42
aF13.176
aF5.368
aF6.588
aF5.856
aF6.1
aF12.444
aF8.052
aF4.88
aF9.76
aF6.344
aF9.028
aF6.832
aF7.808
aF5.368
aF9.76
aF2.684
aF9.272
aF8.54
aF8.052
aF7.564
aF7.076
aF2.928
aF6.344
aF10.248
aF8.54
aF3.904
aF4.636
aF10.004
aF7.808
aF8.296
aF6.832
aF9.028
aF8.296
as(I4
S'get HB13-3-biasmon[1-64]_f_rr'
p290
tp291
(lp292
F4.06349
aF4.06349
aF4.06349
aF4.06349
aF4.08303
aF4.06349
aF4.06349
aF4.08303
aF4.06349
aF4.06349
aF4.06349
aF4.06349
aF4.06349
aF4.08303
aF4.06349
aF4.06349
aF4.06349
aF4.06349
aF4.06349
aF4.06349
aF4.06349
aF4.08303
aF4.06349
aF4.08303
aF4.08303
aF4.06349
aF4.06349
aF4.06349
aF4.06349
aF4.06349
aF4.06349
aF4.06349
aF4.04396
aF4.06349
aF4.06349
aF4.06349
aF4.06349
aF4.06349
aF4.06349
aF4.06349
aF4.08303
aF4.08303
aF4.06349
aF4.06349
aF4.06349
aF4.06349
aF4.06349
aF4.06349
aF4.06349
aF4.06349
aF4.06349
aF4.06349
aF4.06349
aF4.06349
aF4.08303
aF4.06349
aF4.06349
aF4.06349
aF4.06349
aF4.08303
aF4.06349
aF4.06349
aF4.06349
aF4.06349
as(I30
S'put HB13-3-biasvoltage[1-64]_f 64*30.000000'
p293
tp294
(lp295
S'OK'
p296
as(I40
S'put HB13-3-biasvoltage[1-64]_f 64*40.000000'
p297
tp298
(lp299
S'OK'
p300
as(I58
S'get HB13-3-biasmon[1-64]_f_rr'
p301
tp302
(lp303
F58.0611
aF58.0806
aF58.0806
aF58.0611
aF58.1001
aF58.0611
aF58.0806
aF58.0806
aF58.0611
aF58.0611
aF58.0806
aF58.0806
aF58.0806
aF58.0806
aF58.0611
aF58.0806
aF58.0611
aF58.0806
aF58.0611
aF58.0611
aF58.0806
aF58.0806
aF58.0806
aF58.0806
aF58.1001
aF58.0806
aF58.0806
aF58.0806
aF58.0611
aF58.0806
aF58.0806
aF58.0806
aF58.0611
aF58.0806
aF58.0806
aF58.0806
aF58.0806
aF58.0806
aF58.0806
aF58.0611
aF58.0806
aF58.0806
aF58.0806
aF58.0806
aF58.0611
aF58.0611
aF58.0611
aF58.0611
aF58.0806
aF58.0806
aF58.0611
aF58.0806
aF58.0806
aF58.0806
aF58.0806
aF58.0611
aF58.0611
aF58.0611
aF58.0611
aF58.0611
aF58.0611
aF58.0611
aF58.0611
aF58.0611
as(I54
S'put HB13-3-biasvoltage[1-64]_f 64*54.000000'
p304
tp305
(lp306
S'OK'
p307
as(I6
S'get HB13-3-biasmon[1-64]_f_rr'
p308
tp309
(lp310
F6.05617
aF6.05617
aF6.05617
aF6.05617
aF6.0757
aF6.05617
aF6.0757
aF6.0757
aF6.05617
aF6.05617
aF6.05617
aF6.0757
aF6.05617
aF6.0757
aF6.05617
aF6.05617
aF6.05617
aF6.05617
aF6.05617
aF6.05617
aF6.0757
aF6.05617
aF6.05617
aF6.0757
aF6.0757
aF6.05617
aF6.05617
aF6.05617
aF6.05617
aF6.05617
aF6.0757
aF6.05617
aF6.05617
aF6.05617
aF6.05617
aF6.05617
aF6.05617
aF6.0757
aF6.0757
aF6.05617
aF6.0757
aF6.05617
aF6.05617
aF6.05617
aF6.05617
aF6.05617
aF6.05617
aF6.05617
aF6.05617
aF6.05617
aF6.05617
aF6.05617
aF6.05617
aF6.05617
aF6.0757
aF6.05617
aF6.05617
aF6.05617
aF6.05617
aF6.05617
aF6.05617
aF6.05617
aF6.05617
aF6.05617
as.