(dp0
(I58
S'get HB4-1-biasmon[1-64]_f_rr'
p1
tp2
(lp3
F57.8852
aF57.8657
aF57.8852
aF57.8852
aF57.8852
aF57.8852
aF57.8852
aF57.8852
aF57.8852
aF57.8852
aF57.8657
aF57.8852
aF57.8852
aF57.9048
aF57.8852
aF57.9048
aF57.8852
aF57.8852
aF57.8852
aF57.8852
aF57.8852
aF57.8852
aF57.8852
aF57.8852
aF57.8852
aF57.8852
aF57.8852
aF57.8852
aF57.8852
aF57.8852
aF57.8852
aF57.8852
aF57.8852
aF57.8852
aF57.8852
aF57.8852
aF57.8852
aF57.8852
aF57.9048
aF57.8852
aF57.8852
aF57.8657
aF57.8852
aF57.8657
aF57.8852
aF57.8852
aF57.9048
aF57.8852
aF57.8852
aF57.8852
aF57.8852
aF57.8852
aF57.8852
aF57.8852
aF57.9048
aF57.8852
aF57.8657
aF57.8852
aF57.8657
aF57.8657
aF57.8657
aF57.8852
aF57.8852
aF57.8852
as(I16
S'put HB4-1-biasvoltage[1-64]_f 64*16.000000'
p4
tp5
(lp6
S'OK'
p7
as(I32
S'get HB4-1-biasmon[1-64]_f_rr'
p8
tp9
(lp10
F31.9609
aF31.9414
aF31.9609
aF31.9609
aF31.9609
aF31.9609
aF31.9609
aF31.9609
aF31.9609
aF31.9609
aF31.9609
aF31.9805
aF31.9805
aF31.9805
aF31.9805
aF31.9609
aF31.9609
aF31.9609
aF31.9609
aF31.9609
aF31.9609
aF31.9609
aF31.9609
aF31.9805
aF31.9609
aF31.9805
aF31.9609
aF31.9609
aF31.9609
aF31.9609
aF31.9805
aF31.9609
aF31.9609
aF31.9609
aF31.9609
aF31.9609
aF31.9805
aF31.9805
aF31.9805
aF31.9805
aF31.9609
aF31.9609
aF31.9609
aF31.9609
aF31.9609
aF31.9805
aF31.9805
aF31.9609
aF31.9609
aF31.9609
aF31.9609
aF31.9609
aF31.9609
aF31.9805
aF32.0
aF31.9805
aF31.9609
aF31.9609
aF31.9609
aF31.9609
aF31.9414
aF31.9609
aF31.9609
aF31.9609
as(I41
S'get HB4-1-biasmon[1-64]_f_rr'
p11
tp12
(lp13
F40.9475
aF40.928
aF40.9475
aF40.928
aF40.9475
aF40.9475
aF40.9475
aF40.9475
aF40.9475
aF40.9475
aF40.9475
aF40.9475
aF40.9475
aF40.9475
aF40.9475
aF40.9475
aF40.9475
aF40.9475
aF40.928
aF40.9475
aF40.9475
aF40.9475
aF40.9475
aF40.9475
aF40.9475
aF40.9475
aF40.9475
aF40.9475
aF40.9475
aF40.9475
aF40.9475
aF40.9475
aF40.9475
aF40.9475
aF40.9475
aF40.9475
aF40.9475
aF40.9475
aF40.9475
aF40.9475
aF40.9475
aF40.9475
aF40.9475
aF40.9475
aF40.9475
aF40.9475
aF40.9475
aF40.9475
aF40.9475
aF40.9475
aF40.9475
aF40.9475
aF40.9475
aF40.9475
aF40.967
aF40.9475
aF40.928
aF40.9475
aF40.9475
aF40.9475
aF40.9475
aF40.9475
aF40.9475
aF40.9475
as(I58
S'get HB4-1-LeakageCurrent[1-64]_f_rr'
p14
tp15
(lp16
F9.76
aF12.2
aF14.396
aF13.908
aF10.98
aF11.956
aF10.492
aF9.76
aF12.444
aF14.152
aF11.468
aF6.832
aF10.736
aF10.004
aF12.444
aF12.444
aF10.004
aF15.128
aF11.956
aF12.2
aF15.372
aF9.516
aF10.004
aF12.688
aF13.42
aF12.2
aF10.736
aF10.98
aF5.612
aF16.104
aF14.884
aF10.736
aF13.908
aF13.908
aF15.616
aF7.32
aF15.372
aF11.468
aF11.956
aF15.128
aF8.54
aF10.98
aF12.932
aF10.492
aF12.688
aF9.516
aF16.348
aF14.396
aF12.444
aF11.956
aF11.468
aF13.908
aF10.004
aF12.444
aF14.64
aF11.224
aF12.2
aF8.296
aF11.956
aF12.932
aF13.176
aF15.86
aF11.956
aF9.516
as(I29
S'get HB4-1-LeakageCurrent[1-64]_f_rr'
p17
tp18
(lp19
F5.368
aF7.808
aF9.76
aF9.516
aF6.588
aF7.564
aF6.1
aF5.368
aF7.808
aF9.516
aF7.076
aF2.684
aF6.344
aF5.612
aF7.808
aF8.052
aF5.612
aF10.736
aF7.564
aF7.564
aF10.98
aF4.88
aF5.368
aF8.296
aF9.028
aF7.564
aF6.344
aF6.588
aF2.196
aF11.712
aF10.248
aF6.344
aF9.272
aF9.516
aF11.224
aF2.928
aF10.736
aF6.832
aF7.564
aF10.492
aF4.148
aF6.588
aF8.54
aF6.1
aF8.052
aF5.124
aF11.956
aF9.76
aF7.808
aF7.32
aF6.832
aF9.272
aF5.612
aF7.808
aF10.004
aF6.832
aF7.564
aF3.904
aF7.32
aF8.296
aF8.54
aF11.468
aF7.564
aF5.124
as(I38
S'put HB4-1-biasvoltage[1-64]_f 64*38.000000'
p20
tp21
(lp22
S'OK'
p23
as(I58
S'put HB4-1-biasvoltage[1-64]_f 64*58.000000'
p24
tp25
(lp26
S'OK'
p27
as(I39
S'get HB4-1-biasmon[1-64]_f_rr'
p28
tp29
(lp30
F38.9353
aF38.9158
aF38.9353
aF38.9353
aF38.9353
aF38.9353
aF38.9353
aF38.9353
aF38.9353
aF38.9353
aF38.9353
aF38.9548
aF38.9353
aF38.9548
aF38.9353
aF38.9548
aF38.9353
aF38.9353
aF38.9353
aF38.9353
aF38.9353
aF38.9353
aF38.9353
aF38.9548
aF38.9353
aF38.9353
aF38.9353
aF38.9353
aF38.9353
aF38.9353
aF38.9353
aF38.9353
aF38.9353
aF38.9353
aF38.9353
aF38.9353
aF38.9548
aF38.9353
aF38.9548
aF38.9548
aF38.9353
aF38.9353
aF38.9353
aF38.9353
aF38.9353
aF38.9548
aF38.9353
aF38.9353
aF38.9353
aF38.9353
aF38.9353
aF38.9353
aF38.9548
aF38.9353
aF38.9548
aF38.9548
aF38.9353
aF38.9353
aF38.9353
aF38.9353
aF38.9353
aF38.9353
aF38.9353
aF38.9353
as(I21
S'put HB4-1-biasvoltage[1-64]_f 64*21.000000'
p31
tp32
(lp33
S'OK'
p34
as(I59
S'get HB4-1-biasmon[1-64]_f_rr'
p35
tp36
(lp37
F58.862
aF58.862
aF58.862
aF58.862
aF58.862
aF58.8816
aF58.8816
aF58.8816
aF58.862
aF58.862
aF58.862
aF58.8816
aF58.8816
aF58.9011
aF58.8816
aF58.8816
aF58.862
aF58.8816
aF58.862
aF58.862
aF58.8816
aF58.8816
aF58.8816
aF58.8816
aF58.8816
aF58.8816
aF58.8816
aF58.862
aF58.8816
aF58.8816
aF58.8816
aF58.8816
aF58.862
aF58.8816
aF58.862
aF58.8816
aF58.8816
aF58.8816
aF58.8816
aF58.8816
aF58.8816
aF58.862
aF58.862
aF58.862
aF58.862
aF58.8816
aF58.8816
aF58.8816
aF58.8816
aF58.8816
aF58.8816
aF58.862
aF58.8816
aF58.8816
aF58.9011
aF58.8816
aF58.862
aF58.862
aF58.862
aF58.862
aF58.862
aF58.8816
aF58.8816
aF58.8816
as(I49
S'get HB4-1-LeakageCurrent[1-64]_f_rr'
p38
tp39
(lp40
F8.54
aF10.98
aF12.932
aF12.688
aF9.516
aF10.736
aF9.272
aF8.54
aF10.98
aF12.688
aF10.004
aF5.612
aF9.272
aF8.54
aF10.98
aF11.224
aF8.784
aF13.908
aF10.736
aF10.736
aF13.908
aF8.052
aF8.54
aF11.468
aF11.956
aF10.736
aF9.516
aF9.76
aF4.148
aF14.884
aF13.42
aF9.272
aF12.444
aF12.444
aF14.396
aF5.856
aF13.908
aF10.004
aF10.492
aF13.664
aF7.076
aF9.516
aF11.712
aF9.272
aF11.224
aF8.052
aF14.884
aF12.932
aF10.98
aF10.492
aF10.004
aF12.444
aF8.54
aF10.98
aF13.176
aF9.76
aF10.736
aF6.832
aF10.492
aF11.468
aF11.712
aF14.64
aF10.492
aF8.296
as(I39
S'put HB4-1-biasvoltage[1-64]_f 64*39.000000'
p41
tp42
(lp43
S'OK'
p44
as(I0
S'put HB4-1-biasvoltage[1-64]_f 64*0.000000'
p45
tp46
(lp47
S'OK'
p48
as(I9
S'get HB4-1-biasmon[1-64]_f_rr'
p49
tp50
(lp51
F9.02564
aF9.02564
aF9.04518
aF9.04518
aF9.04518
aF9.04518
aF9.04518
aF9.04518
aF9.02564
aF9.04518
aF9.04518
aF9.04518
aF9.04518
aF9.04518
aF9.04518
aF9.04518
aF9.04518
aF9.04518
aF9.02564
aF9.04518
aF9.04518
aF9.04518
aF9.04518
aF9.04518
aF9.04518
aF9.04518
aF9.04518
aF9.02564
aF9.04518
aF9.04518
aF9.04518
aF9.04518
aF9.04518
aF9.04518
aF9.02564
aF9.04518
aF9.04518
aF9.04518
aF9.04518
aF9.04518
aF9.04518
aF9.04518
aF9.04518
aF9.04518
aF9.04518
aF9.04518
aF9.04518
aF9.04518
aF9.04518
aF9.04518
aF9.04518
aF9.02564
aF9.04518
aF9.04518
aF9.04518
aF9.04518
aF9.04518
aF9.04518
aF9.04518
aF9.04518
aF9.02564
aF9.04518
aF9.04518
aF9.04518
as(I50
S'put HB4-1-biasvoltage[1-64]_f 64*50.000000'
p52
tp53
(lp54
S'OK'
p55
as(I60
S'get HB4-1-LeakageCurrent[1-64]_f_rr'
p56
tp57
(lp58
F10.248
aF12.444
aF14.64
aF14.396
aF11.224
aF12.444
aF10.98
aF10.248
aF12.688
aF14.396
aF11.956
aF7.32
aF10.98
aF10.492
aF12.688
aF12.932
aF10.248
aF15.372
aF12.444
aF12.444
aF15.616
aF9.76
aF10.248
aF13.176
aF13.664
aF12.444
aF10.98
aF11.468
aF5.856
aF16.348
aF15.128
aF10.98
aF14.152
aF14.396
aF15.86
aF7.564
aF15.372
aF11.712
aF12.444
aF15.372
aF8.54
aF11.468
aF13.42
aF10.98
aF12.932
aF9.76
aF16.592
aF14.64
aF12.688
aF12.2
aF11.712
aF14.152
aF10.492
aF12.688
aF15.128
aF11.712
aF12.444
aF8.54
aF12.2
aF13.176
aF13.42
aF16.348
aF12.2
aF9.76
as(I17
S'get HB4-1-biasmon[1-64]_f_rr'
p59
tp60
(lp61
F16.9963
aF16.9963
aF17.0159
aF16.9963
aF17.0159
aF17.0159
aF17.0159
aF17.0159
aF16.9963
aF17.0159
aF16.9963
aF17.0159
aF16.9963
aF17.0159
aF16.9963
aF17.0159
aF17.0159
aF16.9963
aF16.9963
aF16.9963
aF17.0159
aF17.0159
aF17.0159
aF17.0159
aF16.9963
aF17.0159
aF16.9963
aF16.9963
aF17.0159
aF17.0159
aF17.0159
aF17.0159
aF17.0159
aF17.0159
aF16.9963
aF17.0159
aF17.0159
aF17.0159
aF17.0159
aF17.0159
aF17.0159
aF17.0159
aF17.0159
aF17.0159
aF17.0159
aF17.0159
aF17.0159
aF17.0159
aF17.0159
aF17.0159
aF17.0159
aF17.0159
aF17.0159
aF17.0159
aF17.0159
aF17.0159
aF17.0159
aF17.0159
aF17.0159
aF17.0159
aF16.9963
aF17.0159
aF17.0159
aF17.0159
as(I5
S'get HB4-1-LeakageCurrent[1-64]_f_rr'
p62
tp63
(lp64
F1.952
aF3.66
aF6.344
aF6.344
aF2.684
aF3.904
aF2.196
aF2.44
aF3.904
aF5.856
aF3.172
aF2.196
aF2.684
aF2.44
aF4.148
aF4.636
aF2.196
aF7.076
aF4.148
aF3.904
aF7.076
aF2.196
aF1.952
aF4.636
aF5.124
aF3.904
aF3.172
aF2.928
aF1.952
aF7.564
aF6.1
aF2.684
aF5.612
aF6.344
aF7.32
aF2.196
aF7.076
aF3.904
aF3.904
aF7.076
aF1.952
aF3.416
aF5.124
aF2.928
aF4.88
aF2.196
aF8.052
aF6.344
aF4.636
aF3.416
aF2.928
aF5.368
aF2.196
aF3.66
aF6.1
aF3.66
aF4.636
aF2.196
aF3.904
aF4.636
aF4.88
aF8.052
aF3.416
aF1.952
as(I31
S'get HB4-1-LeakageCurrent[1-64]_f_rr'
p65
tp66
(lp67
F5.856
aF8.052
aF10.004
aF9.76
aF6.832
aF7.808
aF6.344
aF5.856
aF8.052
aF10.004
aF7.32
aF2.928
aF6.588
aF5.856
aF8.052
aF8.54
aF5.856
aF10.98
aF7.808
aF8.052
aF11.224
aF5.368
aF5.856
aF8.54
aF9.272
aF8.052
aF6.588
aF6.832
aF2.196
aF11.956
aF10.492
aF6.588
aF9.516
aF9.76
aF11.468
aF3.172
aF10.98
aF7.32
aF7.808
aF10.736
aF4.392
aF6.832
aF8.54
aF6.588
aF8.54
aF5.368
aF12.2
aF10.004
aF8.296
aF7.564
aF7.076
aF9.516
aF5.856
aF8.052
aF10.492
aF7.076
aF8.052
aF4.148
aF7.564
aF8.54
aF9.028
aF11.956
aF7.564
aF5.612
as(I33
S'put HB4-1-biasvoltage[1-64]_f 64*33.000000'
p68
tp69
(lp70
S'OK'
p71
as(I51
S'get HB4-1-LeakageCurrent[1-64]_f_rr'
p72
tp73
(lp74
F8.784
aF11.224
aF13.176
aF12.932
aF9.76
aF10.98
aF9.516
aF8.784
aF11.468
aF13.176
aF10.248
aF5.856
aF9.516
aF9.028
aF11.224
aF11.712
aF9.028
aF14.396
aF10.98
aF10.98
aF14.396
aF8.296
aF8.784
aF11.712
aF12.444
aF11.224
aF9.516
aF10.004
aF4.636
aF15.128
aF13.664
aF9.516
aF12.688
aF12.932
aF14.64
aF6.1
aF14.152
aF10.248
aF10.98
aF13.908
aF7.32
aF10.004
aF11.956
aF9.516
aF11.712
aF8.54
aF15.372
aF13.176
aF11.468
aF10.736
aF10.492
aF12.688
aF9.028
aF11.224
aF13.664
aF10.004
aF10.98
aF7.32
aF10.736
aF11.712
aF11.956
aF14.884
aF10.98
aF8.54
as(I27
S'put HB4-1-biasvoltage[1-64]_f 64*27.000000'
p75
tp76
(lp77
S'OK'
p78
as(I3
S'get HB4-1-biasmon[1-64]_f_rr'
p79
tp80
(lp81
F3.06716
aF3.04762
aF3.04762
aF3.06716
aF3.06716
aF3.06716
aF3.06716
aF3.06716
aF3.04762
aF3.06716
aF3.06716
aF3.06716
aF3.04762
aF3.06716
aF3.06716
aF3.06716
aF3.06716
aF3.06716
aF3.04762
aF3.06716
aF3.06716
aF3.06716
aF3.06716
aF3.06716
aF3.06716
aF3.06716
aF3.04762
aF3.04762
aF3.04762
aF3.06716
aF3.06716
aF3.06716
aF3.04762
aF3.06716
aF3.04762
aF3.06716
aF3.06716
aF3.06716
aF3.06716
aF3.06716
aF3.04762
aF3.06716
aF3.04762
aF3.06716
aF3.04762
aF3.06716
aF3.06716
aF3.04762
aF3.06716
aF3.04762
aF3.04762
aF3.06716
aF3.06716
aF3.06716
aF3.06716
aF3.06716
aF3.06716
aF3.06716
aF3.06716
aF3.06716
aF3.04762
aF3.06716
aF3.06716
aF3.06716
as(I15
S'get HB4-1-LeakageCurrent[1-64]_f_rr'
p82
tp83
(lp84
F3.172
aF5.612
aF7.564
aF7.564
aF4.392
aF5.368
aF3.66
aF3.416
aF5.612
aF7.564
aF4.88
aF2.196
aF4.148
aF3.416
aF5.856
aF6.1
aF3.416
aF8.54
aF5.368
aF5.612
aF8.784
aF2.928
aF3.416
aF6.344
aF6.832
aF5.612
aF4.148
aF4.636
aF1.952
aF9.516
aF8.052
aF4.148
aF7.076
aF7.32
aF9.028
aF2.196
aF8.54
aF4.88
aF5.368
aF8.54
aF2.196
aF4.636
aF6.1
aF4.148
aF5.856
aF2.928
aF9.76
aF7.564
aF5.856
aF5.368
aF4.636
aF7.076
aF3.416
aF5.856
aF7.808
aF4.636
aF5.612
aF2.196
aF5.368
aF6.1
aF6.588
aF9.272
aF5.124
aF3.172
as(I60
S'get HB4-1-biasmon[1-64]_f_rr'
p85
tp86
(lp87
F59.8584
aF59.8584
aF59.8779
aF59.8584
aF59.8584
aF59.8779
aF59.8779
aF59.8779
aF59.8584
aF59.8779
aF59.8584
aF59.8779
aF59.8779
aF59.8779
aF59.8779
aF59.8779
aF59.8584
aF59.8584
aF59.8584
aF59.8584
aF59.8779
aF59.8779
aF59.8779
aF59.8779
aF59.8779
aF59.8779
aF59.8779
aF59.8584
aF59.8779
aF59.8779
aF59.8779
aF59.8779
aF59.8779
aF59.8779
aF59.8584
aF59.8779
aF59.8779
aF59.8779
aF59.8779
aF59.8779
aF59.8779
aF59.8584
aF59.8779
aF59.8584
aF59.8584
aF59.8779
aF59.8779
aF59.8779
aF59.8779
aF59.8584
aF59.8779
aF59.8584
aF59.8584
aF59.8779
aF59.8974
aF59.8779
aF59.8584
aF59.8584
aF59.8584
aF59.8584
aF59.8584
aF59.8584
aF59.8584
aF59.8779
as(I17
S'get HB4-1-LeakageCurrent[1-64]_f_rr'
p88
tp89
(lp90
F3.66
aF5.856
aF7.808
aF7.564
aF4.636
aF5.612
aF4.148
aF3.416
aF5.856
aF7.808
aF5.124
aF2.196
aF4.636
aF3.66
aF6.1
aF6.344
aF3.66
aF9.028
aF5.856
aF5.856
aF9.028
aF3.416
aF3.66
aF6.588
aF7.076
aF5.856
aF4.392
aF4.636
aF1.952
aF9.76
aF8.296
aF4.636
aF7.32
aF7.564
aF9.516
aF2.196
aF9.028
aF5.368
aF5.856
aF8.54
aF2.44
aF4.636
aF6.588
aF4.392
aF6.344
aF3.416
aF10.004
aF7.808
aF6.1
aF5.612
aF5.124
aF7.564
aF3.66
aF5.856
aF8.296
aF5.124
aF5.856
aF2.44
aF5.612
aF6.588
aF7.076
aF9.516
aF5.368
aF3.416
as(I14
S'get HB4-1-LeakageCurrent[1-64]_f_rr'
p91
tp92
(lp93
F3.172
aF5.612
aF7.564
aF7.32
aF4.148
aF5.124
aF3.66
aF3.172
aF5.368
aF7.32
aF4.88
aF2.196
aF3.904
aF3.172
aF5.612
aF5.856
aF3.416
aF8.54
aF5.368
aF5.368
aF8.54
aF2.928
aF3.172
aF6.1
aF6.588
aF5.124
aF4.148
aF4.148
aF1.952
aF9.272
aF8.052
aF4.148
aF6.832
aF7.32
aF9.028
aF2.196
aF8.54
aF4.88
aF5.368
aF8.296
aF2.196
aF4.392
aF6.1
aF4.148
aF5.856
aF2.928
aF9.516
aF7.564
aF5.856
aF5.124
aF4.636
aF6.832
aF3.416
aF5.368
aF8.052
aF4.636
aF5.368
aF2.196
aF4.88
aF6.1
aF6.344
aF9.272
aF5.124
aF2.928
as(I48
S'put HB4-1-biasvoltage[1-64]_f 64*48.000000'
p94
tp95
(lp96
S'OK'
p97
as(I10
S'get HB4-1-biasmon[1-64]_f_rr'
p98
tp99
(lp100
F10.022
aF10.022
aF10.022
aF10.022
aF10.0415
aF10.0415
aF10.0415
aF10.0415
aF10.022
aF10.0415
aF10.022
aF10.0415
aF10.022
aF10.0415
aF10.0415
aF10.0415
aF10.0415
aF10.022
aF10.022
aF10.0415
aF10.0415
aF10.0415
aF10.0415
aF10.0415
aF10.0415
aF10.0415
aF10.0415
aF10.022
aF10.0415
aF10.0415
aF10.0415
aF10.0415
aF10.0415
aF10.0415
aF10.022
aF10.0415
aF10.0415
aF10.0415
aF10.0415
aF10.0415
aF10.022
aF10.0415
aF10.0415
aF10.022
aF10.022
aF10.0415
aF10.0415
aF10.022
aF10.0415
aF10.0415
aF10.0415
aF10.0415
aF10.022
aF10.0415
aF10.0415
aF10.0415
aF10.0415
aF10.0415
aF10.0415
aF10.0415
aF10.022
aF10.0415
aF10.0415
aF10.0415
as(I46
S'get HB4-1-biasmon[1-64]_f_rr'
p101
tp102
(lp103
F45.9096
aF45.9096
aF45.9292
aF45.9096
aF45.9292
aF45.9292
aF45.9292
aF45.9292
aF45.9096
aF45.9292
aF45.9292
aF45.9292
aF45.9292
aF45.9487
aF45.9292
aF45.9487
aF45.9096
aF45.9096
aF45.9096
aF45.9292
aF45.9292
aF45.9292
aF45.9292
aF45.9292
aF45.9292
aF45.9292
aF45.9292
aF45.9292
aF45.9292
aF45.9292
aF45.9292
aF45.9292
aF45.9096
aF45.9292
aF45.9292
aF45.9292
aF45.9292
aF45.9487
aF45.9487
aF45.9487
aF45.9292
aF45.9096
aF45.9292
aF45.9096
aF45.9292
aF45.9292
aF45.9487
aF45.9292
aF45.9292
aF45.9292
aF45.9292
aF45.9292
aF45.9292
aF45.9292
aF45.9487
aF45.9292
aF45.9292
aF45.9096
aF45.9292
aF45.9292
aF45.9096
aF45.9096
aF45.9292
aF45.9292
as(I1
S'get HB4-1-LeakageCurrent[1-64]_f_rr'
p104
tp105
(lp106
F1.708
aF3.416
aF5.368
aF5.368
aF2.196
aF2.928
aF1.952
aF1.952
aF3.172
aF5.856
aF3.172
aF2.196
aF2.684
aF1.952
aF3.904
aF4.148
aF1.952
aF7.076
aF3.172
aF3.416
aF6.832
aF2.196
aF1.952
aF4.148
aF4.88
aF3.172
aF2.196
aF2.684
aF1.952
aF7.076
aF6.344
aF2.44
aF4.636
aF5.124
aF6.832
aF2.196
aF6.344
aF3.416
aF3.172
aF5.856
aF1.952
aF2.684
aF4.148
aF2.44
aF3.66
aF2.196
aF7.564
aF5.368
aF3.66
aF3.66
aF2.684
aF4.88
aF1.708
aF3.416
aF5.856
aF2.684
aF3.416
aF2.196
aF3.416
aF4.148
aF4.88
aF7.076
aF2.928
aF2.196
as(I18
S'get HB4-1-biasmon[1-64]_f_rr'
p107
tp108
(lp109
F17.9927
aF17.9927
aF17.9927
aF17.9927
aF17.9927
aF17.9927
aF18.0122
aF18.0122
aF17.9927
aF17.9927
aF17.9927
aF18.0122
aF18.0122
aF17.9927
aF17.9927
aF18.0122
aF17.9927
aF17.9927
aF17.9927
aF17.9927
aF18.0122
aF17.9927
aF17.9927
aF17.9927
aF17.9927
aF18.0122
aF17.9927
aF17.9927
aF17.9927
aF17.9927
aF17.9927
aF17.9927
aF17.9927
aF18.0122
aF17.9927
aF18.0122
aF18.0122
aF18.0122
aF18.0122
aF18.0122
aF17.9927
aF17.9927
aF17.9927
aF17.9927
aF17.9927
aF18.0122
aF18.0122
aF17.9927
aF17.9927
aF17.9927
aF17.9927
aF17.9927
aF18.0122
aF17.9927
aF18.0122
aF18.0122
aF17.9927
aF17.9927
aF17.9927
aF18.0122
aF17.9927
aF17.9927
aF17.9927
aF18.0122
as(I25
S'put HB4-1-biasvoltage[1-64]_f 64*25.000000'
p110
tp111
(lp112
S'OK'
p113
as(I54
S'put HB4-1-biasvoltage[1-64]_f 64*54.000000'
p114
tp115
(lp116
S'OK'
p117
as(I27
S'get HB4-1-LeakageCurrent[1-64]_f_rr'
p118
tp119
(lp120
F5.124
aF7.564
aF9.516
aF9.272
aF6.1
aF7.076
aF5.856
aF5.124
aF7.564
aF9.272
aF6.832
aF2.44
aF5.856
aF5.124
aF7.564
aF7.808
aF5.368
aF10.492
aF7.32
aF7.32
aF10.492
aF4.636
aF5.124
aF8.052
aF8.54
aF7.32
aF5.856
aF6.344
aF1.952
aF11.468
aF10.004
aF6.1
aF9.028
aF9.272
aF10.736
aF2.684
aF10.492
aF6.588
aF7.32
aF10.004
aF3.66
aF6.1
aF8.052
aF5.856
aF7.808
aF4.88
aF11.712
aF9.516
aF7.564
aF7.076
aF6.588
aF9.028
aF5.368
aF7.564
aF9.76
aF6.588
aF7.564
aF3.66
aF7.076
aF8.052
aF8.54
aF11.224
aF7.076
aF4.88
as(I53
S'get HB4-1-biasmon[1-64]_f_rr'
p121
tp122
(lp123
F52.884
aF52.884
aF52.9035
aF52.9035
aF52.9035
aF52.9035
aF52.9035
aF52.9035
aF52.884
aF52.9035
aF52.9035
aF52.9035
aF52.9035
aF52.9231
aF52.9035
aF52.9035
aF52.9035
aF52.884
aF52.884
aF52.9035
aF52.9035
aF52.9035
aF52.9035
aF52.9035
aF52.9035
aF52.9035
aF52.9035
aF52.884
aF52.9035
aF52.9035
aF52.9035
aF52.9035
aF52.9035
aF52.9035
aF52.9035
aF52.9035
aF52.9035
aF52.9035
aF52.9035
aF52.9035
aF52.9035
aF52.9035
aF52.9035
aF52.884
aF52.9035
aF52.9035
aF52.9035
aF52.9035
aF52.9035
aF52.9035
aF52.9035
aF52.9035
aF52.9035
aF52.9035
aF52.9231
aF52.9231
aF52.884
aF52.884
aF52.884
aF52.9035
aF52.884
aF52.9035
aF52.9035
aF52.9035
as(I56
S'get HB4-1-LeakageCurrent[1-64]_f_rr'
p124
tp125
(lp126
F9.516
aF11.956
aF13.908
aF13.664
aF10.736
aF11.712
aF10.248
aF9.516
aF11.956
aF13.908
aF11.224
aF6.588
aF10.492
aF9.76
aF11.956
aF12.2
aF9.516
aF14.884
aF11.712
aF11.956
aF14.884
aF9.272
aF9.516
aF12.444
aF13.176
aF11.956
aF10.492
aF10.736
aF5.368
aF15.86
aF14.64
aF10.492
aF13.664
aF13.664
aF15.372
aF6.832
aF14.884
aF10.98
aF11.712
aF14.64
aF8.052
aF10.736
aF12.688
aF10.248
aF12.444
aF9.272
aF15.86
aF14.152
aF11.956
aF11.712
aF11.224
aF13.42
aF9.76
aF11.956
aF14.396
aF10.736
aF11.712
aF7.808
aF11.712
aF12.444
aF12.688
aF15.616
aF11.712
aF9.272
as(I54
S'get HB4-1-biasmon[1-64]_f_rr'
p127
tp128
(lp129
F53.8803
aF53.8608
aF53.8999
aF53.8803
aF53.8999
aF53.8803
aF53.8999
aF53.8999
aF53.8803
aF53.8803
aF53.8803
aF53.8999
aF53.8999
aF53.8999
aF53.8999
aF53.8999
aF53.8803
aF53.8999
aF53.8803
aF53.8999
aF53.8999
aF53.8803
aF53.8999
aF53.8999
aF53.8999
aF53.8999
aF53.8999
aF53.8803
aF53.8999
aF53.8999
aF53.8999
aF53.8999
aF53.8999
aF53.8999
aF53.8803
aF53.8999
aF53.8999
aF53.8999
aF53.8999
aF53.8999
aF53.8999
aF53.8803
aF53.8999
aF53.8803
aF53.8803
aF53.8999
aF53.8999
aF53.8999
aF53.8999
aF53.8999
aF53.8999
aF53.8803
aF53.8999
aF53.8999
aF53.9194
aF53.8999
aF53.8803
aF53.8803
aF53.8803
aF53.8803
aF53.8803
aF53.8999
aF53.8803
aF53.8999
as(I8
S'get HB4-1-LeakageCurrent[1-64]_f_rr'
p130
tp131
(lp132
F2.684
aF4.148
aF6.832
aF6.1
aF3.66
aF4.392
aF2.928
aF2.44
aF4.636
aF6.832
aF3.66
aF2.196
aF3.416
aF2.196
aF4.636
aF5.368
aF2.44
aF7.564
aF4.148
aF4.148
aF7.564
aF2.44
aF2.684
aF5.368
aF6.1
aF4.148
aF2.928
aF3.416
aF1.952
aF8.296
aF7.076
aF3.172
aF5.856
aF6.1
aF8.052
aF2.196
aF7.808
aF3.66
aF4.636
aF7.564
aF1.952
aF3.66
aF4.88
aF3.416
aF4.88
aF2.44
aF8.784
aF6.588
aF4.636
aF3.904
aF3.416
aF5.856
aF2.684
aF4.148
aF7.32
aF3.416
aF4.148
aF2.196
aF4.148
aF5.368
aF5.612
aF7.808
aF4.392
aF2.44
as(I16
S'get HB4-1-LeakageCurrent[1-64]_f_rr'
p133
tp134
(lp135
F3.416
aF5.856
aF7.808
aF7.564
aF4.392
aF5.612
aF4.148
aF3.416
aF5.856
aF7.564
aF4.88
aF2.196
aF4.392
aF3.416
aF5.856
aF6.1
aF3.66
aF8.784
aF5.612
aF5.612
aF8.784
aF3.172
aF3.416
aF6.344
aF7.076
aF5.612
aF4.392
aF4.636
aF1.952
aF9.516
aF8.052
aF4.392
aF7.32
aF7.564
aF9.272
aF2.196
aF8.784
aF4.88
aF5.612
aF8.54
aF2.44
aF4.636
aF6.588
aF4.148
aF6.1
aF3.172
aF9.76
aF7.564
aF6.1
aF5.368
aF4.88
aF7.32
aF3.66
aF5.856
aF8.296
aF4.88
aF5.612
aF2.44
aF5.368
aF6.344
aF6.832
aF9.516
aF5.368
aF3.172
as(I4
S'get HB4-1-biasmon[1-64]_f_rr'
p136
tp137
(lp138
F4.04396
aF4.04396
aF4.04396
aF4.04396
aF4.04396
aF4.04396
aF4.06349
aF4.06349
aF4.04396
aF4.04396
aF4.04396
aF4.06349
aF4.04396
aF4.04396
aF4.04396
aF4.04396
aF4.06349
aF4.04396
aF4.04396
aF4.04396
aF4.04396
aF4.04396
aF4.04396
aF4.06349
aF4.04396
aF4.04396
aF4.04396
aF4.04396
aF4.04396
aF4.06349
aF4.06349
aF4.06349
aF4.04396
aF4.06349
aF4.04396
aF4.06349
aF4.06349
aF4.06349
aF4.06349
aF4.06349
aF4.04396
aF4.06349
aF4.04396
aF4.04396
aF4.04396
aF4.06349
aF4.06349
aF4.04396
aF4.04396
aF4.04396
aF4.04396
aF4.04396
aF4.04396
aF4.04396
aF4.06349
aF4.04396
aF4.06349
aF4.04396
aF4.06349
aF4.06349
aF4.04396
aF4.04396
aF4.04396
aF4.04396
as(I11
S'get HB4-1-LeakageCurrent[1-64]_f_rr'
p139
tp140
(lp141
F2.684
aF5.124
aF6.832
aF6.588
aF3.66
aF4.636
aF3.172
aF2.928
aF4.88
aF6.832
aF4.148
aF2.196
aF3.416
aF2.684
aF5.124
aF5.612
aF2.928
aF8.052
aF4.636
aF4.88
aF8.296
aF2.684
aF2.928
aF5.856
aF6.344
aF4.636
aF3.416
aF3.66
aF1.952
aF8.784
aF7.564
aF3.66
aF6.344
aF6.832
aF8.54
aF2.196
aF7.808
aF4.392
aF4.636
aF7.564
aF1.952
aF3.904
aF5.612
aF3.66
aF5.124
aF2.684
aF9.028
aF7.076
aF5.124
aF4.392
aF3.904
aF6.588
aF2.928
aF4.88
aF7.564
aF4.148
aF4.88
aF2.196
aF4.636
aF5.856
aF5.856
aF8.54
aF4.636
aF2.684
as(I24
S'get HB4-1-biasmon[1-64]_f_rr'
p142
tp143
(lp144
F23.9707
aF23.9707
aF23.9707
aF23.9707
aF23.9707
aF23.9902
aF23.9902
aF23.9902
aF23.9707
aF23.9707
aF23.9707
aF23.9902
aF23.9902
aF23.9902
aF23.9902
aF23.9902
aF23.9902
aF23.9707
aF23.9707
aF23.9902
aF23.9902
aF23.9707
aF23.9902
aF23.9902
aF23.9707
aF23.9707
aF23.9902
aF23.9707
aF23.9902
aF23.9902
aF23.9902
aF23.9902
aF23.9902
aF23.9902
aF23.9707
aF23.9902
aF23.9902
aF23.9902
aF23.9902
aF23.9902
aF23.9707
aF23.9707
aF23.9902
aF23.9707
aF23.9707
aF23.9902
aF23.9902
aF23.9707
aF23.9707
aF23.9902
aF23.9902
aF23.9902
aF23.9902
aF23.9707
aF23.9902
aF23.9902
aF23.9902
aF23.9707
aF23.9707
aF23.9902
aF23.9707
aF23.9707
aF23.9707
aF23.9902
as(I12
S'put HB4-1-biasvoltage[1-64]_f 64*12.000000'
p145
tp146
(lp147
S'OK'
p148
as(I57
S'put HB4-1-biasvoltage[1-64]_f 64*57.000000'
p149
tp150
(lp151
S'OK'
p152
as(I53
S'get HB4-1-LeakageCurrent[1-64]_f_rr'
p153
tp154
(lp155
F9.028
aF11.468
aF13.664
aF13.42
aF10.248
aF11.224
aF9.76
aF9.272
aF11.712
aF13.42
aF10.736
aF6.1
aF9.76
aF9.272
aF11.712
aF11.712
aF9.272
aF14.396
aF11.224
aF11.468
aF14.64
aF8.784
aF9.272
aF11.956
aF12.688
aF11.468
aF10.004
aF10.248
aF4.88
aF15.372
aF13.908
aF10.004
aF13.176
aF13.176
aF14.884
aF6.588
aF14.64
aF10.736
aF11.224
aF14.152
aF7.564
aF10.248
aF11.956
aF9.76
aF11.956
aF8.784
aF15.616
aF13.664
aF11.712
aF10.98
aF10.736
aF13.176
aF9.272
aF11.712
aF13.908
aF10.492
aF11.468
aF7.564
aF11.224
aF11.956
aF12.444
aF15.128
aF11.224
aF8.784
as(I22
S'get HB4-1-biasmon[1-64]_f_rr'
p156
tp157
(lp158
F21.978
aF21.978
aF21.9976
aF21.978
aF21.9976
aF21.9976
aF21.9976
aF21.9976
aF21.978
aF21.9976
aF21.9976
aF21.9976
aF21.9976
aF21.9976
aF21.9976
aF21.9976
aF21.9976
aF21.9976
aF21.9976
aF21.9976
aF21.9976
aF21.9976
aF21.9976
aF21.9976
aF21.9976
aF21.9976
aF21.9976
aF21.9976
aF21.9976
aF21.9976
aF21.9976
aF21.9976
aF21.9976
aF21.9976
aF21.9976
aF21.9976
aF21.9976
aF21.9976
aF21.9976
aF21.9976
aF21.9976
aF21.9976
aF21.9976
aF21.978
aF21.9976
aF21.9976
aF21.9976
aF21.9976
aF21.9976
aF21.9976
aF21.9976
aF21.9976
aF21.9976
aF21.9976
aF22.0171
aF21.9976
aF21.9976
aF21.9976
aF21.9976
aF21.9976
aF21.978
aF21.9976
aF21.9976
aF21.9976
as(I21
S'get HB4-1-biasmon[1-64]_f_rr'
p159
tp160
(lp161
F21.0012
aF21.0012
aF21.0012
aF21.0012
aF21.0012
aF21.0012
aF21.0012
aF21.0012
aF21.0012
aF21.0012
aF21.0012
aF21.0012
aF21.0012
aF21.0012
aF21.0012
aF21.0012
aF21.0012
aF21.0012
aF21.0012
aF21.0012
aF21.0012
aF21.0012
aF21.0012
aF21.0012
aF21.0012
aF21.0012
aF21.0012
aF21.0012
aF21.0012
aF21.0012
aF21.0012
aF21.0012
aF21.0012
aF21.0012
aF21.0012
aF21.0012
aF21.0208
aF21.0012
aF21.0012
aF21.0012
aF21.0012
aF21.0012
aF21.0012
aF21.0012
aF21.0012
aF21.0012
aF21.0012
aF21.0012
aF21.0012
aF21.0012
aF21.0012
aF21.0012
aF21.0012
aF21.0012
aF21.0012
aF21.0012
aF21.0012
aF21.0012
aF21.0012
aF21.0012
aF21.0012
aF21.0012
aF21.0012
aF21.0012
as(I42
S'put HB4-1-biasvoltage[1-64]_f 64*42.000000'
p162
tp163
(lp164
S'OK'
p165
as(I29
S'get HB4-1-biasmon[1-64]_f_rr'
p166
tp167
(lp168
F28.9524
aF28.9524
aF28.9719
aF28.9524
aF28.9719
aF28.9719
aF28.9719
aF28.9719
aF28.9524
aF28.9524
aF28.9719
aF28.9719
aF28.9719
aF28.9719
aF28.9719
aF28.9719
aF28.9524
aF28.9719
aF28.9524
aF28.9719
aF28.9719
aF28.9719
aF28.9719
aF28.9719
aF28.9719
aF28.9719
aF28.9719
aF28.9524
aF28.9719
aF28.9719
aF28.9719
aF28.9719
aF28.9719
aF28.9719
aF28.9524
aF28.9719
aF28.9719
aF28.9719
aF28.9719
aF28.9719
aF28.9719
aF28.9719
aF28.9719
aF28.9524
aF28.9719
aF28.9719
aF28.9719
aF28.9719
aF28.9719
aF28.9719
aF28.9719
aF28.9719
aF28.9719
aF28.9719
aF28.9719
aF28.9719
aF28.9719
aF28.9524
aF28.9524
aF28.9719
aF28.9524
aF28.9719
aF28.9719
aF28.9719
as(I55
S'put HB4-1-biasvoltage[1-64]_f 64*55.000000'
p169
tp170
(lp171
S'OK'
p172
as(I50
S'get HB4-1-biasmon[1-64]_f_rr'
p173
tp174
(lp175
F49.895
aF49.8755
aF49.895
aF49.895
aF49.895
aF49.895
aF49.895
aF49.895
aF49.895
aF49.895
aF49.895
aF49.895
aF49.895
aF49.9145
aF49.9145
aF49.9145
aF49.8755
aF49.895
aF49.8755
aF49.895
aF49.9145
aF49.895
aF49.895
aF49.895
aF49.895
aF49.895
aF49.895
aF49.895
aF49.895
aF49.895
aF49.895
aF49.895
aF49.895
aF49.9145
aF49.895
aF49.895
aF49.9145
aF49.9145
aF49.9145
aF49.9145
aF49.895
aF49.895
aF49.895
aF49.895
aF49.895
aF49.9145
aF49.9145
aF49.895
aF49.895
aF49.895
aF49.895
aF49.895
aF49.895
aF49.895
aF49.9145
aF49.9145
aF49.895
aF49.8755
aF49.895
aF49.895
aF49.895
aF49.895
aF49.895
aF49.895
as(I49
S'get HB4-1-biasmon[1-64]_f_rr'
p176
tp177
(lp178
F48.8987
aF48.8791
aF48.8987
aF48.8987
aF48.8987
aF48.8987
aF48.8987
aF48.8987
aF48.8987
aF48.8987
aF48.8987
aF48.9182
aF48.9182
aF48.9182
aF48.9182
aF48.9182
aF48.8987
aF48.8987
aF48.8987
aF48.8987
aF48.9182
aF48.8987
aF48.8987
aF48.9182
aF48.8987
aF48.9182
aF48.8987
aF48.8987
aF48.9182
aF48.8987
aF48.8987
aF48.9182
aF48.8987
aF48.9182
aF48.8987
aF48.8987
aF48.9182
aF48.9182
aF48.9182
aF48.9182
aF48.8987
aF48.8987
aF48.8987
aF48.8987
aF48.8987
aF48.9182
aF48.9182
aF48.8987
aF48.8987
aF48.8987
aF48.8987
aF48.8987
aF48.8987
aF48.8987
aF48.9182
aF48.9182
aF48.8987
aF48.8987
aF48.8987
aF48.8987
aF48.8987
aF48.8987
aF48.8987
aF48.8987
as(I52
S'get HB4-1-biasmon[1-64]_f_rr'
p179
tp180
(lp181
F51.9072
aF51.8877
aF51.9072
aF51.9072
aF51.9072
aF51.9072
aF51.9072
aF51.9072
aF51.9072
aF51.9072
aF51.9072
aF51.9072
aF51.9072
aF51.9267
aF51.9267
aF51.9267
aF51.9072
aF51.9072
aF51.9072
aF51.9072
aF51.9072
aF51.9072
aF51.9072
aF51.9072
aF51.9072
aF51.9072
aF51.9072
aF51.9072
aF51.9072
aF51.9267
aF51.9072
aF51.9072
aF51.9072
aF51.9072
aF51.9072
aF51.9072
aF51.9072
aF51.9072
aF51.9267
aF51.9072
aF51.9072
aF51.8877
aF51.9072
aF51.9072
aF51.8877
aF51.9267
aF51.9072
aF51.9072
aF51.9072
aF51.8877
aF51.9072
aF51.9072
aF51.9072
aF51.9072
aF51.9267
aF51.9267
aF51.8877
aF51.9072
aF51.9072
aF51.9072
aF51.8877
aF51.9072
aF51.9072
aF51.9072
as(I50
S'get HB4-1-LeakageCurrent[1-64]_f_rr'
p182
tp183
(lp184
F8.54
aF10.98
aF13.176
aF12.932
aF9.76
aF10.736
aF9.516
aF8.54
aF11.224
aF12.932
aF10.248
aF5.856
aF9.516
aF8.784
aF11.224
aF11.224
aF8.784
aF13.908
aF10.736
aF10.98
aF14.152
aF8.296
aF8.54
aF11.712
aF12.2
aF10.98
aF9.516
aF9.76
aF4.636
aF14.884
aF13.664
aF9.516
aF12.444
aF12.688
aF14.396
aF6.1
aF13.908
aF10.248
aF10.736
aF13.664
aF7.32
aF9.76
aF11.712
aF9.516
aF11.468
aF8.296
aF15.128
aF13.176
aF11.224
aF10.492
aF10.004
aF12.444
aF8.784
aF11.224
aF13.42
aF10.004
aF10.98
aF7.076
aF10.736
aF11.712
aF11.956
aF14.884
aF10.736
aF8.296
as(I11
S'put HB4-1-biasvoltage[1-64]_f 64*11.000000'
p185
tp186
(lp187
S'OK'
p188
as(I41
S'put HB4-1-biasvoltage[1-64]_f 64*41.000000'
p189
tp190
(lp191
S'OK'
p192
as(I0
S'get HB4-1-biasmon[1-64]_f_rr'
p193
tp194
(lp195
F0.0586081
aF0.0586081
aF0.0586081
aF0.0586081
aF0.0586081
aF0.0586081
aF0.0586081
aF0.0586081
aF0.0586081
aF0.0586081
aF0.0586081
aF0.0586081
aF0.0586081
aF0.0586081
aF0.0586081
aF0.0586081
aF0.0586081
aF0.0586081
aF0.0586081
aF0.0586081
aF0.0586081
aF0.0586081
aF0.0586081
aF0.0586081
aF0.0586081
aF0.0586081
aF0.0586081
aF0.0586081
aF0.0586081
aF0.0586081
aF0.0586081
aF0.0586081
aF0.0586081
aF0.0586081
aF0.0586081
aF0.0586081
aF0.0586081
aF0.0586081
aF0.0586081
aF0.0586081
aF0.0586081
aF0.0586081
aF0.0586081
aF0.0586081
aF0.0586081
aF0.0586081
aF0.0586081
aF0.0586081
aF0.0586081
aF0.0586081
aF0.0586081
aF0.0586081
aF0.0586081
aF0.0586081
aF0.0781441
aF0.0586081
aF0.0586081
aF0.0586081
aF0.0586081
aF0.0586081
aF0.0586081
aF0.0586081
aF0.0586081
aF0.0586081
as(I15
S'get HB4-1-biasmon[1-64]_f_rr'
p196
tp197
(lp198
F15.0232
aF15.0037
aF15.0232
aF15.0037
aF15.0232
aF15.0232
aF15.0232
aF15.0232
aF15.0232
aF15.0232
aF15.0232
aF15.0232
aF15.0232
aF15.0232
aF15.0232
aF15.0232
aF15.0232
aF15.0232
aF15.0037
aF15.0232
aF15.0232
aF15.0232
aF15.0232
aF15.0232
aF15.0232
aF15.0232
aF15.0232
aF15.0232
aF15.0232
aF15.0232
aF15.0232
aF15.0232
aF15.0232
aF15.0232
aF15.0232
aF15.0232
aF15.0232
aF15.0232
aF15.0232
aF15.0427
aF15.0232
aF15.0232
aF15.0232
aF15.0232
aF15.0232
aF15.0232
aF15.0232
aF15.0232
aF15.0232
aF15.0232
aF15.0232
aF15.0232
aF15.0232
aF15.0232
aF15.0232
aF15.0232
aF15.0232
aF15.0232
aF15.0232
aF15.0232
aF15.0037
aF15.0232
aF15.0232
aF15.0232
as(I35
S'get HB4-1-biasmon[1-64]_f_rr'
p199
tp200
(lp201
F34.9499
aF34.9499
aF34.9695
aF34.9499
aF34.9695
aF34.9695
aF34.9695
aF34.9695
aF34.9695
aF34.9695
aF34.9695
aF34.9695
aF34.9695
aF34.9695
aF34.9695
aF34.9695
aF34.9695
aF34.9695
aF34.9499
aF34.9695
aF34.9695
aF34.9695
aF34.9695
aF34.9695
aF34.9695
aF34.9695
aF34.9695
aF34.9695
aF34.9695
aF34.9695
aF34.9695
aF34.9695
aF34.9695
aF34.9695
aF34.9695
aF34.9695
aF34.9695
aF34.9695
aF34.9695
aF34.9695
aF34.9695
aF34.9695
aF34.9695
aF34.9695
aF34.9695
aF34.989
aF34.9695
aF34.9695
aF34.9695
aF34.9695
aF34.9695
aF34.9695
aF34.9695
aF34.9695
aF34.989
aF34.9695
aF34.9695
aF34.9499
aF34.9695
aF34.9695
aF34.9499
aF34.9695
aF34.9695
aF34.9695
as(I23
S'put HB4-1-biasvoltage[1-64]_f 64*23.000000'
p202
tp203
(lp204
S'OK'
p205
as(I43
S'get HB4-1-biasmon[1-64]_f_rr'
p206
tp207
(lp208
F42.9206
aF42.9206
aF42.9206
aF42.9206
aF42.9402
aF42.9206
aF42.9402
aF42.9206
aF42.9206
aF42.9206
aF42.9206
aF42.9402
aF42.9402
aF42.9402
aF42.9402
aF42.9206
aF42.9206
aF42.9206
aF42.9206
aF42.9402
aF42.9402
aF42.9402
aF42.9206
aF42.9402
aF42.9206
aF42.9402
aF42.9402
aF42.9206
aF42.9402
aF42.9206
aF42.9402
aF42.9402
aF42.9206
aF42.9206
aF42.9206
aF42.9402
aF42.9402
aF42.9402
aF42.9402
aF42.9402
aF42.9206
aF42.9206
aF42.9206
aF42.9206
aF42.9206
aF42.9402
aF42.9402
aF42.9206
aF42.9402
aF42.9206
aF42.9206
aF42.9206
aF42.9402
aF42.9402
aF42.9597
aF42.9402
aF42.9206
aF42.9206
aF42.9206
aF42.9402
aF42.9206
aF42.9206
aF42.9206
aF42.9402
as(I42
S'get HB4-1-biasmon[1-64]_f_rr'
p209
tp210
(lp211
F41.9243
aF41.9243
aF41.9438
aF41.9243
aF41.9243
aF41.9438
aF41.9438
aF41.9438
aF41.9438
aF41.9243
aF41.9243
aF41.9438
aF41.9438
aF41.9438
aF41.9438
aF41.9438
aF41.9438
aF41.9243
aF41.9243
aF41.9438
aF41.9438
aF41.9438
aF41.9243
aF41.9438
aF41.9438
aF41.9438
aF41.9438
aF41.9243
aF41.9438
aF41.9438
aF41.9438
aF41.9438
aF41.9243
aF41.9438
aF41.9243
aF41.9438
aF41.9438
aF41.9438
aF41.9438
aF41.9438
aF41.9438
aF41.9438
aF41.9438
aF41.9243
aF41.9438
aF41.9438
aF41.9438
aF41.9438
aF41.9438
aF41.9438
aF41.9438
aF41.9243
aF41.9438
aF41.9438
aF41.9438
aF41.9438
aF41.9243
aF41.9243
aF41.9243
aF41.9243
aF41.9243
aF41.9438
aF41.9438
aF41.9438
as(I10
S'get HB4-1-LeakageCurrent[1-64]_f_rr'
p212
tp213
(lp214
F2.44
aF4.88
aF6.832
aF6.588
aF3.66
aF4.392
aF2.928
aF2.684
aF4.636
aF6.588
aF4.148
aF2.196
aF3.416
aF2.928
aF5.124
aF5.368
aF2.928
aF7.808
aF4.636
aF4.88
aF8.052
aF2.684
aF2.928
aF5.368
aF6.1
aF4.636
aF3.172
aF3.66
aF1.952
aF8.54
aF7.564
aF3.66
aF6.1
aF6.588
aF8.052
aF2.196
aF8.052
aF4.148
aF4.636
aF7.564
aF1.952
aF3.66
aF5.612
aF3.416
aF5.124
aF2.684
aF8.784
aF6.832
aF4.88
aF4.392
aF4.148
aF6.588
aF2.44
aF4.636
aF7.076
aF4.148
aF4.88
aF2.196
aF4.636
aF5.856
aF5.612
aF8.296
aF4.636
aF2.44
as(I46
S'get HB4-1-LeakageCurrent[1-64]_f_rr'
p215
tp216
(lp217
F8.052
aF10.492
aF12.444
aF12.2
aF9.028
aF10.248
aF8.54
aF8.052
aF10.492
aF12.2
aF9.516
aF5.124
aF8.784
aF8.296
aF10.492
aF10.736
aF8.052
aF13.42
aF10.248
aF10.248
aF13.664
aF7.564
aF8.052
aF10.98
aF11.712
aF10.492
aF8.784
aF9.272
aF3.904
aF14.396
aF12.932
aF8.784
aF11.956
aF12.2
aF13.908
aF5.368
aF13.42
aF9.516
aF10.248
aF13.176
aF6.588
aF9.272
aF10.98
aF8.784
aF10.736
aF7.564
aF14.64
aF12.444
aF10.492
aF10.004
aF9.516
aF11.956
aF8.052
aF10.492
aF12.688
aF9.272
aF10.248
aF6.344
aF10.004
aF10.98
aF11.468
aF14.152
aF10.004
aF7.564
as(I22
S'put HB4-1-biasvoltage[1-64]_f 64*22.000000'
p218
tp219
(lp220
S'OK'
p221
as(I18
S'get HB4-1-LeakageCurrent[1-64]_f_rr'
p222
tp223
(lp224
F3.66
aF6.1
aF8.052
aF7.808
aF4.636
aF5.856
aF4.392
aF3.66
aF6.1
aF8.052
aF5.368
aF2.196
aF4.636
aF3.66
aF6.1
aF6.588
aF3.904
aF9.272
aF5.856
aF5.856
aF9.272
aF3.416
aF3.66
aF6.832
aF7.32
aF5.856
aF4.636
aF4.88
aF1.952
aF9.76
aF8.54
aF4.636
aF7.564
aF7.808
aF9.516
aF2.196
aF9.028
aF5.368
aF5.856
aF8.784
aF2.684
aF4.88
aF6.588
aF4.636
aF6.588
aF3.416
aF10.004
aF8.052
aF6.344
aF5.856
aF5.368
aF7.564
aF3.904
aF6.1
aF8.54
aF5.124
aF6.1
aF2.684
aF5.856
aF6.832
aF7.076
aF9.76
aF5.612
aF3.66
as(I31
S'put HB4-1-biasvoltage[1-64]_f 64*31.000000'
p225
tp226
(lp227
S'OK'
p228
as(I13
S'get HB4-1-LeakageCurrent[1-64]_f_rr'
p229
tp230
(lp231
F2.928
aF5.368
aF7.32
aF7.076
aF3.904
aF4.88
aF3.66
aF3.172
aF5.368
aF7.076
aF4.636
aF2.196
aF3.904
aF3.172
aF5.612
aF5.856
aF3.172
aF8.296
aF4.88
aF5.368
aF8.54
aF2.928
aF2.928
aF6.1
aF6.588
aF5.124
aF3.904
aF4.148
aF1.952
aF9.272
aF7.564
aF3.904
aF6.588
aF6.832
aF8.784
aF2.196
aF8.052
aF4.636
aF5.368
aF8.052
aF2.196
aF4.148
aF6.1
aF3.904
aF5.856
aF2.684
aF9.516
aF7.32
aF5.368
aF4.88
aF4.392
aF6.832
aF2.928
aF5.612
aF7.564
aF4.392
aF5.368
aF2.196
aF4.88
aF5.856
aF6.344
aF9.028
aF4.636
aF2.928
as(I44
S'get HB4-1-LeakageCurrent[1-64]_f_rr'
p232
tp233
(lp234
F7.564
aF10.004
aF12.2
aF11.956
aF8.784
aF9.76
aF8.296
aF7.564
aF10.248
aF11.956
aF9.272
aF4.636
aF8.54
aF7.808
aF10.248
aF10.492
aF7.808
aF13.176
aF9.76
aF10.004
aF13.176
aF7.32
aF7.564
aF10.736
aF11.224
aF10.004
aF8.54
aF8.784
aF3.416
aF13.908
aF12.688
aF8.54
aF11.712
aF11.956
aF13.42
aF5.124
aF13.176
aF9.272
aF9.76
aF12.932
aF6.344
aF8.784
aF10.736
aF8.54
aF10.492
aF7.564
aF14.152
aF12.2
aF10.248
aF9.516
aF9.272
aF11.712
aF7.808
aF10.248
aF12.444
aF9.028
aF10.004
aF6.1
aF9.76
aF10.736
aF10.98
aF13.908
aF9.76
aF7.564
as(I39
S'get HB4-1-LeakageCurrent[1-64]_f_rr'
p235
tp236
(lp237
F7.076
aF9.272
aF11.468
aF11.224
aF8.052
aF9.028
aF7.564
aF6.832
aF9.516
aF11.224
aF8.54
aF4.148
aF7.808
aF7.076
aF9.516
aF9.516
aF7.076
aF12.444
aF9.028
aF9.272
aF12.444
aF6.588
aF6.832
aF9.76
aF10.492
aF9.272
aF7.808
aF8.052
aF2.928
aF13.176
aF11.712
aF7.808
aF10.736
aF11.224
aF12.688
aF4.392
aF12.2
aF8.54
aF9.028
aF11.956
aF5.612
aF8.052
aF10.004
aF7.564
aF9.76
aF6.588
aF13.42
aF11.468
aF9.516
aF8.784
aF8.54
aF10.736
aF7.076
aF9.516
aF11.712
aF8.54
aF9.272
aF5.368
aF9.028
aF10.004
aF10.248
aF13.176
aF9.028
aF6.832
as(I59
S'get HB4-1-LeakageCurrent[1-64]_f_rr'
p238
tp239
(lp240
F10.004
aF12.444
aF14.64
aF14.396
aF10.98
aF12.2
aF10.736
aF10.004
aF12.688
aF14.396
aF11.712
aF7.076
aF10.736
aF10.248
aF12.444
aF12.688
aF10.004
aF15.372
aF12.2
aF12.444
aF15.372
aF9.516
aF10.004
aF12.932
aF13.664
aF12.444
aF10.98
aF11.224
aF5.856
aF16.348
aF14.884
aF10.98
aF13.908
aF14.152
aF15.86
aF7.32
aF15.372
aF11.712
aF11.956
aF15.128
aF8.54
aF11.224
aF13.176
aF10.736
aF12.688
aF9.76
aF16.348
aF14.64
aF12.444
aF11.956
aF11.468
aF13.908
aF10.004
aF12.444
aF14.884
aF11.468
aF12.444
aF8.296
aF11.956
aF12.932
aF13.42
aF16.104
aF12.2
aF9.76
as(I20
S'get HB4-1-LeakageCurrent[1-64]_f_rr'
p241
tp242
(lp243
F3.904
aF6.344
aF8.54
aF8.052
aF5.124
aF6.1
aF4.636
aF4.148
aF6.344
aF8.296
aF5.612
aF2.196
aF4.88
aF4.148
aF6.588
aF6.832
aF4.148
aF9.516
aF6.1
aF6.344
aF9.516
aF3.66
aF4.148
aF7.076
aF7.564
aF6.344
aF4.88
aF5.124
aF1.952
aF10.248
aF9.028
aF4.88
aF7.808
aF8.052
aF9.76
aF2.196
aF9.516
aF5.856
aF6.1
aF9.028
aF2.684
aF5.124
aF7.076
aF4.88
aF6.832
aF3.904
aF10.492
aF8.54
aF6.588
aF6.1
aF5.612
aF7.808
aF4.148
aF6.344
aF8.784
aF5.368
aF6.344
aF2.684
aF6.1
aF7.076
aF7.32
aF10.004
aF5.856
aF3.904
as(I4
S'put HB4-1-biasvoltage[1-64]_f 64*4.000000'
p244
tp245
(lp246
S'OK'
p247
as(I29
S'put HB4-1-biasvoltage[1-64]_f 64*29.000000'
p248
tp249
(lp250
S'OK'
p251
as(I11
S'get HB4-1-biasmon[1-64]_f_rr'
p252
tp253
(lp254
F11.0183
aF11.0183
aF11.0183
aF11.0183
aF11.0183
aF11.0379
aF11.0379
aF11.0379
aF11.0183
aF11.0183
aF11.0379
aF11.0379
aF11.0379
aF11.0183
aF11.0379
aF11.0379
aF11.0183
aF11.0183
aF11.0183
aF11.0379
aF11.0379
aF11.0379
aF11.0183
aF11.0379
aF11.0379
aF11.0379
aF11.0183
aF11.0379
aF11.0379
aF11.0379
aF11.0183
aF11.0379
aF11.0183
aF11.0379
aF11.0183
aF11.0379
aF11.0379
aF11.0379
aF11.0379
aF11.0379
aF11.0183
aF11.0183
aF11.0183
aF11.0183
aF11.0183
aF11.0379
aF11.0379
aF11.0183
aF11.0379
aF11.0183
aF11.0183
aF11.0183
aF11.0379
aF11.0183
aF11.0379
aF11.0379
aF11.0379
aF11.0379
aF11.0379
aF11.0379
aF11.0183
aF11.0379
aF11.0183
aF11.0379
as(I28
S'get HB4-1-LeakageCurrent[1-64]_f_rr'
p255
tp256
(lp257
F5.368
aF7.564
aF9.516
aF9.516
aF6.344
aF7.32
aF5.856
aF5.368
aF7.564
aF9.516
aF6.832
aF2.684
aF6.1
aF5.368
aF7.808
aF8.052
aF5.368
aF10.736
aF7.32
aF7.564
aF10.736
aF4.88
aF5.368
aF8.296
aF8.784
aF7.564
aF6.1
aF6.588
aF1.952
aF11.468
aF10.004
aF6.1
aF9.028
aF9.516
aF11.224
aF2.928
aF10.492
aF6.832
aF7.32
aF10.492
aF3.904
aF6.344
aF8.052
aF6.1
aF8.052
aF4.88
aF11.712
aF9.516
aF7.808
aF7.32
aF6.588
aF9.272
aF5.368
aF7.564
aF10.004
aF6.588
aF7.564
aF3.66
aF7.32
aF8.296
aF8.54
aF11.468
aF7.32
aF4.88
as(I23
S'get HB4-1-LeakageCurrent[1-64]_f_rr'
p258
tp259
(lp260
F4.392
aF6.832
aF8.784
aF8.54
aF5.612
aF6.588
aF5.124
aF4.636
aF6.832
aF8.784
aF6.1
aF2.196
aF5.368
aF4.636
aF7.076
aF7.32
aF4.636
aF9.76
aF6.588
aF6.832
aF10.004
aF4.148
aF4.636
aF7.564
aF8.052
aF6.832
aF5.368
aF5.612
aF1.952
aF10.736
aF9.516
aF5.368
aF8.296
aF8.54
aF10.248
aF2.44
aF9.76
aF6.1
aF6.588
aF9.516
aF3.172
aF5.612
aF7.564
aF5.368
aF7.32
aF4.148
aF10.736
aF8.784
aF7.076
aF6.588
aF6.1
aF8.296
aF4.636
aF6.832
aF9.272
aF5.856
aF6.832
aF3.172
aF6.588
aF7.564
aF7.808
aF10.736
aF6.588
aF4.148
as(I36
S'get HB4-1-biasmon[1-64]_f_rr'
p261
tp262
(lp263
F35.9463
aF35.9463
aF35.9658
aF35.9463
aF35.9658
aF35.9658
aF35.9658
aF35.9658
aF35.9463
aF35.9463
aF35.9658
aF35.9658
aF35.9658
aF35.9658
aF35.9658
aF35.9658
aF35.9463
aF35.9658
aF35.9463
aF35.9463
aF35.9658
aF35.9658
aF35.9658
aF35.9658
aF35.9658
aF35.9658
aF35.9658
aF35.9463
aF35.9658
aF35.9658
aF35.9658
aF35.9658
aF35.9658
aF35.9658
aF35.9658
aF35.9658
aF35.9658
aF35.9658
aF35.9853
aF35.9658
aF35.9658
aF35.9463
aF35.9463
aF35.9658
aF35.9463
aF35.9658
aF35.9658
aF35.9658
aF35.9658
aF35.9658
aF35.9658
aF35.9463
aF35.9463
aF35.9658
aF35.9853
aF35.9658
aF35.9658
aF35.9658
aF35.9658
aF35.9658
aF35.9463
aF35.9463
aF35.9658
aF35.9658
as(I56
S'get HB4-1-biasmon[1-64]_f_rr'
p264
tp265
(lp266
F55.873
aF55.8535
aF55.873
aF55.873
aF55.873
aF55.873
aF55.8926
aF55.873
aF55.873
aF55.873
aF55.873
aF55.8926
aF55.8926
aF55.8926
aF55.8926
aF55.8926
aF55.873
aF55.873
aF55.873
aF55.873
aF55.8926
aF55.873
aF55.873
aF55.8926
aF55.873
aF55.873
aF55.873
aF55.873
aF55.8926
aF55.8926
aF55.873
aF55.8926
aF55.873
aF55.8926
aF55.873
aF55.873
aF55.8926
aF55.8926
aF55.8926
aF55.8926
aF55.873
aF55.873
aF55.873
aF55.873
aF55.873
aF55.8926
aF55.8926
aF55.873
aF55.8926
aF55.873
aF55.873
aF55.873
aF55.873
aF55.873
aF55.9121
aF55.8926
aF55.873
aF55.873
aF55.873
aF55.873
aF55.873
aF55.873
aF55.873
aF55.873
as(I44
S'get HB4-1-biasmon[1-64]_f_rr'
p267
tp268
(lp269
F43.917
aF43.8974
aF43.917
aF43.917
aF43.917
aF43.917
aF43.917
aF43.917
aF43.917
aF43.917
aF43.917
aF43.917
aF43.917
aF43.9365
aF43.917
aF43.9365
aF43.917
aF43.917
aF43.917
aF43.917
aF43.9365
aF43.917
aF43.917
aF43.917
aF43.917
aF43.917
aF43.917
aF43.917
aF43.917
aF43.917
aF43.917
aF43.917
aF43.917
aF43.917
aF43.917
aF43.917
aF43.9365
aF43.9365
aF43.9365
aF43.9365
aF43.917
aF43.917
aF43.917
aF43.917
aF43.917
aF43.9365
aF43.917
aF43.917
aF43.917
aF43.917
aF43.917
aF43.917
aF43.917
aF43.917
aF43.9365
aF43.9365
aF43.917
aF43.917
aF43.917
aF43.917
aF43.917
aF43.917
aF43.917
aF43.917
as(I22
S'get HB4-1-LeakageCurrent[1-64]_f_rr'
p270
tp271
(lp272
F4.148
aF6.832
aF8.784
aF8.54
aF5.368
aF6.344
aF4.88
aF4.392
aF6.832
aF8.54
aF5.856
aF2.196
aF5.368
aF4.392
aF6.832
aF7.076
aF4.636
aF9.76
aF6.588
aF6.588
aF9.76
aF3.904
aF4.392
aF7.32
aF7.808
aF6.588
aF5.124
aF5.612
aF1.952
aF10.492
aF9.272
aF5.368
aF8.052
aF8.54
aF10.004
aF2.196
aF9.516
aF5.856
aF6.588
aF9.516
aF2.928
aF5.612
aF7.32
aF5.124
aF7.076
aF4.148
aF10.736
aF8.54
aF6.832
aF6.344
aF5.856
aF8.052
aF4.392
aF6.588
aF9.028
aF5.856
aF6.588
aF2.928
aF6.1
aF7.32
aF7.564
aF10.492
aF6.344
aF4.148
as(I3
S'put HB4-1-biasvoltage[1-64]_f 64*3.000000'
p273
tp274
(lp275
S'OK'
p276
as(I34
S'get HB4-1-LeakageCurrent[1-64]_f_rr'
p277
tp278
(lp279
F6.1
aF8.54
aF10.736
aF10.248
aF7.32
aF8.296
aF6.832
aF6.1
aF8.54
aF10.492
aF7.808
aF3.416
aF7.076
aF6.344
aF8.54
aF8.784
aF6.344
aF11.712
aF8.296
aF8.54
aF11.712
aF5.856
aF6.1
aF9.028
aF9.516
aF8.54
aF7.076
aF7.32
aF2.196
aF12.444
aF10.98
aF7.076
aF10.004
aF10.248
aF11.956
aF3.66
aF11.712
aF7.564
aF8.296
aF11.224
aF4.636
aF7.32
aF9.272
aF6.832
aF9.028
aF5.856
aF12.688
aF10.736
aF8.54
aF8.052
aF7.564
aF10.004
aF6.344
aF8.54
aF10.98
aF7.564
aF8.54
aF4.636
aF8.052
aF9.028
aF9.516
aF12.2
aF8.052
aF5.856
as(I30
S'get HB4-1-biasmon[1-64]_f_rr'
p280
tp281
(lp282
F29.9683
aF29.9487
aF29.9878
aF29.9683
aF29.9683
aF29.9878
aF29.9878
aF29.9878
aF29.9683
aF29.9683
aF29.9683
aF29.9878
aF29.9878
aF29.9878
aF29.9878
aF29.9878
aF29.9683
aF29.9683
aF29.9683
aF29.9878
aF29.9878
aF29.9878
aF29.9878
aF29.9878
aF29.9683
aF29.9878
aF29.9878
aF29.9683
aF29.9878
aF29.9878
aF29.9878
aF29.9878
aF29.9683
aF29.9878
aF29.9683
aF29.9878
aF29.9878
aF29.9878
aF29.9878
aF29.9878
aF29.9683
aF29.9878
aF29.9683
aF29.9683
aF29.9683
aF29.9878
aF29.9878
aF29.9878
aF29.9878
aF29.9878
aF29.9878
aF29.9878
aF29.9878
aF29.9683
aF30.0073
aF29.9878
aF29.9683
aF29.9683
aF29.9878
aF29.9878
aF29.9683
aF29.9878
aF29.9683
aF29.9878
as(I7
S'put HB4-1-biasvoltage[1-64]_f 64*7.000000'
p283
tp284
(lp285
S'OK'
p286
as(I41
S'get HB4-1-LeakageCurrent[1-64]_f_rr'
p287
tp288
(lp289
F7.32
aF9.516
aF11.712
aF11.468
aF8.296
aF9.272
aF8.052
aF7.32
aF9.516
aF11.468
aF9.028
aF4.392
aF8.052
aF7.32
aF9.76
aF10.004
aF7.564
aF12.688
aF9.272
aF9.516
aF12.688
aF6.832
aF7.32
aF10.248
aF10.736
aF9.516
aF8.052
aF8.54
aF3.172
aF13.664
aF12.2
aF8.052
aF11.224
aF11.468
aF12.932
aF4.636
aF12.444
aF8.784
aF9.272
aF12.444
aF5.856
aF8.54
aF10.248
aF8.052
aF10.004
aF6.832
aF13.664
aF11.712
aF9.76
aF9.272
aF8.784
aF11.224
aF7.564
aF9.516
aF11.956
aF8.54
aF9.516
aF5.612
aF9.272
aF10.248
aF10.492
aF13.42
aF9.272
aF6.832
as(I8
S'put HB4-1-biasvoltage[1-64]_f 64*8.000000'
p290
tp291
(lp292
S'OK'
p293
as(I12
S'get HB4-1-biasmon[1-64]_f_rr'
p294
tp295
(lp296
F12.0147
aF12.0147
aF12.0147
aF12.0147
aF12.0147
aF12.0147
aF12.0147
aF12.0342
aF12.0147
aF12.0147
aF12.0147
aF12.0147
aF12.0147
aF12.0147
aF12.0147
aF12.0147
aF12.0147
aF12.0147
aF12.0147
aF12.0147
aF12.0147
aF12.0147
aF12.0147
aF12.0147
aF12.0147
aF12.0147
aF12.0147
aF12.0147
aF12.0147
aF12.0147
aF12.0147
aF12.0147
aF12.0147
aF12.0342
aF12.0147
aF12.0147
aF12.0342
aF12.0147
aF12.0342
aF12.0342
aF12.0147
aF12.0147
aF12.0147
aF12.0147
aF12.0147
aF12.0147
aF12.0342
aF12.0147
aF12.0147
aF12.0147
aF12.0147
aF12.0147
aF12.0342
aF12.0147
aF12.0342
aF12.0147
aF12.0147
aF12.0147
aF12.0147
aF12.0147
aF12.0147
aF12.0147
aF12.0147
aF12.0342
as(I28
S'put HB4-1-biasvoltage[1-64]_f 64*28.000000'
p297
tp298
(lp299
S'OK'
p300
as(I47
S'get HB4-1-biasmon[1-64]_f_rr'
p301
tp302
(lp303
F46.906
aF46.906
aF46.906
aF46.906
aF46.9255
aF46.9255
aF46.9255
aF46.9255
aF46.906
aF46.906
aF46.906
aF46.9255
aF46.9255
aF46.9255
aF46.9255
aF46.9255
aF46.9255
aF46.906
aF46.906
aF46.906
aF46.9255
aF46.9255
aF46.9255
aF46.9255
aF46.9255
aF46.9255
aF46.9255
aF46.906
aF46.9255
aF46.9255
aF46.9255
aF46.9255
aF46.906
aF46.9255
aF46.906
aF46.9255
aF46.9255
aF46.9255
aF46.9255
aF46.9255
aF46.9255
aF46.906
aF46.906
aF46.906
aF46.9255
aF46.9255
aF46.9255
aF46.9255
aF46.9255
aF46.9255
aF46.9255
aF46.906
aF46.9255
aF46.9255
aF46.9451
aF46.9255
aF46.906
aF46.906
aF46.906
aF46.906
aF46.906
aF46.906
aF46.9255
aF46.9255
as(I40
S'put HB4-1-biasvoltage[1-64]_f 64*40.000000'
p304
tp305
(lp306
S'OK'
p307
as(I55
S'get HB4-1-biasmon[1-64]_f_rr'
p308
tp309
(lp310
F54.8767
aF54.8767
aF54.8767
aF54.8767
aF54.8767
aF54.8767
aF54.8962
aF54.8767
aF54.8767
aF54.8767
aF54.8767
aF54.8962
aF54.8767
aF54.8962
aF54.8962
aF54.8962
aF54.8767
aF54.8767
aF54.8767
aF54.8767
aF54.8962
aF54.8767
aF54.8962
aF54.8962
aF54.8767
aF54.8962
aF54.8962
aF54.8767
aF54.8962
aF54.8962
aF54.8962
aF54.8962
aF54.8962
aF54.8962
aF54.8767
aF54.8767
aF54.8962
aF54.8962
aF54.8962
aF54.8962
aF54.8767
aF54.8767
aF54.8962
aF54.8767
aF54.8767
aF54.8962
aF54.8962
aF54.8767
aF54.8767
aF54.8767
aF54.8962
aF54.8767
aF54.8962
aF54.8962
aF54.9158
aF54.8962
aF54.8767
aF54.8767
aF54.8767
aF54.8767
aF54.8767
aF54.8767
aF54.8767
aF54.8767
as(I18
S'put HB4-1-biasvoltage[1-64]_f 64*18.000000'
p311
tp312
(lp313
S'OK'
p314
as(I56
S'put HB4-1-biasvoltage[1-64]_f 64*56.000000'
p315
tp316
(lp317
S'OK'
p318
as(I6
S'get HB4-1-biasmon[1-64]_f_rr'
p319
tp320
(lp321
F6.03663
aF6.01709
aF6.03663
aF6.03663
aF6.03663
aF6.05617
aF6.05617
aF6.05617
aF6.03663
aF6.03663
aF6.03663
aF6.05617
aF6.03663
aF6.03663
aF6.03663
aF6.05617
aF6.03663
aF6.03663
aF6.03663
aF6.03663
aF6.05617
aF6.03663
aF6.03663
aF6.05617
aF6.03663
aF6.03663
aF6.03663
aF6.03663
aF6.03663
aF6.05617
aF6.03663
aF6.03663
aF6.03663
aF6.05617
aF6.03663
aF6.03663
aF6.05617
aF6.05617
aF6.05617
aF6.05617
aF6.03663
aF6.03663
aF6.03663
aF6.03663
aF6.03663
aF6.05617
aF6.03663
aF6.03663
aF6.03663
aF6.03663
aF6.03663
aF6.03663
aF6.03663
aF6.03663
aF6.05617
aF6.05617
aF6.03663
aF6.03663
aF6.05617
aF6.05617
aF6.03663
aF6.03663
aF6.03663
aF6.05617
as(I5
S'get HB4-1-biasmon[1-64]_f_rr'
p322
tp323
(lp324
F5.04029
aF5.04029
aF5.04029
aF5.04029
aF5.05983
aF5.04029
aF5.05983
aF5.05983
aF5.04029
aF5.04029
aF5.04029
aF5.05983
aF5.04029
aF5.04029
aF5.04029
aF5.05983
aF5.04029
aF5.04029
aF5.04029
aF5.04029
aF5.05983
aF5.04029
aF5.05983
aF5.05983
aF5.04029
aF5.04029
aF5.04029
aF5.04029
aF5.04029
aF5.04029
aF5.05983
aF5.05983
aF5.04029
aF5.05983
aF5.04029
aF5.05983
aF5.05983
aF5.05983
aF5.05983
aF5.05983
aF5.04029
aF5.05983
aF5.04029
aF5.04029
aF5.04029
aF5.05983
aF5.05983
aF5.04029
aF5.04029
aF5.04029
aF5.05983
aF5.04029
aF5.04029
aF5.05983
aF5.05983
aF5.05983
aF5.05983
aF5.04029
aF5.04029
aF5.05983
aF5.04029
aF5.04029
aF5.05983
aF5.05983
as(I25
S'get HB4-1-biasmon[1-64]_f_rr'
p325
tp326
(lp327
F24.9866
aF24.9866
aF24.9866
aF24.9866
aF24.9866
aF24.9866
aF24.9866
aF24.9866
aF24.9866
aF24.9866
aF24.9866
aF24.9866
aF24.9866
aF24.9866
aF24.9866
aF24.9866
aF24.9866
aF24.9866
aF24.9866
aF24.9866
aF24.9866
aF24.9866
aF24.9866
aF24.9866
aF24.9866
aF24.9866
aF24.9866
aF24.9866
aF24.9866
aF24.9866
aF24.9866
aF24.9866
aF24.9866
aF24.9866
aF24.9866
aF24.9866
aF24.9866
aF24.9866
aF24.9866
aF24.9866
aF24.9866
aF24.9866
aF24.9866
aF24.9866
aF24.9866
aF24.9866
aF24.9866
aF24.9866
aF24.9866
aF24.9866
aF24.9866
aF24.9866
aF24.9866
aF24.9866
aF24.9866
aF24.9866
aF24.9866
aF24.9866
aF24.9866
aF24.9866
aF24.9866
aF24.9866
aF24.9866
aF24.9866
as(I49
S'put HB4-1-biasvoltage[1-64]_f 64*49.000000'
p328
tp329
(lp330
S'OK'
p331
as(I24
S'put HB4-1-biasvoltage[1-64]_f 64*24.000000'
p332
tp333
(lp334
S'OK'
p335
as(I23
S'get HB4-1-biasmon[1-64]_f_rr'
p336
tp337
(lp338
F22.9744
aF22.9744
aF22.9744
aF22.9744
aF22.9939
aF22.9939
aF22.9744
aF22.9939
aF22.9744
aF22.9939
aF22.9744
aF22.9939
aF22.9939
aF22.9939
aF22.9939
aF22.9939
aF22.9744
aF22.9939
aF22.9744
aF22.9744
aF22.9939
aF22.9939
aF22.9939
aF22.9939
aF22.9939
aF22.9939
aF22.9939
aF22.9744
aF22.9939
aF22.9939
aF22.9939
aF22.9939
aF22.9744
aF22.9939
aF22.9744
aF22.9939
aF22.9939
aF22.9939
aF22.9939
aF22.9939
aF22.9939
aF22.9939
aF22.9939
aF22.9744
aF22.9744
aF22.9939
aF22.9939
aF22.9939
aF22.9939
aF22.9939
aF22.9939
aF22.9744
aF22.9939
aF22.9939
aF22.9939
aF22.9939
aF22.9939
aF22.9744
aF22.9939
aF22.9939
aF22.9939
aF22.9744
aF22.9744
aF22.9939
as(I43
S'put HB4-1-biasvoltage[1-64]_f 64*43.000000'
p339
tp340
(lp341
S'OK'
p342
as(I35
S'put HB4-1-biasvoltage[1-64]_f 64*35.000000'
p343
tp344
(lp345
S'OK'
p346
as(I14
S'put HB4-1-biasvoltage[1-64]_f 64*14.000000'
p347
tp348
(lp349
S'OK'
p350
as(I26
S'put HB4-1-biasvoltage[1-64]_f 64*26.000000'
p351
tp352
(lp353
S'OK'
p354
as(I25
S'get HB4-1-LeakageCurrent[1-64]_f_rr'
p355
tp356
(lp357
F4.636
aF7.076
aF9.272
aF8.784
aF5.856
aF6.832
aF5.612
aF4.88
aF7.32
aF9.028
aF6.344
aF2.44
aF5.856
aF4.88
aF7.32
aF7.564
aF4.88
aF10.248
aF6.832
aF7.076
aF10.248
aF4.392
aF4.88
aF7.808
aF8.296
aF7.076
aF5.612
aF5.856
aF1.952
aF10.98
aF9.516
aF5.856
aF8.54
aF9.028
aF10.736
aF2.684
aF10.004
aF6.344
aF6.832
aF10.004
aF3.416
aF5.856
aF7.808
aF5.612
aF7.564
aF4.392
aF11.224
aF9.272
aF7.32
aF6.832
aF6.1
aF8.54
aF4.88
aF7.32
aF9.516
aF6.1
aF7.076
aF3.416
aF6.832
aF7.808
aF8.052
aF10.736
aF6.832
aF4.636
as(I59
S'put HB4-1-biasvoltage[1-64]_f 64*59.000000'
p358
tp359
(lp360
S'OK'
p361
as(I17
S'put HB4-1-biasvoltage[1-64]_f 64*17.000000'
p362
tp363
(lp364
S'OK'
p365
as(I30
S'put HB4-1-biasvoltage[1-64]_f 64*30.000000'
p366
tp367
(lp368
S'OK'
p369
as(I1
S'get HB4-1-biasmon[1-64]_f_rr'
p370
tp371
(lp372
F1.05495
aF1.05495
aF1.05495
aF1.05495
aF1.05495
aF1.05495
aF1.05495
aF1.07448
aF1.05495
aF1.05495
aF1.05495
aF1.05495
aF1.05495
aF1.05495
aF1.05495
aF1.05495
aF1.05495
aF1.05495
aF1.05495
aF1.05495
aF1.05495
aF1.05495
aF1.05495
aF1.05495
aF1.05495
aF1.05495
aF1.05495
aF1.05495
aF1.05495
aF1.05495
aF1.05495
aF1.05495
aF1.05495
aF1.05495
aF1.05495
aF1.05495
aF1.05495
aF1.07448
aF1.07448
aF1.07448
aF1.05495
aF1.07448
aF1.05495
aF1.05495
aF1.05495
aF1.07448
aF1.05495
aF1.05495
aF1.05495
aF1.05495
aF1.05495
aF1.05495
aF1.05495
aF1.05495
aF1.07448
aF1.05495
aF1.05495
aF1.05495
aF1.05495
aF1.07448
aF1.05495
aF1.05495
aF1.05495
aF1.05495
as(I30
S'get HB4-1-LeakageCurrent[1-64]_f_rr'
p373
tp374
(lp375
F5.612
aF7.808
aF10.004
aF9.516
aF6.588
aF7.564
aF6.344
aF5.612
aF8.052
aF9.76
aF7.32
aF2.928
aF6.588
aF5.612
aF8.052
aF8.296
aF5.856
aF10.98
aF7.564
aF7.808
aF10.98
aF5.124
aF5.612
aF8.54
aF9.028
aF7.808
aF6.344
aF6.832
aF2.196
aF11.712
aF10.492
aF6.588
aF9.516
aF9.516
aF11.468
aF2.928
aF10.736
aF7.076
aF7.564
aF10.736
aF4.148
aF6.832
aF8.54
aF6.344
aF8.296
aF5.368
aF11.956
aF10.004
aF8.052
aF7.564
aF7.076
aF9.516
aF5.856
aF8.052
aF10.492
aF6.832
aF7.808
aF3.904
aF7.564
aF8.54
aF8.784
aF11.712
aF7.564
aF5.368
as(I9
S'get HB4-1-LeakageCurrent[1-64]_f_rr'
p376
tp377
(lp378
F2.196
aF4.88
aF6.832
aF6.832
aF3.66
aF4.392
aF2.928
aF2.684
aF4.392
aF6.832
aF4.148
aF2.196
aF3.172
aF2.44
aF4.636
aF5.368
aF2.684
aF7.564
aF4.392
aF4.636
aF7.808
aF2.44
aF2.684
aF5.368
aF5.856
aF4.636
aF3.416
aF3.66
aF1.952
aF8.784
aF7.32
aF3.172
aF6.1
aF6.344
aF8.052
aF2.196
aF7.808
aF4.392
aF4.148
aF7.32
aF1.952
aF3.66
aF5.124
aF3.172
aF4.88
aF2.684
aF9.028
aF6.588
aF4.88
aF4.636
aF4.148
aF6.1
aF2.44
aF4.392
aF7.32
aF3.904
aF4.636
aF2.196
aF4.392
aF5.612
aF5.612
aF8.296
aF4.636
aF2.196
as(I51
S'put HB4-1-biasvoltage[1-64]_f 64*51.000000'
p379
tp380
(lp381
S'OK'
p382
as(I26
S'get HB4-1-biasmon[1-64]_f_rr'
p383
tp384
(lp385
F25.9829
aF25.9634
aF25.9829
aF25.9829
aF25.9829
aF25.9829
aF26.0024
aF25.9829
aF25.9829
aF25.9829
aF25.9829
aF26.0024
aF25.9829
aF26.0024
aF25.9829
aF26.0024
aF25.9829
aF25.9829
aF25.9829
aF25.9829
aF25.9829
aF25.9829
aF26.0024
aF25.9829
aF25.9829
aF25.9829
aF25.9829
aF25.9829
aF25.9829
aF25.9829
aF26.0024
aF25.9829
aF25.9829
aF25.9829
aF25.9829
aF26.0024
aF26.0024
aF26.0024
aF26.0024
aF26.0024
aF25.9829
aF25.9829
aF25.9829
aF25.9829
aF25.9829
aF26.0024
aF26.0024
aF25.9829
aF25.9829
aF25.9829
aF25.9829
aF25.9829
aF26.0024
aF25.9829
aF26.0024
aF26.0024
aF25.9829
aF25.9829
aF25.9829
aF25.9829
aF25.9634
aF25.9829
aF25.9829
aF25.9829
as(I40
S'get HB4-1-LeakageCurrent[1-64]_f_rr'
p386
tp387
(lp388
F7.076
aF9.516
aF11.712
aF11.224
aF8.052
aF9.272
aF7.808
aF7.076
aF9.516
aF11.468
aF8.784
aF4.148
aF7.808
aF7.32
aF9.516
aF9.76
aF7.32
aF12.444
aF9.272
aF9.516
aF12.444
aF6.832
aF7.076
aF10.004
aF10.736
aF9.516
aF8.052
aF8.296
aF2.928
aF13.42
aF11.956
aF8.052
aF10.98
aF11.224
aF12.932
aF4.392
aF12.444
aF8.54
aF9.272
aF12.2
aF5.612
aF8.296
aF10.248
aF7.808
aF9.76
aF6.832
aF13.664
aF11.712
aF9.516
aF9.028
aF8.54
aF10.98
aF7.32
aF9.516
aF11.956
aF8.54
aF9.516
aF5.612
aF9.272
aF10.004
aF10.492
aF13.42
aF9.028
aF6.832
as(I5
S'put HB4-1-biasvoltage[1-64]_f 64*5.000000'
p389
tp390
(lp391
S'OK'
p392
as(I10
S'put HB4-1-biasvoltage[1-64]_f 64*10.000000'
p393
tp394
(lp395
S'OK'
p396
as(I35
S'get HB4-1-LeakageCurrent[1-64]_f_rr'
p397
tp398
(lp399
F6.344
aF8.54
aF10.736
aF10.492
aF7.32
aF8.54
aF7.076
aF6.344
aF8.784
aF10.492
aF8.052
aF3.416
aF7.32
aF6.588
aF8.784
aF9.028
aF6.588
aF11.712
aF8.54
aF8.54
aF11.712
aF5.856
aF6.344
aF9.272
aF9.76
aF8.54
aF7.32
aF7.564
aF2.44
aF12.688
aF11.224
aF7.32
aF10.004
aF10.492
aF11.956
aF3.66
aF11.712
aF7.808
aF8.54
aF11.468
aF4.88
aF7.564
aF9.272
aF7.076
aF9.028
aF6.1
aF12.688
aF10.736
aF8.784
aF8.296
aF7.564
aF10.248
aF6.588
aF8.784
aF11.224
aF7.564
aF8.54
aF4.636
aF8.296
aF9.272
aF9.516
aF12.444
aF8.296
aF6.1
as(I34
S'put HB4-1-biasvoltage[1-64]_f 64*34.000000'
p400
tp401
(lp402
S'OK'
p403
as(I20
S'put HB4-1-biasvoltage[1-64]_f 64*20.000000'
p404
tp405
(lp406
S'OK'
p407
as(I13
S'put HB4-1-biasvoltage[1-64]_f 64*13.000000'
p408
tp409
(lp410
S'OK'
p411
as(I43
S'get HB4-1-LeakageCurrent[1-64]_f_rr'
p412
tp413
(lp414
F7.564
aF10.004
aF11.956
aF11.712
aF8.54
aF9.76
aF8.296
aF7.564
aF10.004
aF11.712
aF9.272
aF4.636
aF8.54
aF7.564
aF10.004
aF10.248
aF7.564
aF12.932
aF9.516
aF9.76
aF13.176
aF7.076
aF7.564
aF10.492
aF10.98
aF9.76
aF8.54
aF8.784
aF3.416
aF13.908
aF12.444
aF8.54
aF11.468
aF11.712
aF13.42
aF4.88
aF12.932
aF9.028
aF9.516
aF12.688
aF6.1
aF8.784
aF10.492
aF8.296
aF10.492
aF7.32
aF13.908
aF11.956
aF10.004
aF9.516
aF9.028
aF11.468
aF7.564
aF10.004
aF12.444
aF8.784
aF9.76
aF6.1
aF9.516
aF10.492
aF10.98
aF13.664
aF9.516
aF7.32
as(I4
S'get HB4-1-LeakageCurrent[1-64]_f_rr'
p415
tp416
(lp417
F1.952
aF4.392
aF6.344
aF5.856
aF2.44
aF3.172
aF2.196
aF2.196
aF4.392
aF5.612
aF3.172
aF2.196
aF3.172
aF1.952
aF3.904
aF4.148
aF2.196
aF7.32
aF3.66
aF3.66
aF7.32
aF2.196
aF2.196
aF4.148
aF5.124
aF3.904
aF2.928
aF2.928
aF1.952
aF8.052
aF6.588
aF3.172
aF5.368
aF6.1
aF7.32
aF2.196
aF6.832
aF3.416
aF3.904
aF6.588
aF1.952
aF2.684
aF4.148
aF2.684
aF3.904
aF2.196
aF7.808
aF5.612
aF3.904
aF3.416
aF2.928
aF5.612
aF1.952
aF3.66
aF6.1
aF3.172
aF4.148
aF2.196
aF3.172
aF4.392
aF5.612
aF7.32
aF3.66
aF1.952
as(I24
S'get HB4-1-LeakageCurrent[1-64]_f_rr'
p418
tp419
(lp420
F4.636
aF6.832
aF9.028
aF8.784
aF5.612
aF6.588
aF5.368
aF4.636
aF7.076
aF8.784
aF6.344
aF2.196
aF5.612
aF4.636
aF7.32
aF7.32
aF4.88
aF10.004
aF6.832
aF6.832
aF10.004
aF4.392
aF4.636
aF7.564
aF8.052
aF6.832
aF5.612
aF5.856
aF1.952
aF10.736
aF9.516
aF5.612
aF8.54
aF8.784
aF10.492
aF2.44
aF10.004
aF6.1
aF6.832
aF9.76
aF3.416
aF5.856
aF7.564
aF5.612
aF7.32
aF4.392
aF11.224
aF9.028
aF7.32
aF6.588
aF6.1
aF8.54
aF4.88
aF7.076
aF9.272
aF6.1
aF6.832
aF3.172
aF6.588
aF7.564
aF7.808
aF10.736
aF6.588
aF4.392
as(I19
S'get HB4-1-LeakageCurrent[1-64]_f_rr'
p421
tp422
(lp423
F3.66
aF6.1
aF8.296
aF8.052
aF4.88
aF5.856
aF4.392
aF3.904
aF6.344
aF8.052
aF5.612
aF2.196
aF4.636
aF3.904
aF6.344
aF6.588
aF4.148
aF9.516
aF6.1
aF6.1
aF9.516
aF3.66
aF3.904
aF6.832
aF7.32
aF6.1
aF4.636
aF4.88
aF1.952
aF10.004
aF8.784
aF4.88
aF7.564
aF8.052
aF9.76
aF2.196
aF9.272
aF5.368
aF6.1
aF9.028
aF2.684
aF5.124
aF6.832
aF4.636
aF6.588
aF3.66
aF10.248
aF8.296
aF6.344
aF5.856
aF5.368
aF7.808
aF3.904
aF6.344
aF8.54
aF5.368
aF6.1
aF2.684
aF5.856
aF6.832
aF7.32
aF10.004
aF5.856
aF3.66
as(I36
S'put HB4-1-biasvoltage[1-64]_f 64*36.000000'
p424
tp425
(lp426
S'OK'
p427
as(I7
S'get HB4-1-LeakageCurrent[1-64]_f_rr'
p428
tp429
(lp430
F1.952
aF4.148
aF6.588
aF5.856
aF3.416
aF3.66
aF2.928
aF2.196
aF4.392
aF6.588
aF3.416
aF2.196
aF3.172
aF2.196
aF4.88
aF4.636
aF2.196
aF7.32
aF3.904
aF4.148
aF7.564
aF2.196
aF2.684
aF5.368
aF5.368
aF4.392
aF3.416
aF3.172
aF1.952
aF7.808
aF7.32
aF3.416
aF5.856
aF5.856
aF7.808
aF2.196
aF7.32
aF3.904
aF3.904
aF7.076
aF1.952
aF3.416
aF4.636
aF2.928
aF4.636
aF2.196
aF8.54
aF6.1
aF4.148
aF3.904
aF3.66
aF6.1
aF2.196
aF4.392
aF6.832
aF3.416
aF4.148
aF2.196
aF4.392
aF5.368
aF5.124
aF8.54
aF3.66
aF2.196
as(I40
S'get HB4-1-biasmon[1-64]_f_rr'
p431
tp432
(lp433
F39.9316
aF39.9316
aF39.9316
aF39.9316
aF39.9316
aF39.9316
aF39.9316
aF39.9316
aF39.9316
aF39.9316
aF39.9316
aF39.9316
aF39.9316
aF39.9512
aF39.9316
aF39.9512
aF39.9316
aF39.9316
aF39.9121
aF39.9316
aF39.9316
aF39.9316
aF39.9316
aF39.9316
aF39.9316
aF39.9316
aF39.9316
aF39.9316
aF39.9316
aF39.9316
aF39.9316
aF39.9316
aF39.9316
aF39.9316
aF39.9316
aF39.9316
aF39.9316
aF39.9512
aF39.9512
aF39.9512
aF39.9316
aF39.9316
aF39.9316
aF39.9316
aF39.9316
aF39.9512
aF39.9316
aF39.9316
aF39.9316
aF39.9316
aF39.9316
aF39.9316
aF39.9316
aF39.9316
aF39.9512
aF39.9512
aF39.9316
aF39.9316
aF39.9316
aF39.9316
aF39.9121
aF39.9316
aF39.9316
aF39.9316
as(I42
S'get HB4-1-LeakageCurrent[1-64]_f_rr'
p434
tp435
(lp436
F7.32
aF9.76
aF11.956
aF11.712
aF8.54
aF9.516
aF8.052
aF7.32
aF9.76
aF11.712
aF9.028
aF4.636
aF8.052
aF7.564
aF9.76
aF10.004
aF7.564
aF12.688
aF9.516
aF9.76
aF12.932
aF6.832
aF7.32
aF10.492
aF10.98
aF9.516
aF8.296
aF8.54
aF3.172
aF13.664
aF12.444
aF8.296
aF11.468
aF11.712
aF13.176
aF4.636
aF12.688
aF9.028
aF9.516
aF12.444
aF5.856
aF8.54
aF10.492
aF8.052
aF10.004
aF7.076
aF13.908
aF11.956
aF9.76
aF9.272
aF8.784
aF11.224
aF7.564
aF9.76
aF12.2
aF8.784
aF9.516
aF5.856
aF9.516
aF10.492
aF10.736
aF13.664
aF9.516
aF7.076
as(I6
S'get HB4-1-LeakageCurrent[1-64]_f_rr'
p437
tp438
(lp439
F1.952
aF4.148
aF5.856
aF5.856
aF2.684
aF4.148
aF2.928
aF2.196
aF3.904
aF6.588
aF3.66
aF2.196
aF2.928
aF2.44
aF4.88
aF4.636
aF2.196
aF7.32
aF4.392
aF4.148
aF7.808
aF2.196
aF2.196
aF5.368
aF5.124
aF3.66
aF3.172
aF2.928
aF1.952
aF8.296
aF6.832
aF3.416
aF5.612
aF6.1
aF8.052
aF2.196
aF6.832
aF3.416
aF3.904
aF6.588
aF1.952
aF3.172
aF5.124
aF2.928
aF4.392
aF2.196
aF8.54
aF5.856
aF4.148
aF3.66
aF3.172
aF6.1
aF2.196
aF4.636
aF6.832
aF3.172
aF4.636
aF2.196
aF3.904
aF5.124
aF4.88
aF8.052
aF4.148
aF1.952
as(I6
S'put HB4-1-biasvoltage[1-64]_f 64*6.000000'
p440
tp441
(lp442
S'OK'
p443
as(I2
S'get HB4-1-biasmon[1-64]_f_rr'
p444
tp445
(lp446
F2.03175
aF2.03175
aF2.05128
aF2.03175
aF2.05128
aF2.05128
aF2.05128
aF2.05128
aF2.05128
aF2.05128
aF2.05128
aF2.05128
aF2.05128
aF2.05128
aF2.05128
aF2.05128
aF2.05128
aF2.05128
aF2.03175
aF2.05128
aF2.05128
aF2.05128
aF2.05128
aF2.05128
aF2.05128
aF2.05128
aF2.05128
aF2.05128
aF2.05128
aF2.05128
aF2.05128
aF2.05128
aF2.03175
aF2.05128
aF2.03175
aF2.05128
aF2.05128
aF2.05128
aF2.05128
aF2.05128
aF2.05128
aF2.05128
aF2.05128
aF2.05128
aF2.03175
aF2.05128
aF2.05128
aF2.05128
aF2.05128
aF2.05128
aF2.05128
aF2.05128
aF2.05128
aF2.05128
aF2.05128
aF2.05128
aF2.05128
aF2.05128
aF2.05128
aF2.05128
aF2.03175
aF2.05128
aF2.05128
aF2.05128
as(I38
S'get HB4-1-biasmon[1-64]_f_rr'
p447
tp448
(lp449
F37.939
aF37.939
aF37.939
aF37.939
aF37.939
aF37.939
aF37.9585
aF37.939
aF37.939
aF37.939
aF37.9585
aF37.9585
aF37.9585
aF37.9585
aF37.9585
aF37.9585
aF37.9585
aF37.9585
aF37.939
aF37.939
aF37.9585
aF37.9585
aF37.939
aF37.9585
aF37.939
aF37.9585
aF37.9585
aF37.939
aF37.9585
aF37.9585
aF37.9585
aF37.9585
aF37.939
aF37.9585
aF37.939
aF37.9585
aF37.9585
aF37.9585
aF37.9585
aF37.9585
aF37.9585
aF37.939
aF37.939
aF37.939
aF37.9585
aF37.9585
aF37.9585
aF37.9585
aF37.9585
aF37.939
aF37.9585
aF37.9585
aF37.9585
aF37.9585
aF37.9585
aF37.9585
aF37.939
aF37.939
aF37.939
aF37.939
aF37.939
aF37.939
aF37.939
aF37.9585
as(I37
S'get HB4-1-biasmon[1-64]_f_rr'
p450
tp451
(lp452
F36.9426
aF36.9426
aF36.9426
aF36.9426
aF36.9426
aF36.9621
aF36.9621
aF36.9621
aF36.9426
aF36.9426
aF36.9426
aF36.9621
aF36.9621
aF36.9621
aF36.9426
aF36.9621
aF36.9426
aF36.9426
aF36.9426
aF36.9621
aF36.9621
aF36.9426
aF36.9426
aF36.9621
aF36.9621
aF36.9426
aF36.9621
aF36.9426
aF36.9621
aF36.9621
aF36.9621
aF36.9426
aF36.9426
aF36.9621
aF36.9426
aF36.9426
aF36.9621
aF36.9621
aF36.9621
aF36.9621
aF36.9426
aF36.9426
aF36.9426
aF36.9426
aF36.9426
aF36.9621
aF36.9621
aF36.9426
aF36.9426
aF36.9426
aF36.9426
aF36.9426
aF36.9621
aF36.9621
aF36.9621
aF36.9621
aF36.9426
aF36.9426
aF36.9426
aF36.9621
aF36.9426
aF36.9426
aF36.9426
aF36.9621
as(I57
S'get HB4-1-biasmon[1-64]_f_rr'
p453
tp454
(lp455
F56.8694
aF56.8694
aF56.8889
aF56.8889
aF56.8889
aF56.8889
aF56.8889
aF56.8889
aF56.8889
aF56.8889
aF56.8889
aF56.8889
aF56.8889
aF56.9084
aF56.8889
aF56.9084
aF56.8889
aF56.8889
aF56.8694
aF56.8889
aF56.8889
aF56.8889
aF56.8889
aF56.8889
aF56.8889
aF56.9084
aF56.8889
aF56.8889
aF56.8889
aF56.8889
aF56.9084
aF56.8889
aF56.8889
aF56.8889
aF56.8889
aF56.8889
aF56.9084
aF56.8889
aF56.9084
aF56.9084
aF56.8889
aF56.8889
aF56.8889
aF56.8889
aF56.8889
aF56.9084
aF56.9084
aF56.8889
aF56.9084
aF56.8889
aF56.8889
aF56.8889
aF56.8889
aF56.8889
aF56.9084
aF56.9084
aF56.8889
aF56.8889
aF56.8889
aF56.8889
aF56.8694
aF56.8889
aF56.8889
aF56.8889
as(I60
S'put HB4-1-biasvoltage[1-64]_f 64*60.000000'
p456
tp457
(lp458
S'OK'
p459
as(I45
S'get HB4-1-biasmon[1-64]_f_rr'
p460
tp461
(lp462
F44.9133
aF44.8938
aF44.9133
aF44.9133
aF44.9133
aF44.9133
aF44.9133
aF44.9133
aF44.9133
aF44.9133
aF44.9133
aF44.9133
aF44.9133
aF44.9328
aF44.9133
aF44.9133
aF44.9133
aF44.9133
aF44.8938
aF44.9133
aF44.9133
aF44.9133
aF44.9133
aF44.9133
aF44.9133
aF44.9133
aF44.9133
aF44.9133
aF44.9133
aF44.9133
aF44.9133
aF44.9133
aF44.9133
aF44.9133
aF44.9133
aF44.9133
aF44.9328
aF44.9133
aF44.9328
aF44.9328
aF44.9133
aF44.9133
aF44.9133
aF44.8938
aF44.9133
aF44.9328
aF44.9133
aF44.9133
aF44.9133
aF44.9133
aF44.9133
aF44.9133
aF44.9133
aF44.9133
aF44.9328
aF44.9328
aF44.9133
aF44.9133
aF44.9133
aF44.9133
aF44.9133
aF44.9133
aF44.9133
aF44.9133
as(I0
S'get HB4-1-LeakageCurrent[1-64]_f_rr'
p463
tp464
(lp465
F1.708
aF3.416
aF5.368
aF5.124
aF2.196
aF2.928
aF1.952
aF1.952
aF3.172
aF5.368
aF2.684
aF2.196
aF2.196
aF1.952
aF3.66
aF3.904
aF1.952
aF6.588
aF3.172
aF3.416
aF6.588
aF2.196
aF1.952
aF4.148
aF4.636
aF3.172
aF2.196
aF2.684
aF1.952
aF7.076
aF5.856
aF2.44
aF4.636
aF5.124
aF6.832
aF2.196
aF6.344
aF2.928
aF3.172
aF5.856
aF1.952
aF2.684
aF3.904
aF2.44
aF3.66
aF2.196
aF7.32
aF5.368
aF3.66
aF2.928
aF2.684
aF4.88
aF1.708
aF3.416
aF5.856
aF2.684
aF3.416
aF2.196
aF2.928
aF3.904
aF4.392
aF7.076
aF2.928
aF1.952
as(I8
S'get HB4-1-biasmon[1-64]_f_rr'
p466
tp467
(lp468
F8.0293
aF8.00977
aF8.0293
aF8.0293
aF8.0293
aF8.0293
aF8.0293
aF8.0293
aF8.0293
aF8.0293
aF8.0293
aF8.0293
aF8.0293
aF8.0293
aF8.0293
aF8.0293
aF8.0293
aF8.0293
aF8.0293
aF8.0293
aF8.0293
aF8.0293
aF8.0293
aF8.0293
aF8.0293
aF8.0293
aF8.0293
aF8.0293
aF8.0293
aF8.0293
aF8.0293
aF8.0293
aF8.0293
aF8.0293
aF8.0293
aF8.0293
aF8.0293
aF8.0293
aF8.0293
aF8.0293
aF8.0293
aF8.0293
aF8.0293
aF8.0293
aF8.0293
aF8.0293
aF8.0293
aF8.0293
aF8.0293
aF8.0293
aF8.0293
aF8.0293
aF8.0293
aF8.0293
aF8.04884
aF8.0293
aF8.0293
aF8.0293
aF8.0293
aF8.0293
aF8.00977
aF8.0293
aF8.0293
aF8.0293
as(I32
S'put HB4-1-biasvoltage[1-64]_f 64*32.000000'
p469
tp470
(lp471
S'OK'
p472
as(I16
S'get HB4-1-biasmon[1-64]_f_rr'
p473
tp474
(lp475
F16.0195
aF16.0
aF16.0195
aF16.0
aF16.0195
aF16.0195
aF16.0195
aF16.0195
aF16.0
aF16.0195
aF16.0
aF16.0195
aF16.0195
aF16.0195
aF16.0195
aF16.0195
aF16.0195
aF16.0
aF16.0
aF16.0195
aF16.0195
aF16.0
aF16.0195
aF16.0195
aF16.0195
aF16.0195
aF16.0195
aF16.0195
aF16.0
aF16.0195
aF16.0195
aF16.0195
aF16.0
aF16.0195
aF16.0
aF16.0195
aF16.0195
aF16.0195
aF16.0195
aF16.0195
aF16.0195
aF16.0195
aF16.0
aF16.0
aF16.0
aF16.0195
aF16.0195
aF16.0195
aF16.0195
aF16.0
aF16.0195
aF16.0195
aF16.0
aF16.0195
aF16.0195
aF16.0195
aF16.0195
aF16.0195
aF16.0195
aF16.0195
aF16.0
aF16.0
aF16.0
aF16.0195
as(I31
S'get HB4-1-biasmon[1-64]_f_rr'
p476
tp477
(lp478
F30.9646
aF30.9646
aF30.9841
aF30.9646
aF30.9646
aF30.9841
aF30.9841
aF30.9841
aF30.9646
aF30.9646
aF30.9646
aF30.9841
aF30.9841
aF30.9841
aF30.9841
aF30.9841
aF30.9646
aF30.9646
aF30.9646
aF30.9646
aF30.9841
aF30.9646
aF30.9841
aF30.9841
aF30.9646
aF30.9841
aF30.9841
aF30.9646
aF30.9841
aF30.9841
aF30.9841
aF30.9841
aF30.9646
aF30.9841
aF30.9646
aF30.9841
aF30.9841
aF30.9841
aF30.9841
aF30.9841
aF30.9841
aF30.9646
aF30.9646
aF30.9646
aF30.9646
aF30.9841
aF30.9841
aF30.9841
aF30.9841
aF30.9646
aF30.9841
aF30.9841
aF30.9841
aF30.9841
aF31.0037
aF30.9841
aF30.9646
aF30.9646
aF30.9646
aF30.9841
aF30.9646
aF30.9646
aF30.9646
aF30.9841
as(I37
S'get HB4-1-LeakageCurrent[1-64]_f_rr'
p479
tp480
(lp481
F6.588
aF9.028
aF10.98
aF10.736
aF7.564
aF8.784
aF7.32
aF6.588
aF9.028
aF10.736
aF8.296
aF3.66
aF7.564
aF6.832
aF9.272
aF9.272
aF6.832
aF11.956
aF8.784
aF8.784
aF12.2
aF6.1
aF6.588
aF9.516
aF10.004
aF8.784
aF7.564
aF7.808
aF2.684
aF12.932
aF11.468
aF7.564
aF10.492
aF10.736
aF12.444
aF3.904
aF11.956
aF8.052
aF8.784
aF11.712
aF5.368
aF7.808
aF9.76
aF7.564
aF9.272
aF6.344
aF13.176
aF10.98
aF9.272
aF8.54
aF8.052
aF10.492
aF6.832
aF9.028
aF11.468
aF8.052
aF9.028
aF5.124
aF8.54
aF9.516
aF10.004
aF12.688
aF8.54
aF6.344
as(I51
S'get HB4-1-biasmon[1-64]_f_rr'
p482
tp483
(lp484
F50.9109
aF50.8913
aF50.9109
aF50.9109
aF50.9109
aF50.9109
aF50.9109
aF50.9304
aF50.9109
aF50.9109
aF50.9109
aF50.9304
aF50.9109
aF50.9304
aF50.9109
aF50.9304
aF50.9109
aF50.9109
aF50.8913
aF50.9109
aF50.9109
aF50.9109
aF50.9109
aF50.9109
aF50.9109
aF50.9109
aF50.9109
aF50.9109
aF50.9304
aF50.9304
aF50.9109
aF50.9109
aF50.9109
aF50.9109
aF50.9109
aF50.9109
aF50.9304
aF50.9304
aF50.9304
aF50.9304
aF50.9109
aF50.9109
aF50.9109
aF50.9109
aF50.9109
aF50.9304
aF50.9304
aF50.9109
aF50.9304
aF50.9109
aF50.9109
aF50.9109
aF50.9109
aF50.9304
aF50.9304
aF50.9304
aF50.9109
aF50.9109
aF50.9109
aF50.9109
aF50.9109
aF50.9109
aF50.9109
aF50.9109
as(I44
S'put HB4-1-biasvoltage[1-64]_f 64*44.000000'
p485
tp486
(lp487
S'OK'
p488
as(I57
S'get HB4-1-LeakageCurrent[1-64]_f_rr'
p489
tp490
(lp491
F9.516
aF12.2
aF14.152
aF13.908
aF10.736
aF11.956
aF10.492
aF9.76
aF12.2
aF13.908
aF11.468
aF6.832
aF10.736
aF10.004
aF12.2
aF12.444
aF9.76
aF15.128
aF11.712
aF11.956
aF15.128
aF9.272
aF9.76
aF12.444
aF13.176
aF11.956
aF10.492
aF10.736
aF5.612
aF15.86
aF14.64
aF10.492
aF13.664
aF13.908
aF15.372
aF7.076
aF15.128
aF11.224
aF11.712
aF14.884
aF8.296
aF10.98
aF13.176
aF10.492
aF12.444
aF9.516
aF16.348
aF14.152
aF12.2
aF11.712
aF11.224
aF13.664
aF10.004
aF12.2
aF14.64
aF11.224
aF11.956
aF8.052
aF11.712
aF12.688
aF13.176
aF15.86
aF11.712
aF9.516
as(I53
S'put HB4-1-biasvoltage[1-64]_f 64*53.000000'
p492
tp493
(lp494
S'OK'
p495
as(I47
S'put HB4-1-biasvoltage[1-64]_f 64*47.000000'
p496
tp497
(lp498
S'OK'
p499
as(I45
S'get HB4-1-LeakageCurrent[1-64]_f_rr'
p500
tp501
(lp502
F7.808
aF10.248
aF12.444
aF11.956
aF9.028
aF10.004
aF8.54
aF7.808
aF10.248
aF12.2
aF9.516
aF5.124
aF8.54
aF8.052
aF10.492
aF10.492
aF8.052
aF13.176
aF10.004
aF10.248
aF13.42
aF7.564
aF7.808
aF10.736
aF11.468
aF10.248
aF8.784
aF9.028
aF3.66
aF14.152
aF12.688
aF8.784
aF11.712
aF11.956
aF13.664
aF5.124
aF13.176
aF9.516
aF10.004
aF13.176
aF6.588
aF9.028
aF10.736
aF8.54
aF10.736
aF7.564
aF14.396
aF12.444
aF10.492
aF9.76
aF9.516
aF11.712
aF8.052
aF10.248
aF12.688
aF9.272
aF10.004
aF6.344
aF9.76
aF10.736
aF11.224
aF14.152
aF10.004
aF7.564
as(I13
S'get HB4-1-biasmon[1-64]_f_rr'
p503
tp504
(lp505
F13.011
aF12.9915
aF13.011
aF13.011
aF13.011
aF13.0305
aF13.0305
aF13.0305
aF13.011
aF13.011
aF13.011
aF13.0305
aF13.011
aF13.0305
aF13.0305
aF13.011
aF13.011
aF13.0305
aF13.011
aF13.011
aF13.0305
aF13.011
aF13.011
aF13.0305
aF13.011
aF13.0305
aF13.0305
aF13.011
aF13.011
aF13.011
aF13.0305
aF13.011
aF13.011
aF13.0305
aF13.011
aF13.0305
aF13.0305
aF13.0305
aF13.0305
aF13.0305
aF13.011
aF13.0305
aF13.011
aF13.011
aF13.011
aF13.0305
aF13.011
aF13.011
aF13.011
aF13.011
aF13.011
aF13.011
aF13.0305
aF13.0305
aF13.0305
aF13.0305
aF13.0305
aF13.011
aF13.0305
aF13.0305
aF13.011
aF13.011
aF13.0305
aF13.0305
as(I26
S'get HB4-1-LeakageCurrent[1-64]_f_rr'
p506
tp507
(lp508
F4.88
aF7.32
aF9.272
aF9.028
aF6.1
aF7.076
aF5.612
aF4.88
aF7.32
aF9.272
aF6.588
aF2.44
aF5.856
aF5.124
aF7.564
aF7.564
aF5.124
aF10.492
aF7.076
aF7.32
aF10.492
aF4.636
aF4.88
aF7.808
aF8.54
aF7.076
aF5.856
aF6.1
aF1.952
aF11.224
aF9.76
aF5.856
aF8.784
aF9.028
aF10.736
aF2.684
aF10.248
aF6.588
aF7.076
aF10.004
aF3.66
aF6.1
aF8.052
aF5.856
aF7.564
aF4.636
aF11.468
aF9.272
aF7.564
aF6.832
aF6.588
aF8.784
aF5.124
aF7.32
aF9.76
aF6.344
aF7.32
aF3.416
aF6.832
aF7.808
aF8.052
aF10.98
aF6.832
aF4.636
as(I33
S'get HB4-1-biasmon[1-64]_f_rr'
p509
tp510
(lp511
F32.9573
aF32.9377
aF32.9573
aF32.9573
aF32.9573
aF32.9573
aF32.9768
aF32.9768
aF32.9573
aF32.9573
aF32.9573
aF32.9768
aF32.9768
aF32.9768
aF32.9768
aF32.9768
aF32.9768
aF32.9573
aF32.9573
aF32.9573
aF32.9768
aF32.9573
aF32.9768
aF32.9768
aF32.9573
aF32.9573
aF32.9573
aF32.9573
aF32.9768
aF32.9573
aF32.9573
aF32.9768
aF32.9573
aF32.9768
aF32.9573
aF32.9768
aF32.9768
aF32.9768
aF32.9768
aF32.9768
aF32.9573
aF32.9573
aF32.9573
aF32.9573
aF32.9573
aF32.9768
aF32.9768
aF32.9573
aF32.9573
aF32.9573
aF32.9573
aF32.9573
aF32.9768
aF32.9768
aF32.9768
aF32.9768
aF32.9573
aF32.9573
aF32.9573
aF32.9768
aF32.9573
aF32.9573
aF32.9573
aF32.9768
as(I21
S'get HB4-1-LeakageCurrent[1-64]_f_rr'
p512
tp513
(lp514
F4.148
aF6.588
aF8.54
aF8.296
aF5.124
aF6.1
aF4.636
aF4.148
aF6.588
aF8.54
aF5.856
aF2.196
aF5.124
aF4.148
aF6.588
aF7.076
aF4.392
aF9.516
aF6.344
aF6.588
aF9.516
aF3.904
aF4.148
aF7.076
aF7.564
aF6.344
aF5.124
aF5.368
aF1.952
aF10.492
aF9.028
aF5.124
aF8.052
aF8.296
aF10.004
aF2.196
aF9.516
aF5.856
aF6.344
aF9.272
aF2.928
aF5.368
aF7.076
aF5.124
aF6.832
aF3.904
aF10.736
aF8.54
aF6.832
aF6.1
aF5.612
aF8.052
aF4.392
aF6.588
aF8.784
aF5.612
aF6.588
aF2.928
aF6.1
aF7.32
aF7.564
aF10.248
aF6.1
aF3.904
as(I52
S'get HB4-1-LeakageCurrent[1-64]_f_rr'
p515
tp516
(lp517
F9.028
aF11.468
aF13.42
aF13.176
aF10.004
aF11.224
aF9.516
aF9.028
aF11.468
aF13.176
aF10.492
aF6.1
aF9.516
aF9.028
aF11.468
aF11.712
aF9.028
aF14.396
aF10.98
aF11.224
aF14.396
aF8.54
aF9.028
aF11.712
aF12.444
aF11.224
aF9.76
aF10.004
aF4.636
aF15.372
aF13.908
aF9.76
aF12.932
aF13.176
aF14.64
aF6.344
aF14.396
aF10.492
aF10.98
aF14.152
aF7.564
aF10.004
aF11.956
aF9.76
aF11.712
aF8.54
aF15.372
aF13.42
aF11.468
aF10.98
aF10.492
aF12.932
aF9.272
aF11.468
aF13.664
aF10.248
aF11.224
aF7.32
aF10.98
aF11.956
aF12.2
aF15.128
aF10.98
aF8.784
as(I47
S'get HB4-1-LeakageCurrent[1-64]_f_rr'
p518
tp519
(lp520
F8.052
aF10.492
aF12.688
aF12.444
aF9.028
aF10.248
aF8.784
aF8.052
aF10.736
aF12.444
aF9.76
aF5.368
aF9.028
aF8.296
aF10.736
aF10.98
aF8.54
aF13.664
aF10.248
aF10.492
aF13.664
aF7.808
aF8.296
aF10.98
aF11.712
aF10.492
aF9.028
aF9.272
aF3.904
aF14.396
aF13.176
aF9.028
aF12.2
aF12.2
aF13.908
aF5.612
aF13.664
aF9.516
aF10.248
aF13.42
aF6.832
aF9.272
aF11.224
aF8.784
aF10.98
aF7.808
aF14.64
aF12.688
aF10.736
aF10.004
aF9.76
aF12.2
aF8.296
aF10.736
aF12.932
aF9.516
aF10.492
aF6.588
aF10.248
aF11.224
aF11.712
aF14.396
aF10.248
aF7.808
as(I2
S'put HB4-1-biasvoltage[1-64]_f 64*2.000000'
p521
tp522
(lp523
S'OK'
p524
as(I55
S'get HB4-1-LeakageCurrent[1-64]_f_rr'
p525
tp526
(lp527
F9.516
aF11.712
aF13.908
aF13.664
aF10.492
aF11.712
aF10.248
aF9.272
aF11.956
aF13.664
aF11.224
aF6.588
aF10.248
aF9.516
aF11.956
aF12.2
aF9.516
aF14.64
aF11.712
aF11.712
aF14.884
aF9.028
aF9.516
aF12.444
aF12.932
aF11.712
aF10.248
aF10.492
aF5.124
aF15.616
aF14.396
aF10.248
aF13.42
aF13.664
aF15.128
aF6.832
aF14.64
aF10.98
aF11.712
aF14.64
aF7.808
aF10.736
aF12.444
aF10.248
aF12.2
aF9.028
aF15.86
aF13.908
aF11.956
aF11.224
aF10.98
aF13.42
aF9.516
aF11.956
aF14.396
aF10.736
aF11.712
aF7.564
aF11.468
aF12.444
aF12.688
aF15.616
aF11.468
aF9.028
as(I19
S'put HB4-1-biasvoltage[1-64]_f 64*19.000000'
p528
tp529
(lp530
S'OK'
p531
as(I19
S'get HB4-1-biasmon[1-64]_f_rr'
p532
tp533
(lp534
F19.0085
aF18.989
aF19.0085
aF19.0085
aF19.0085
aF19.0281
aF19.0281
aF19.0281
aF19.0085
aF19.0085
aF19.0085
aF19.0281
aF19.0085
aF19.0085
aF19.0085
aF19.0281
aF19.0085
aF19.0085
aF19.0085
aF19.0085
aF19.0281
aF19.0085
aF19.0085
aF19.0085
aF19.0085
aF19.0281
aF19.0085
aF19.0085
aF19.0085
aF19.0085
aF19.0281
aF19.0085
aF19.0085
aF19.0281
aF19.0085
aF19.0085
aF19.0281
aF19.0281
aF19.0281
aF19.0281
aF19.0085
aF19.0085
aF19.0085
aF19.0085
aF19.0085
aF19.0281
aF19.0085
aF19.0085
aF19.0085
aF19.0085
aF19.0085
aF19.0085
aF19.0085
aF19.0085
aF19.0281
aF19.0281
aF19.0085
aF19.0085
aF19.0085
aF19.0281
aF19.0085
aF19.0085
aF19.0085
aF19.0281
as(I36
S'get HB4-1-LeakageCurrent[1-64]_f_rr'
p535
tp536
(lp537
F6.588
aF8.784
aF10.98
aF10.736
aF7.564
aF8.54
aF7.076
aF6.588
aF9.028
aF10.736
aF8.052
aF3.66
aF7.32
aF6.588
aF9.028
aF9.272
aF6.588
aF11.956
aF8.54
aF8.784
aF11.956
aF6.1
aF6.588
aF9.516
aF10.004
aF8.784
aF7.32
aF7.564
aF2.44
aF12.688
aF11.468
aF7.32
aF10.492
aF10.736
aF12.2
aF3.904
aF11.712
aF8.052
aF8.54
aF11.712
aF5.124
aF7.564
aF9.516
aF7.32
aF9.272
aF6.1
aF12.932
aF10.736
aF9.028
aF8.54
aF8.052
aF10.492
aF6.832
aF8.784
aF11.224
aF7.808
aF8.54
aF4.88
aF8.54
aF9.516
aF9.76
aF12.444
aF8.54
aF6.1
as(I7
S'get HB4-1-biasmon[1-64]_f_rr'
p538
tp539
(lp540
F7.03297
aF7.03297
aF7.03297
aF7.03297
aF7.03297
aF7.03297
aF7.03297
aF7.03297
aF7.03297
aF7.03297
aF7.03297
aF7.03297
aF7.03297
aF7.03297
aF7.03297
aF7.03297
aF7.03297
aF7.03297
aF7.01343
aF7.03297
aF7.03297
aF7.03297
aF7.03297
aF7.03297
aF7.03297
aF7.03297
aF7.03297
aF7.03297
aF7.03297
aF7.03297
aF7.03297
aF7.03297
aF7.01343
aF7.03297
aF7.03297
aF7.03297
aF7.03297
aF7.03297
aF7.03297
aF7.03297
aF7.03297
aF7.03297
aF7.03297
aF7.03297
aF7.03297
aF7.03297
aF7.03297
aF7.01343
aF7.03297
aF7.01343
aF7.03297
aF7.03297
aF7.03297
aF7.03297
aF7.0525
aF7.03297
aF7.03297
aF7.03297
aF7.03297
aF7.03297
aF7.01343
aF7.03297
aF7.03297
aF7.03297
as(I27
S'get HB4-1-biasmon[1-64]_f_rr'
p541
tp542
(lp543
F26.9792
aF26.9597
aF26.9792
aF26.9792
aF26.9792
aF26.9792
aF26.9792
aF26.9792
aF26.9792
aF26.9792
aF26.9792
aF26.9792
aF26.9792
aF26.9988
aF26.9792
aF26.9792
aF26.9792
aF26.9792
aF26.9597
aF26.9792
aF26.9792
aF26.9792
aF26.9792
aF26.9792
aF26.9792
aF26.9792
aF26.9792
aF26.9792
aF26.9792
aF26.9792
aF26.9792
aF26.9792
aF26.9792
aF26.9792
aF26.9597
aF26.9792
aF26.9792
aF26.9792
aF26.9792
aF26.9988
aF26.9792
aF26.9792
aF26.9792
aF26.9792
aF26.9792
aF26.9988
aF26.9792
aF26.9792
aF26.9792
aF26.9792
aF26.9792
aF26.9792
aF26.9792
aF26.9792
aF26.9792
aF26.9988
aF26.9792
aF26.9792
aF26.9792
aF26.9792
aF26.9792
aF26.9792
aF26.9792
aF26.9792
as(I33
S'get HB4-1-LeakageCurrent[1-64]_f_rr'
p544
tp545
(lp546
F5.856
aF8.296
aF10.492
aF10.004
aF7.076
aF8.052
aF6.588
aF6.1
aF8.54
aF10.248
aF7.564
aF3.172
aF6.832
aF6.1
aF8.54
aF8.784
aF6.1
aF11.468
aF8.052
aF8.052
aF11.468
aF5.612
aF6.1
aF9.028
aF9.516
aF8.296
aF6.832
aF7.32
aF2.196
aF12.444
aF10.98
aF6.832
aF10.004
aF10.004
aF11.712
aF3.416
aF11.224
aF7.564
aF8.052
aF11.224
aF4.636
aF7.32
aF9.028
aF6.832
aF8.784
aF5.856
aF12.444
aF10.492
aF8.54
aF7.808
aF7.564
aF10.004
aF6.1
aF8.54
aF10.736
aF7.564
aF8.296
aF4.636
aF8.052
aF9.028
aF9.272
aF11.956
aF8.052
aF5.856
as(I37
S'put HB4-1-biasvoltage[1-64]_f 64*37.000000'
p547
tp548
(lp549
S'OK'
p550
as(I52
S'put HB4-1-biasvoltage[1-64]_f 64*52.000000'
p551
tp552
(lp553
S'OK'
p554
as(I2
S'get HB4-1-LeakageCurrent[1-64]_f_rr'
p555
tp556
(lp557
F1.708
aF3.66
aF6.1
aF5.124
aF2.44
aF3.66
aF1.952
aF1.952
aF3.416
aF5.368
aF2.684
aF2.196
aF2.196
aF2.196
aF4.148
aF4.636
aF1.952
aF6.832
aF3.904
aF3.66
aF6.588
aF1.952
aF1.952
aF4.148
aF4.636
aF3.904
aF2.928
aF2.684
aF1.952
aF7.564
aF6.1
aF2.44
aF4.88
aF5.124
aF7.076
aF2.196
aF7.076
aF2.928
aF3.172
aF6.1
aF1.952
aF2.684
aF3.904
aF2.44
aF3.904
aF2.196
aF7.564
aF5.368
aF3.66
aF3.172
aF2.928
aF4.88
aF1.952
aF3.416
aF6.1
aF2.684
aF4.148
aF2.196
aF3.66
aF4.392
aF4.392
aF7.076
aF2.928
aF1.952
as(I46
S'put HB4-1-biasvoltage[1-64]_f 64*46.000000'
p558
tp559
(lp560
S'OK'
p561
as(I38
S'get HB4-1-LeakageCurrent[1-64]_f_rr'
p562
tp563
(lp564
F6.832
aF9.272
aF11.224
aF10.98
aF7.808
aF8.784
aF7.564
aF6.832
aF9.272
aF10.98
aF8.54
aF3.904
aF7.564
aF6.832
aF9.272
aF9.516
aF6.832
aF12.2
aF8.784
aF9.028
aF12.2
aF6.344
aF6.832
aF9.76
aF10.248
aF9.028
aF7.564
aF7.808
aF2.684
aF12.932
aF11.712
aF7.564
aF10.736
aF10.98
aF12.444
aF4.148
aF12.2
aF8.296
aF9.028
aF11.956
aF5.368
aF7.808
aF9.76
aF7.564
aF9.516
aF6.588
aF13.176
aF11.224
aF9.272
aF8.784
aF8.296
aF10.736
aF6.832
aF9.272
aF11.712
aF8.052
aF9.028
aF5.124
aF8.784
aF9.76
aF10.004
aF12.932
aF8.784
aF6.588
as(I9
S'put HB4-1-biasvoltage[1-64]_f 64*9.000000'
p565
tp566
(lp567
S'OK'
p568
as(I34
S'get HB4-1-biasmon[1-64]_f_rr'
p569
tp570
(lp571
F33.9536
aF33.9341
aF33.9536
aF33.9536
aF33.9536
aF33.9536
aF33.9536
aF33.9536
aF33.9536
aF33.9536
aF33.9536
aF33.9536
aF33.9536
aF33.9731
aF33.9536
aF33.9536
aF33.9536
aF33.9536
aF33.9341
aF33.9536
aF33.9536
aF33.9536
aF33.9536
aF33.9536
aF33.9536
aF33.9731
aF33.9536
aF33.9536
aF33.9536
aF33.9536
aF33.9536
aF33.9536
aF33.9536
aF33.9536
aF33.9536
aF33.9536
aF33.9536
aF33.9536
aF33.9731
aF33.9731
aF33.9536
aF33.9536
aF33.9536
aF33.9536
aF33.9341
aF33.9731
aF33.9536
aF33.9536
aF33.9536
aF33.9536
aF33.9536
aF33.9536
aF33.9536
aF33.9536
aF33.9731
aF33.9731
aF33.9536
aF33.9536
aF33.9536
aF33.9536
aF33.9341
aF33.9536
aF33.9536
aF33.9536
as(I48
S'get HB4-1-LeakageCurrent[1-64]_f_rr'
p572
tp573
(lp574
F8.296
aF10.736
aF12.688
aF12.444
aF9.272
aF10.492
aF9.028
aF8.296
aF10.736
aF12.444
aF9.76
aF5.368
aF9.272
aF8.54
aF10.736
aF10.98
aF8.54
aF13.664
aF10.492
aF10.736
aF13.664
aF7.808
aF8.296
aF11.224
aF11.956
aF10.736
aF9.272
aF9.516
aF4.148
aF14.64
aF13.42
aF9.272
aF12.444
aF12.444
aF14.152
aF5.856
aF13.664
aF9.76
aF10.492
aF13.42
aF6.832
aF9.516
aF11.468
aF9.028
aF10.98
aF8.052
aF14.884
aF12.688
aF10.736
aF10.248
aF9.76
aF12.2
aF8.54
aF10.736
aF13.176
aF9.76
aF10.736
aF6.832
aF10.248
aF11.224
aF11.712
aF14.396
aF10.492
aF8.052
as(I12
S'get HB4-1-LeakageCurrent[1-64]_f_rr'
p575
tp576
(lp577
F2.684
aF5.124
aF7.32
aF7.076
aF3.904
aF4.88
aF3.416
aF2.928
aF5.124
aF7.076
aF4.148
aF2.196
aF3.66
aF2.928
aF5.368
aF5.612
aF2.928
aF8.296
aF4.88
aF4.88
aF8.54
aF2.684
aF2.928
aF5.856
aF6.1
aF5.124
aF3.66
aF3.904
aF1.952
aF9.028
aF7.808
aF3.904
aF6.588
aF6.832
aF8.784
aF2.196
aF8.052
aF4.636
aF4.88
aF8.052
aF1.952
aF3.904
aF5.856
aF3.904
aF5.612
aF2.684
aF9.272
aF7.076
aF5.612
aF4.88
aF4.148
aF6.588
aF3.172
aF5.124
aF7.564
aF4.148
aF4.88
aF2.196
aF4.636
aF5.612
aF6.1
aF8.784
aF4.636
aF2.684
as(I32
S'get HB4-1-LeakageCurrent[1-64]_f_rr'
p578
tp579
(lp580
F5.856
aF8.296
aF10.248
aF10.004
aF6.832
aF8.052
aF6.588
aF5.856
aF8.296
aF10.004
aF7.564
aF2.928
aF6.832
aF5.856
aF8.54
aF8.54
aF6.1
aF11.224
aF8.052
aF8.052
aF11.468
aF5.612
aF5.856
aF8.784
aF9.516
aF8.052
aF6.832
aF7.076
aF2.196
aF12.2
aF10.736
aF6.832
aF9.76
aF10.004
aF11.712
aF3.416
aF11.224
aF7.564
aF8.052
aF10.98
aF4.636
aF7.076
aF8.784
aF6.832
aF8.54
aF5.612
aF12.444
aF10.248
aF8.296
aF7.808
aF7.32
aF9.76
aF6.1
aF8.296
aF10.736
aF7.32
aF8.052
aF4.392
aF7.808
aF8.784
aF9.272
aF11.956
aF7.808
aF5.612
as(I20
S'get HB4-1-biasmon[1-64]_f_rr'
p581
tp582
(lp583
F19.9853
aF19.9853
aF19.9853
aF19.9853
aF20.0049
aF20.0049
aF20.0049
aF20.0049
aF19.9853
aF19.9853
aF19.9853
aF20.0049
aF20.0049
aF20.0049
aF20.0049
aF19.9853
aF19.9853
aF19.9853
aF19.9853
aF19.9853
aF20.0049
aF20.0049
aF20.0049
aF20.0049
aF19.9853
aF20.0049
aF20.0049
aF19.9853
aF20.0049
aF19.9853
aF20.0049
aF20.0049
aF20.0049
aF20.0049
aF20.0049
aF20.0049
aF20.0049
aF20.0049
aF20.0049
aF20.0049
aF19.9853
aF19.9853
aF19.9853
aF19.9853
aF19.9853
aF20.0244
aF20.0049
aF20.0049
aF20.0049
aF20.0049
aF20.0049
aF19.9853
aF20.0049
aF20.0049
aF20.0244
aF20.0244
aF20.0049
aF20.0049
aF19.9853
aF20.0049
aF19.9853
aF20.0049
aF19.9853
aF20.0049
as(I54
S'get HB4-1-LeakageCurrent[1-64]_f_rr'
p584
tp585
(lp586
F9.272
aF11.712
aF13.664
aF13.42
aF10.248
aF11.468
aF10.004
aF9.272
aF11.956
aF13.42
aF10.736
aF6.344
aF10.004
aF9.516
aF11.712
aF11.956
aF9.516
aF14.64
aF11.468
aF11.712
aF14.64
aF8.784
aF9.272
aF12.2
aF12.688
aF11.712
aF10.004
aF10.492
aF4.88
aF15.372
aF14.152
aF10.004
aF13.176
aF13.42
aF15.128
aF6.588
aF14.64
aF10.736
aF11.468
aF14.64
aF7.808
aF10.492
aF12.444
aF10.004
aF11.956
aF9.028
aF15.616
aF13.664
aF11.712
aF11.224
aF10.736
aF13.176
aF9.272
aF11.712
aF13.908
aF10.736
aF11.712
aF7.564
aF11.224
aF12.2
aF12.444
aF15.372
aF11.224
aF9.028
as(I28
S'get HB4-1-biasmon[1-64]_f_rr'
p587
tp588
(lp589
F27.9756
aF27.956
aF27.9756
aF27.9756
aF27.9756
aF27.9756
aF27.9756
aF27.9756
aF27.9756
aF27.9756
aF27.9756
aF27.9756
aF27.9756
aF27.9756
aF27.9756
aF27.9756
aF27.9756
aF27.9756
aF27.956
aF27.9756
aF27.9756
aF27.9756
aF27.9756
aF27.9756
aF27.9756
aF27.9756
aF27.9756
aF27.9756
aF27.9756
aF27.9756
aF27.9756
aF27.9756
aF27.9756
aF27.9756
aF27.9756
aF27.9756
aF27.9756
aF27.9756
aF27.9756
aF27.9756
aF27.9756
aF27.9756
aF27.9756
aF27.9756
aF27.9756
aF27.9756
aF27.9756
aF27.9756
aF27.9756
aF27.9756
aF27.9756
aF27.9756
aF27.9756
aF27.9756
aF27.9951
aF27.9756
aF27.9756
aF27.9756
aF27.9756
aF27.9756
aF27.956
aF27.9756
aF27.9756
aF27.9756
as(I3
S'get HB4-1-LeakageCurrent[1-64]_f_rr'
p590
tp591
(lp592
F1.952
aF4.148
aF5.856
aF5.368
aF2.684
aF3.172
aF1.952
aF1.952
aF3.416
aF5.856
aF3.66
aF2.196
aF2.44
aF1.952
aF4.392
aF4.392
aF2.44
aF7.32
aF3.416
aF4.148
aF6.832
aF2.196
aF1.952
aF4.148
aF5.368
aF4.148
aF2.196
aF3.416
aF1.952
aF7.564
aF6.588
aF2.44
aF5.612
aF5.368
aF7.076
aF2.196
aF7.076
aF2.928
aF3.416
aF6.1
aF1.952
aF2.684
aF3.904
aF2.928
aF4.636
aF2.196
aF7.808
aF6.344
aF4.636
aF3.172
aF2.684
aF4.88
aF2.196
aF3.904
aF5.856
aF3.66
aF3.66
aF2.196
aF2.928
aF4.392
aF4.636
aF7.32
aF3.904
aF1.952
as(I48
S'get HB4-1-biasmon[1-64]_f_rr'
p593
tp594
(lp595
F47.9023
aF47.9023
aF47.9023
aF47.9023
aF47.9219
aF47.9219
aF47.9219
aF47.9219
aF47.9023
aF47.9023
aF47.9023
aF47.9219
aF47.9219
aF47.9219
aF47.9219
aF47.9219
aF47.9023
aF47.9023
aF47.9023
aF47.9023
aF47.9219
aF47.9023
aF47.9023
aF47.9219
aF47.9023
aF47.9219
aF47.9023
aF47.9023
aF47.9219
aF47.9219
aF47.9219
aF47.9219
aF47.9023
aF47.9219
aF47.9023
aF47.9219
aF47.9219
aF47.9219
aF47.9219
aF47.9219
aF47.9023
aF47.9023
aF47.9023
aF47.9023
aF47.9219
aF47.9219
aF47.9219
aF47.9023
aF47.9023
aF47.9023
aF47.9219
aF47.9023
aF47.9219
aF47.9219
aF47.9219
aF47.9219
aF47.9023
aF47.9023
aF47.9219
aF47.9023
aF47.9023
aF47.9023
aF47.9023
aF47.9023
as(I1
S'put HB4-1-biasvoltage[1-64]_f 64*1.000000'
p596
tp597
(lp598
S'OK'
p599
as(I15
S'put HB4-1-biasvoltage[1-64]_f 64*15.000000'
p600
tp601
(lp602
S'OK'
p603
as(I45
S'put HB4-1-biasvoltage[1-64]_f 64*45.000000'
p604
tp605
(lp606
S'OK'
p607
as(I14
S'get HB4-1-biasmon[1-64]_f_rr'
p608
tp609
(lp610
F14.0269
aF14.0073
aF14.0269
aF14.0269
aF14.0269
aF14.0269
aF14.0464
aF14.0269
aF14.0269
aF14.0269
aF14.0269
aF14.0464
aF14.0269
aF14.0464
aF14.0269
aF14.0269
aF14.0269
aF14.0269
aF14.0073
aF14.0269
aF14.0269
aF14.0269
aF14.0269
aF14.0269
aF14.0269
aF14.0269
aF14.0269
aF14.0269
aF14.0269
aF14.0269
aF14.0464
aF14.0269
aF14.0269
aF14.0269
aF14.0269
aF14.0269
aF14.0464
aF14.0464
aF14.0464
aF14.0464
aF14.0269
aF14.0269
aF14.0269
aF14.0269
aF14.0269
aF14.0269
aF14.0269
aF14.0269
aF14.0269
aF14.0269
aF14.0269
aF14.0269
aF14.0269
aF14.0269
aF14.0464
aF14.0269
aF14.0269
aF14.0269
aF14.0269
aF14.0269
aF14.0269
aF14.0269
aF14.0269
aF14.0269
as.