(dp0
(I28
S'put HB5-4-biasvoltage[1-64]_f 64*28.000000'
p1
tp2
(lp3
S'OK'
p4
as(I41
S'put HB5-4-biasvoltage[1-64]_f 64*41.000000'
p5
tp6
(lp7
S'OK'
p8
as(I30
S'get HB5-4-LeakageCurrent[1-64]_f_rr'
p9
tp10
(lp11
F7.808
aF7.32
aF7.076
aF7.076
aF9.272
aF9.272
aF7.808
aF4.636
aF12.444
aF10.248
aF8.54
aF13.176
aF6.832
aF7.32
aF10.492
aF4.636
aF7.808
aF5.856
aF12.2
aF6.1
aF2.684
aF9.516
aF5.124
aF6.832
aF9.516
aF9.76
aF6.344
aF7.076
aF6.1
aF8.54
aF6.344
aF4.636
aF7.808
aF10.736
aF9.76
aF3.904
aF8.784
aF2.196
aF9.028
aF5.856
aF3.904
aF5.368
aF3.416
aF10.492
aF1.708
aF9.516
aF7.808
aF10.248
aF9.272
aF7.32
aF6.1
aF6.588
aF8.052
aF9.76
aF8.052
aF8.296
aF10.492
aF7.564
aF6.588
aF7.564
aF6.588
aF7.564
aF14.64
aF4.636
as(I6
S'get HB5-4-biasmon[1-64]_f_rr'
p12
tp13
(lp14
F6.03663
aF6.05617
aF6.03663
aF6.03663
aF6.05617
aF6.05617
aF6.05617
aF6.05617
aF6.05617
aF6.05617
aF6.05617
aF6.05617
aF6.03663
aF6.05617
aF6.05617
aF6.05617
aF6.05617
aF6.05617
aF6.03663
aF6.03663
aF6.05617
aF6.05617
aF6.05617
aF6.05617
aF6.05617
aF6.05617
aF6.05617
aF6.05617
aF6.05617
aF6.03663
aF6.03663
aF6.05617
aF6.05617
aF6.03663
aF6.05617
aF6.05617
aF6.05617
aF6.05617
aF6.05617
aF6.05617
aF6.05617
aF6.05617
aF6.05617
aF6.05617
aF6.05617
aF6.05617
aF6.05617
aF6.05617
aF6.03663
aF6.03663
aF6.03663
aF6.03663
aF6.05617
aF6.05617
aF6.05617
aF6.05617
aF6.03663
aF6.05617
aF6.03663
aF6.05617
aF6.05617
aF6.05617
aF6.05617
aF6.05617
as(I5
S'get HB5-4-biasmon[1-64]_f_rr'
p15
tp16
(lp17
F5.05983
aF5.05983
aF5.05983
aF5.05983
aF5.05983
aF5.05983
aF5.05983
aF5.05983
aF5.05983
aF5.05983
aF5.05983
aF5.05983
aF5.04029
aF5.05983
aF5.05983
aF5.05983
aF5.05983
aF5.05983
aF5.05983
aF5.04029
aF5.05983
aF5.05983
aF5.05983
aF5.05983
aF5.05983
aF5.05983
aF5.05983
aF5.05983
aF5.05983
aF5.05983
aF5.05983
aF5.04029
aF5.05983
aF5.04029
aF5.05983
aF5.05983
aF5.05983
aF5.05983
aF5.05983
aF5.05983
aF5.05983
aF5.05983
aF5.05983
aF5.05983
aF5.05983
aF5.05983
aF5.05983
aF5.05983
aF5.05983
aF5.04029
aF5.04029
aF5.04029
aF5.05983
aF5.05983
aF5.05983
aF5.05983
aF5.05983
aF5.05983
aF5.05983
aF5.05983
aF5.05983
aF5.05983
aF5.05983
aF5.05983
as(I10
S'get HB5-4-biasmon[1-64]_f_rr'
p18
tp19
(lp20
F10.0611
aF10.0611
aF10.0415
aF10.0611
aF10.0611
aF10.0611
aF10.0611
aF10.0611
aF10.0611
aF10.0611
aF10.0611
aF10.0611
aF10.0415
aF10.0611
aF10.0611
aF10.0611
aF10.0611
aF10.0611
aF10.0611
aF10.0611
aF10.0611
aF10.0611
aF10.0611
aF10.0611
aF10.0611
aF10.0611
aF10.0611
aF10.0611
aF10.0415
aF10.0611
aF10.0611
aF10.0611
aF10.0611
aF10.0415
aF10.0415
aF10.0415
aF10.0611
aF10.0611
aF10.0611
aF10.0611
aF10.0415
aF10.0611
aF10.0611
aF10.0611
aF10.0611
aF10.0611
aF10.0611
aF10.0611
aF10.0611
aF10.0611
aF10.0415
aF10.0415
aF10.0611
aF10.0611
aF10.0611
aF10.0611
aF10.0415
aF10.0611
aF10.0611
aF10.0611
aF10.0611
aF10.0611
aF10.0611
aF10.0611
as(I18
S'put HB5-4-biasvoltage[1-64]_f 64*18.000000'
p21
tp22
(lp23
S'OK'
p24
as(I23
S'put HB5-4-biasvoltage[1-64]_f 64*23.000000'
p25
tp26
(lp27
S'OK'
p28
as(I32
S'get HB5-4-biasmon[1-64]_f_rr'
p29
tp30
(lp31
F32.0391
aF32.0391
aF32.0391
aF32.0391
aF32.0391
aF32.0391
aF32.0391
aF32.0391
aF32.0391
aF32.0391
aF32.0391
aF32.0391
aF32.0195
aF32.0391
aF32.0391
aF32.0391
aF32.0391
aF32.0391
aF32.0391
aF32.0391
aF32.0391
aF32.0391
aF32.0391
aF32.0391
aF32.0391
aF32.0391
aF32.0391
aF32.0391
aF32.0391
aF32.0391
aF32.0391
aF32.0391
aF32.0391
aF32.0195
aF32.0195
aF32.0195
aF32.0391
aF32.0391
aF32.0391
aF32.0391
aF32.0391
aF32.0391
aF32.0391
aF32.0391
aF32.0391
aF32.0391
aF32.0391
aF32.0391
aF32.0391
aF32.0391
aF32.0195
aF32.0391
aF32.0391
aF32.0391
aF32.0391
aF32.0391
aF32.0391
aF32.0195
aF32.0391
aF32.0391
aF32.0391
aF32.0391
aF32.0195
aF32.0391
as(I40
S'get HB5-4-biasmon[1-64]_f_rr'
p32
tp33
(lp34
F39.9902
aF40.0293
aF40.0098
aF40.0098
aF40.0098
aF40.0098
aF40.0293
aF40.0098
aF40.0293
aF40.0293
aF40.0098
aF40.0098
aF39.9902
aF40.0293
aF40.0293
aF40.0293
aF40.0098
aF39.9902
aF40.0098
aF40.0098
aF40.0293
aF40.0293
aF40.0098
aF40.0293
aF40.0293
aF40.0098
aF40.0293
aF40.0293
aF40.0293
aF40.0293
aF40.0098
aF40.0293
aF40.0098
aF40.0098
aF40.0098
aF40.0098
aF40.0293
aF40.0293
aF40.0293
aF40.0293
aF39.9902
aF39.9902
aF40.0098
aF40.0293
aF40.0293
aF40.0098
aF40.0293
aF40.0098
aF40.0098
aF40.0293
aF39.9902
aF40.0098
aF40.0293
aF40.0098
aF40.0293
aF40.0293
aF40.0098
aF39.9902
aF40.0098
aF40.0098
aF40.0098
aF40.0293
aF39.9902
aF40.0293
as(I49
S'put HB5-4-biasvoltage[1-64]_f 64*49.000000'
p35
tp36
(lp37
S'OK'
p38
as(I39
S'get HB5-4-biasmon[1-64]_f_rr'
p39
tp40
(lp41
F39.0134
aF39.033
aF39.0134
aF39.0134
aF39.0134
aF39.0134
aF39.033
aF39.0134
aF39.033
aF39.033
aF39.033
aF39.0134
aF39.0134
aF39.033
aF39.033
aF39.033
aF39.033
aF39.0134
aF39.0134
aF39.0134
aF39.033
aF39.033
aF39.0134
aF39.0134
aF39.033
aF39.0134
aF39.033
aF39.033
aF39.033
aF39.033
aF39.033
aF39.033
aF39.0134
aF39.0134
aF39.033
aF39.0134
aF39.033
aF39.033
aF39.033
aF39.033
aF39.0134
aF39.0134
aF39.0134
aF39.033
aF39.033
aF39.0134
aF39.033
aF39.0134
aF39.0134
aF39.033
aF39.0134
aF39.033
aF39.033
aF39.033
aF39.033
aF39.033
aF39.0134
aF39.0134
aF39.0134
aF39.0134
aF39.033
aF39.033
aF39.033
aF39.033
as(I24
S'put HB5-4-biasvoltage[1-64]_f 64*24.000000'
p42
tp43
(lp44
S'OK'
p45
as(I42
S'get HB5-4-LeakageCurrent[1-64]_f_rr'
p46
tp47
(lp48
F9.76
aF9.028
aF8.784
aF8.784
aF11.224
aF10.98
aF9.516
aF6.588
aF14.152
aF12.2
aF10.736
aF14.884
aF8.784
aF9.272
aF12.444
aF6.344
aF9.76
aF7.564
aF14.152
aF7.808
aF4.392
aF11.224
aF6.832
aF8.784
aF11.468
aF11.712
aF8.052
aF9.028
aF8.052
aF10.492
aF8.052
aF6.588
aF9.76
aF12.688
aF11.712
aF5.856
aF10.736
aF3.66
aF10.736
aF7.808
aF5.612
aF7.076
aF5.124
aF12.444
aF2.196
aF11.224
aF9.76
aF12.2
aF11.224
aF9.028
aF8.052
aF8.54
aF10.004
aF11.712
aF10.004
aF10.248
aF12.2
aF9.76
aF8.296
aF9.516
aF8.54
aF9.516
aF16.348
aF6.344
as(I17
S'get HB5-4-biasmon[1-64]_f_rr'
p49
tp50
(lp51
F17.0354
aF17.0354
aF17.0354
aF17.0354
aF17.0354
aF17.0354
aF17.0549
aF17.0354
aF17.0354
aF17.0549
aF17.0354
aF17.0354
aF17.0354
aF17.0354
aF17.0549
aF17.0549
aF17.0354
aF17.0354
aF17.0354
aF17.0354
aF17.0354
aF17.0354
aF17.0354
aF17.0354
aF17.0549
aF17.0354
aF17.0549
aF17.0354
aF17.0354
aF17.0354
aF17.0354
aF17.0354
aF17.0354
aF17.0354
aF17.0354
aF17.0354
aF17.0549
aF17.0549
aF17.0354
aF17.0549
aF17.0354
aF17.0354
aF17.0549
aF17.0354
aF17.0354
aF17.0354
aF17.0354
aF17.0354
aF17.0354
aF17.0354
aF17.0354
aF17.0354
aF17.0354
aF17.0354
aF17.0549
aF17.0354
aF17.0354
aF17.0354
aF17.0354
aF17.0354
aF17.0354
aF17.0354
aF17.0354
aF17.0549
as(I37
S'get HB5-4-LeakageCurrent[1-64]_f_rr'
p52
tp53
(lp54
F9.028
aF8.296
aF8.052
aF8.052
aF10.248
aF10.248
aF8.784
aF5.856
aF13.664
aF11.468
aF9.76
aF14.152
aF8.052
aF8.54
aF11.468
aF5.612
aF9.028
aF6.832
aF13.42
aF7.076
aF3.66
aF10.736
aF6.1
aF8.052
aF10.492
aF10.98
aF7.564
aF8.296
aF7.32
aF9.516
aF7.32
aF5.856
aF9.028
aF11.956
aF10.736
aF4.88
aF9.76
aF2.928
aF10.004
aF7.076
aF4.88
aF6.1
aF4.392
aF11.712
aF1.952
aF10.492
aF9.028
aF11.468
aF10.492
aF8.296
aF7.32
aF7.564
aF9.272
aF10.98
aF9.272
aF9.516
aF11.712
aF8.784
aF7.564
aF8.54
aF7.564
aF8.54
aF15.616
aF5.856
as(I46
S'get HB5-4-LeakageCurrent[1-64]_f_rr'
p55
tp56
(lp57
F10.492
aF9.516
aF9.516
aF9.516
aF11.712
aF11.712
aF10.248
aF7.32
aF14.884
aF12.688
aF11.224
aF15.372
aF9.272
aF9.76
aF12.932
aF6.832
aF10.492
aF8.296
aF14.64
aF8.54
aF4.88
aF11.956
aF7.564
aF9.516
aF11.956
aF12.444
aF8.54
aF9.516
aF8.784
aF10.98
aF8.54
aF7.32
aF10.492
aF13.42
aF12.2
aF6.344
aF11.224
aF4.392
aF11.468
aF8.54
aF6.1
aF7.564
aF5.856
aF13.176
aF2.684
aF11.956
aF10.492
aF12.688
aF11.956
aF9.516
aF8.784
aF9.028
aF10.736
aF12.444
aF10.736
aF10.736
aF12.932
aF10.248
aF9.028
aF10.004
aF9.028
aF10.004
aF17.08
aF7.076
as(I37
S'get HB5-4-biasmon[1-64]_f_rr'
p58
tp59
(lp60
F37.0208
aF37.0403
aF37.0403
aF37.0208
aF37.0403
aF37.0403
aF37.0403
aF37.0208
aF37.0403
aF37.0403
aF37.0403
aF37.0403
aF37.0208
aF37.0403
aF37.0403
aF37.0403
aF37.0403
aF37.0403
aF37.0208
aF37.0208
aF37.0403
aF37.0403
aF37.0403
aF37.0403
aF37.0403
aF37.0208
aF37.0403
aF37.0403
aF37.0403
aF37.0403
aF37.0403
aF37.0403
aF37.0403
aF37.0208
aF37.0403
aF37.0403
aF37.0403
aF37.0403
aF37.0403
aF37.0403
aF37.0208
aF37.0208
aF37.0403
aF37.0403
aF37.0403
aF37.0403
aF37.0403
aF37.0403
aF37.0208
aF37.0403
aF37.0208
aF37.0403
aF37.0403
aF37.0403
aF37.0403
aF37.0403
aF37.0403
aF37.0208
aF37.0208
aF37.0403
aF37.0403
aF37.0403
aF37.0403
aF37.0403
as(I25
S'get HB5-4-LeakageCurrent[1-64]_f_rr'
p61
tp62
(lp63
F7.076
aF6.588
aF6.1
aF6.1
aF8.54
aF8.296
aF7.076
aF3.904
aF11.712
aF9.516
aF7.808
aF12.444
aF6.1
aF6.588
aF9.76
aF3.66
aF7.076
aF4.88
aF11.712
aF5.368
aF2.196
aF8.54
aF4.148
aF6.1
aF8.784
aF9.028
aF5.612
aF6.344
aF5.368
aF7.564
aF5.368
aF4.148
aF7.32
aF10.004
aF9.028
aF3.172
aF8.052
aF1.952
aF8.296
aF5.124
aF3.172
aF4.636
aF2.928
aF9.516
aF1.708
aF8.54
aF7.076
aF9.516
aF8.54
aF6.588
aF5.368
aF5.856
aF7.32
aF9.028
aF7.32
aF7.564
aF9.76
aF6.832
aF5.856
aF6.832
aF5.856
aF6.832
aF13.664
aF3.904
as(I40
S'put HB5-4-biasvoltage[1-64]_f 64*40.000000'
p64
tp65
(lp66
S'OK'
p67
as(I52
S'put HB5-4-biasvoltage[1-64]_f 64*52.000000'
p68
tp69
(lp70
S'OK'
p71
as(I59
S'get HB5-4-biasmon[1-64]_f_rr'
p72
tp73
(lp74
F58.9988
aF58.9988
aF58.9988
aF58.9988
aF58.9988
aF58.9988
aF59.0183
aF58.9988
aF59.0183
aF59.0183
aF59.0183
aF59.0183
aF58.9988
aF59.0183
aF59.0183
aF59.0183
aF59.0183
aF58.9988
aF58.9988
aF58.9988
aF59.0183
aF59.0183
aF59.0183
aF59.0183
aF59.0183
aF58.9988
aF59.0183
aF58.9988
aF59.0183
aF59.0183
aF59.0183
aF59.0183
aF59.0183
aF58.9988
aF58.9988
aF59.0183
aF59.0183
aF59.0183
aF59.0379
aF59.0183
aF58.9988
aF58.9988
aF58.9988
aF59.0183
aF59.0183
aF59.0183
aF59.0183
aF58.9988
aF58.9988
aF59.0183
aF58.9988
aF58.9988
aF59.0183
aF59.0183
aF59.0183
aF59.0183
aF58.9988
aF58.9988
aF58.9988
aF58.9988
aF59.0183
aF59.0183
aF58.9988
aF59.0183
as(I43
S'put HB5-4-biasvoltage[1-64]_f 64*43.000000'
p75
tp76
(lp77
S'OK'
p78
as(I3
S'get HB5-4-biasmon[1-64]_f_rr'
p79
tp80
(lp81
F3.04762
aF3.04762
aF3.04762
aF3.04762
aF3.04762
aF3.06716
aF3.06716
aF3.06716
aF3.06716
aF3.06716
aF3.04762
aF3.06716
aF3.04762
aF3.06716
aF3.06716
aF3.06716
aF3.06716
aF3.06716
aF3.04762
aF3.04762
aF3.06716
aF3.04762
aF3.04762
aF3.06716
aF3.06716
aF3.04762
aF3.06716
aF3.06716
aF3.04762
aF3.04762
aF3.04762
aF3.06716
aF3.04762
aF3.04762
aF3.04762
aF3.04762
aF3.04762
aF3.06716
aF3.06716
aF3.06716
aF3.04762
aF3.06716
aF3.06716
aF3.06716
aF3.06716
aF3.06716
aF3.04762
aF3.06716
aF3.04762
aF3.04762
aF3.04762
aF3.04762
aF3.04762
aF3.04762
aF3.06716
aF3.04762
aF3.04762
aF3.04762
aF3.04762
aF3.06716
aF3.06716
aF3.06716
aF3.04762
aF3.06716
as(I59
S'get HB5-4-LeakageCurrent[1-64]_f_rr'
p82
tp83
(lp84
F12.444
aF11.712
aF11.712
aF11.712
aF13.664
aF13.664
aF12.444
aF9.272
aF16.836
aF14.884
aF13.42
aF17.568
aF11.468
aF11.712
aF14.884
aF8.784
aF12.444
aF10.248
aF16.592
aF10.492
aF6.832
aF13.908
aF9.272
aF11.712
aF13.908
aF14.396
aF10.736
aF11.712
aF10.736
aF12.932
aF10.736
aF9.272
aF12.444
aF15.372
aF14.396
aF8.296
aF13.176
aF6.344
aF13.42
aF10.492
aF8.052
aF9.516
aF7.808
aF15.128
aF4.636
aF13.908
aF12.444
aF14.884
aF13.908
aF11.712
aF10.736
aF10.98
aF12.688
aF14.396
aF12.688
aF12.932
aF14.884
aF12.2
aF10.98
aF11.956
aF11.224
aF11.956
aF19.032
aF9.028
as(I8
S'get HB5-4-biasmon[1-64]_f_rr'
p85
tp86
(lp87
F8.0293
aF8.04884
aF8.0293
aF8.0293
aF8.04884
aF8.04884
aF8.04884
aF8.0293
aF8.0293
aF8.04884
aF8.04884
aF8.04884
aF8.0293
aF8.0293
aF8.04884
aF8.04884
aF8.04884
aF8.0293
aF8.0293
aF8.0293
aF8.04884
aF8.0293
aF8.04884
aF8.04884
aF8.04884
aF8.04884
aF8.04884
aF8.04884
aF8.0293
aF8.0293
aF8.0293
aF8.04884
aF8.0293
aF8.0293
aF8.0293
aF8.0293
aF8.04884
aF8.04884
aF8.04884
aF8.04884
aF8.0293
aF8.04884
aF8.04884
aF8.04884
aF8.04884
aF8.04884
aF8.0293
aF8.0293
aF8.0293
aF8.0293
aF8.0293
aF8.0293
aF8.04884
aF8.04884
aF8.04884
aF8.04884
aF8.0293
aF8.04884
aF8.0293
aF8.04884
aF8.04884
aF8.04884
aF8.04884
aF8.04884
as(I23
S'get HB5-4-biasmon[1-64]_f_rr'
p88
tp89
(lp90
F23.033
aF23.033
aF23.033
aF23.033
aF23.033
aF23.033
aF23.033
aF23.033
aF23.033
aF23.033
aF23.033
aF23.033
aF23.033
aF23.033
aF23.033
aF23.0525
aF23.033
aF23.033
aF23.033
aF23.033
aF23.033
aF23.033
aF23.033
aF23.033
aF23.033
aF23.033
aF23.0525
aF23.033
aF23.033
aF23.033
aF23.033
aF23.033
aF23.033
aF23.033
aF23.033
aF23.033
aF23.033
aF23.033
aF23.0525
aF23.0525
aF23.033
aF23.033
aF23.033
aF23.033
aF23.033
aF23.033
aF23.033
aF23.033
aF23.033
aF23.033
aF23.033
aF23.033
aF23.033
aF23.033
aF23.0525
aF23.033
aF23.033
aF23.033
aF23.033
aF23.033
aF23.033
aF23.033
aF23.033
aF23.033
as(I28
S'get HB5-4-biasmon[1-64]_f_rr'
p91
tp92
(lp93
F28.0342
aF28.0342
aF28.0342
aF28.0342
aF28.0342
aF28.0342
aF28.0342
aF28.0342
aF28.0342
aF28.0342
aF28.0342
aF28.0342
aF28.0147
aF28.0342
aF28.0342
aF28.0342
aF28.0342
aF28.0342
aF28.0342
aF28.0342
aF28.0342
aF28.0342
aF28.0342
aF28.0342
aF28.0342
aF28.0342
aF28.0342
aF28.0342
aF28.0342
aF28.0342
aF28.0342
aF28.0342
aF28.0342
aF28.0147
aF28.0342
aF28.0342
aF28.0342
aF28.0342
aF28.0537
aF28.0342
aF28.0342
aF28.0342
aF28.0342
aF28.0342
aF28.0342
aF28.0342
aF28.0342
aF28.0342
aF28.0342
aF28.0342
aF28.0147
aF28.0342
aF28.0342
aF28.0342
aF28.0342
aF28.0342
aF28.0342
aF28.0147
aF28.0342
aF28.0342
aF28.0342
aF28.0342
aF28.0342
aF28.0342
as(I17
S'put HB5-4-biasvoltage[1-64]_f 64*17.000000'
p94
tp95
(lp96
S'OK'
p97
as(I28
S'get HB5-4-LeakageCurrent[1-64]_f_rr'
p98
tp99
(lp100
F7.564
aF6.832
aF6.832
aF6.832
aF8.784
aF8.784
aF7.564
aF4.636
aF11.956
aF10.004
aF8.54
aF12.932
aF6.588
aF7.076
aF10.248
aF4.148
aF7.564
aF5.612
aF11.956
aF5.612
aF2.44
aF9.272
aF4.636
aF6.588
aF9.272
aF9.516
aF6.1
aF6.832
aF5.856
aF8.052
aF5.856
aF4.392
aF7.564
aF10.492
aF9.516
aF3.66
aF8.54
aF2.196
aF8.784
aF5.612
aF3.66
aF4.88
aF3.172
aF10.004
aF1.708
aF9.028
aF7.564
aF10.004
aF9.028
aF6.832
aF5.856
aF6.344
aF7.808
aF9.516
aF7.808
aF8.052
aF10.248
aF7.32
aF6.1
aF7.32
aF6.344
aF7.32
aF14.396
aF4.392
as(I23
S'get HB5-4-LeakageCurrent[1-64]_f_rr'
p101
tp102
(lp103
F6.832
aF6.1
aF5.856
aF5.856
aF8.052
aF8.052
aF6.832
aF3.66
aF11.468
aF9.272
aF7.564
aF12.2
aF5.856
aF6.1
aF9.516
aF3.416
aF6.832
aF4.636
aF11.224
aF4.88
aF1.952
aF8.296
aF3.904
aF5.856
aF8.54
aF8.54
aF5.368
aF5.856
aF5.124
aF7.32
aF5.124
aF3.66
aF6.832
aF9.76
aF8.784
aF2.928
aF7.564
aF1.952
aF8.052
aF4.88
aF2.928
aF4.148
aF2.684
aF9.272
aF1.708
aF8.54
aF6.832
aF9.272
aF8.052
aF6.1
aF5.124
aF5.612
aF7.076
aF8.784
aF7.076
aF7.32
aF9.516
aF6.588
aF5.368
aF6.588
aF5.612
aF6.588
aF13.42
aF3.66
as(I51
S'put HB5-4-biasvoltage[1-64]_f 64*51.000000'
p104
tp105
(lp106
S'OK'
p107
as(I10
S'put HB5-4-biasvoltage[1-64]_f 64*10.000000'
p108
tp109
(lp110
S'OK'
p111
as(I34
S'put HB5-4-biasvoltage[1-64]_f 64*34.000000'
p112
tp113
(lp114
S'OK'
p115
as(I20
S'put HB5-4-biasvoltage[1-64]_f 64*20.000000'
p116
tp117
(lp118
S'OK'
p119
as(I13
S'put HB5-4-biasvoltage[1-64]_f 64*13.000000'
p120
tp121
(lp122
S'OK'
p123
as(I9
S'get HB5-4-LeakageCurrent[1-64]_f_rr'
p124
tp125
(lp126
F4.636
aF3.904
aF3.66
aF3.66
aF5.856
aF5.856
aF4.636
aF2.196
aF9.272
aF6.832
aF5.612
aF10.004
aF3.416
aF4.148
aF7.564
aF2.196
aF4.636
aF2.928
aF9.272
aF2.684
aF1.708
aF6.1
aF2.44
aF3.66
aF6.344
aF6.588
aF3.416
aF3.66
aF2.928
aF5.124
aF3.172
aF2.196
aF4.88
aF7.808
aF6.832
aF1.952
aF5.612
aF1.952
aF6.1
aF2.684
aF1.708
aF2.44
aF1.708
aF7.076
aF1.708
aF6.1
aF4.636
aF6.832
aF5.856
aF4.148
aF2.928
aF3.416
aF4.636
aF6.588
aF4.88
aF5.368
aF7.076
aF4.636
aF3.172
aF4.636
aF3.416
aF4.392
aF11.224
aF2.196
as(I55
S'get HB5-4-biasmon[1-64]_f_rr'
p127
tp128
(lp129
F55.0134
aF55.0134
aF55.0134
aF55.0134
aF55.0134
aF55.0134
aF55.0134
aF55.0134
aF55.0134
aF55.033
aF55.0134
aF55.0134
aF55.0134
aF55.033
aF55.0134
aF55.033
aF55.0134
aF55.0134
aF54.9939
aF55.0134
aF55.0134
aF55.0134
aF55.0134
aF55.0134
aF55.0134
aF55.0134
aF55.033
aF55.0134
aF55.0134
aF55.0134
aF55.033
aF55.033
aF55.0134
aF54.9939
aF54.9939
aF55.0134
aF55.033
aF55.033
aF55.033
aF55.0134
aF54.9939
aF54.9939
aF55.0134
aF55.0134
aF55.0134
aF55.0134
aF55.0134
aF55.0134
aF55.0134
aF55.0134
aF54.9939
aF55.0134
aF55.0134
aF55.0134
aF55.033
aF55.0134
aF55.0134
aF54.9939
aF55.0134
aF55.0134
aF55.033
aF55.0134
aF55.0134
aF55.0134
as(I39
S'put HB5-4-biasvoltage[1-64]_f 64*39.000000'
p130
tp131
(lp132
S'OK'
p133
as(I60
S'get HB5-4-biasmon[1-64]_f_rr'
p134
tp135
(lp136
F59.9951
aF59.9951
aF59.9951
aF59.9951
aF60.0147
aF59.9951
aF59.9951
aF59.9951
aF60.0147
aF60.0147
aF60.0147
aF60.0147
aF59.9951
aF60.0342
aF60.0147
aF60.0147
aF60.0147
aF59.9951
aF59.9951
aF59.9951
aF60.0147
aF60.0147
aF60.0147
aF60.0147
aF60.0147
aF59.9951
aF60.0147
aF60.0147
aF60.0147
aF60.0147
aF60.0147
aF60.0147
aF59.9951
aF59.9951
aF59.9951
aF59.9951
aF60.0147
aF60.0147
aF60.0342
aF60.0147
aF59.9951
aF59.9951
aF59.9951
aF59.9951
aF60.0147
aF59.9951
aF60.0147
aF59.9951
aF59.9951
aF60.0147
aF59.9951
aF60.0147
aF60.0147
aF60.0147
aF60.0147
aF60.0147
aF59.9951
aF59.9951
aF59.9951
aF59.9951
aF60.0147
aF60.0147
aF59.9951
aF60.0147
as(I48
S'get HB5-4-LeakageCurrent[1-64]_f_rr'
p137
tp138
(lp139
F10.736
aF10.004
aF9.76
aF9.76
aF11.956
aF11.956
aF10.736
aF7.564
aF15.128
aF13.176
aF11.712
aF15.86
aF9.76
aF10.004
aF13.42
aF7.076
aF10.736
aF8.54
aF14.884
aF8.784
aF5.368
aF12.2
aF7.808
aF9.76
aF12.2
aF12.688
aF9.028
aF10.004
aF9.028
aF11.224
aF8.784
aF7.564
aF10.736
aF13.664
aF12.688
aF6.588
aF11.712
aF4.636
aF11.712
aF8.784
aF6.588
aF7.808
aF6.1
aF13.42
aF2.928
aF12.2
aF10.736
aF13.176
aF12.2
aF10.004
aF9.028
aF9.272
aF10.98
aF12.444
aF10.98
aF11.224
aF13.176
aF10.492
aF9.272
aF10.248
aF9.516
aF10.248
aF17.324
aF7.32
as(I4
S'get HB5-4-biasmon[1-64]_f_rr'
p140
tp141
(lp142
F4.04396
aF4.04396
aF4.04396
aF4.04396
aF4.04396
aF4.04396
aF4.06349
aF4.04396
aF4.04396
aF4.04396
aF4.04396
aF4.04396
aF4.04396
aF4.04396
aF4.04396
aF4.04396
aF4.04396
aF4.04396
aF4.04396
aF4.04396
aF4.04396
aF4.04396
aF4.04396
aF4.04396
aF4.04396
aF4.04396
aF4.06349
aF4.06349
aF4.04396
aF4.04396
aF4.04396
aF4.04396
aF4.04396
aF4.04396
aF4.04396
aF4.04396
aF4.06349
aF4.06349
aF4.06349
aF4.06349
aF4.04396
aF4.04396
aF4.04396
aF4.04396
aF4.06349
aF4.04396
aF4.04396
aF4.04396
aF4.04396
aF4.04396
aF4.04396
aF4.04396
aF4.04396
aF4.04396
aF4.06349
aF4.04396
aF4.04396
aF4.06349
aF4.04396
aF4.06349
aF4.04396
aF4.04396
aF4.04396
aF4.06349
as(I43
S'get HB5-4-LeakageCurrent[1-64]_f_rr'
p143
tp144
(lp145
F10.004
aF9.272
aF9.028
aF9.028
aF10.98
aF11.224
aF9.76
aF6.832
aF14.396
aF12.444
aF10.736
aF15.128
aF8.784
aF9.272
aF12.444
aF6.344
aF10.004
aF7.564
aF14.396
aF8.052
aF4.636
aF11.468
aF7.076
aF9.028
aF11.468
aF11.956
aF8.296
aF9.272
aF8.296
aF10.492
aF8.296
aF6.832
aF9.76
aF12.932
aF11.956
aF5.856
aF10.736
aF3.904
aF10.98
aF8.052
aF5.856
aF7.076
aF5.368
aF12.444
aF2.44
aF11.468
aF10.004
aF12.444
aF11.468
aF9.272
aF8.296
aF8.54
aF10.004
aF11.712
aF10.248
aF10.492
aF12.444
aF9.516
aF8.54
aF9.516
aF8.54
aF9.516
aF16.592
aF6.588
as(I47
S'get HB5-4-biasmon[1-64]_f_rr'
p146
tp147
(lp148
F47.0232
aF47.0232
aF47.0232
aF47.0232
aF47.0232
aF47.0232
aF47.0232
aF47.0232
aF47.0232
aF47.0232
aF47.0232
aF47.0232
aF47.0232
aF47.0427
aF47.0232
aF47.0427
aF47.0232
aF47.0232
aF47.0232
aF47.0232
aF47.0232
aF47.0232
aF47.0232
aF47.0427
aF47.0232
aF47.0232
aF47.0427
aF47.0232
aF47.0232
aF47.0427
aF47.0232
aF47.0427
aF47.0232
aF47.0232
aF47.0232
aF47.0232
aF47.0427
aF47.0427
aF47.0427
aF47.0232
aF47.0037
aF47.0232
aF47.0232
aF47.0232
aF47.0232
aF47.0232
aF47.0427
aF47.0232
aF47.0232
aF47.0232
aF47.0232
aF47.0232
aF47.0232
aF47.0232
aF47.0427
aF47.0232
aF47.0232
aF47.0232
aF47.0232
aF47.0232
aF47.0232
aF47.0232
aF47.0232
aF47.0232
as(I46
S'get HB5-4-biasmon[1-64]_f_rr'
p149
tp150
(lp151
F46.0269
aF46.0269
aF46.0269
aF46.0269
aF46.0269
aF46.0269
aF46.0269
aF46.0269
aF46.0269
aF46.0269
aF46.0269
aF46.0269
aF46.0269
aF46.0464
aF46.0464
aF46.0464
aF46.0269
aF46.0269
aF46.0269
aF46.0269
aF46.0269
aF46.0464
aF46.0269
aF46.0269
aF46.0464
aF46.0269
aF46.0464
aF46.0269
aF46.0269
aF46.0464
aF46.0464
aF46.0464
aF46.0269
aF46.0269
aF46.0269
aF46.0269
aF46.0269
aF46.0464
aF46.0464
aF46.0269
aF46.0269
aF46.0269
aF46.0269
aF46.0464
aF46.0464
aF46.0269
aF46.0464
aF46.0269
aF46.0269
aF46.0269
aF46.0269
aF46.0269
aF46.0464
aF46.0269
aF46.0464
aF46.0464
aF46.0269
aF46.0269
aF46.0269
aF46.0269
aF46.0269
aF46.0269
aF46.0269
aF46.0464
as(I12
S'get HB5-4-LeakageCurrent[1-64]_f_rr'
p152
tp153
(lp154
F5.124
aF4.392
aF4.148
aF4.148
aF6.588
aF6.344
aF5.124
aF2.196
aF9.516
aF7.564
aF5.856
aF10.736
aF4.148
aF4.636
aF7.808
aF2.196
aF5.124
aF3.172
aF9.516
aF3.172
aF1.708
aF6.832
aF2.44
aF4.148
aF6.832
aF6.832
aF3.66
aF4.148
aF3.416
aF5.612
aF3.416
aF2.44
aF5.124
aF8.296
aF7.076
aF2.196
aF5.856
aF1.952
aF6.344
aF3.416
aF1.952
aF2.928
aF1.708
aF7.564
aF1.708
aF6.832
aF4.88
aF7.32
aF6.588
aF4.636
aF3.416
aF3.904
aF5.124
aF6.832
aF5.368
aF5.612
aF7.808
aF4.88
aF3.66
aF5.124
aF3.904
aF4.636
aF11.956
aF2.44
as(I6
S'put HB5-4-biasvoltage[1-64]_f 64*6.000000'
p155
tp156
(lp157
S'OK'
p158
as(I7
S'get HB5-4-LeakageCurrent[1-64]_f_rr'
p159
tp160
(lp161
F4.148
aF3.416
aF3.416
aF3.66
aF5.856
aF5.856
aF4.636
aF1.952
aF8.54
aF6.588
aF5.124
aF10.004
aF3.172
aF3.66
aF7.32
aF1.952
aF4.148
aF2.684
aF8.784
aF2.684
aF1.708
aF5.856
aF2.196
aF3.66
aF6.1
aF6.344
aF3.172
aF3.172
aF2.44
aF4.636
aF2.684
aF2.196
aF4.636
aF7.32
aF6.1
aF1.952
aF5.124
aF1.952
aF5.856
aF2.684
aF1.708
aF2.44
aF1.708
aF6.588
aF1.708
aF6.1
aF4.392
aF6.588
aF5.856
aF3.904
aF2.44
aF3.66
aF4.636
aF6.588
aF4.636
aF4.636
aF7.076
aF3.904
aF2.684
aF4.636
aF2.928
aF3.904
aF10.98
aF1.952
as(I0
S'get HB5-4-LeakageCurrent[1-64]_f_rr'
p162
tp163
(lp164
F3.172
aF2.928
aF2.44
aF2.44
aF4.636
aF4.636
aF3.172
aF1.952
aF7.808
aF5.368
aF4.148
aF9.028
aF2.196
aF2.928
aF6.1
aF1.952
aF3.416
aF2.196
aF7.808
aF2.196
aF1.708
aF4.636
aF1.708
aF2.44
aF5.124
aF5.124
aF2.196
aF2.44
aF1.952
aF3.904
aF2.196
aF1.952
aF3.66
aF6.344
aF5.368
aF2.196
aF4.148
aF1.952
aF4.88
aF2.196
aF1.708
aF2.196
aF1.708
aF5.368
aF1.708
aF5.124
aF3.172
aF5.612
aF4.636
aF3.172
aF1.952
aF2.684
aF3.416
aF5.368
aF3.66
aF3.66
aF6.1
aF3.172
aF1.952
aF3.416
aF2.196
aF3.172
aF9.76
aF1.952
as(I44
S'get HB5-4-biasmon[1-64]_f_rr'
p165
tp166
(lp167
F44.0147
aF44.0147
aF44.0147
aF44.0147
aF44.0147
aF44.0147
aF44.0147
aF44.0147
aF44.0147
aF44.0147
aF44.0147
aF44.0147
aF44.0147
aF44.0342
aF44.0147
aF44.0147
aF44.0147
aF43.9951
aF44.0147
aF44.0147
aF44.0147
aF44.0147
aF44.0147
aF44.0342
aF44.0147
aF44.0147
aF44.0342
aF44.0147
aF44.0147
aF44.0147
aF44.0147
aF44.0147
aF44.0147
aF44.0147
aF43.9951
aF44.0147
aF44.0342
aF44.0342
aF44.0342
aF44.0147
aF43.9951
aF44.0147
aF44.0147
aF44.0147
aF44.0147
aF44.0147
aF44.0147
aF44.0147
aF44.0147
aF44.0147
aF43.9951
aF44.0147
aF44.0342
aF44.0147
aF44.0342
aF44.0147
aF44.0147
aF43.9951
aF44.0147
aF44.0147
aF44.0147
aF44.0342
aF44.0147
aF44.0147
as(I52
S'get HB5-4-biasmon[1-64]_f_rr'
p168
tp169
(lp170
F52.0244
aF52.0244
aF52.0244
aF52.0244
aF52.0244
aF52.0049
aF52.0244
aF52.0244
aF52.0244
aF52.0244
aF52.0244
aF52.0244
aF52.0244
aF52.044
aF52.0244
aF52.044
aF52.0244
aF52.0049
aF52.0244
aF52.0244
aF52.0244
aF52.0244
aF52.0244
aF52.0244
aF52.0244
aF52.0244
aF52.044
aF52.0244
aF52.044
aF52.0244
aF52.0244
aF52.0244
aF52.0244
aF52.0049
aF52.0244
aF52.0244
aF52.0244
aF52.044
aF52.044
aF52.0244
aF52.0049
aF52.0244
aF52.0244
aF52.0244
aF52.044
aF52.0244
aF52.0244
aF52.0244
aF52.0244
aF52.0244
aF52.0244
aF52.0244
aF52.0244
aF52.0244
aF52.044
aF52.0244
aF52.0244
aF52.0049
aF52.0244
aF52.0244
aF52.0244
aF52.044
aF52.0244
aF52.0244
as(I31
S'get HB5-4-biasmon[1-64]_f_rr'
p171
tp172
(lp173
F31.0232
aF31.0427
aF31.0427
aF31.0427
aF31.0427
aF31.0427
aF31.0427
aF31.0427
aF31.0427
aF31.0427
aF31.0427
aF31.0427
aF31.0427
aF31.0427
aF31.0427
aF31.0623
aF31.0427
aF31.0427
aF31.0232
aF31.0427
aF31.0427
aF31.0427
aF31.0427
aF31.0427
aF31.0427
aF31.0427
aF31.0623
aF31.0427
aF31.0427
aF31.0427
aF31.0427
aF31.0427
aF31.0427
aF31.0232
aF31.0232
aF31.0427
aF31.0427
aF31.0427
aF31.0623
aF31.0427
aF31.0232
aF31.0427
aF31.0427
aF31.0427
aF31.0427
aF31.0427
aF31.0427
aF31.0427
aF31.0427
aF31.0427
aF31.0427
aF31.0427
aF31.0623
aF31.0427
aF31.0623
aF31.0427
aF31.0427
aF31.0232
aF31.0427
aF31.0427
aF31.0427
aF31.0427
aF31.0427
aF31.0427
as(I26
S'put HB5-4-biasvoltage[1-64]_f 64*26.000000'
p174
tp175
(lp176
S'OK'
p177
as(I58
S'put HB5-4-biasvoltage[1-64]_f 64*58.000000'
p178
tp179
(lp180
S'OK'
p181
as(I42
S'put HB5-4-biasvoltage[1-64]_f 64*42.000000'
p182
tp183
(lp184
S'OK'
p185
as(I57
S'get HB5-4-biasmon[1-64]_f_rr'
p186
tp187
(lp188
F57.0061
aF57.0256
aF57.0256
aF57.0256
aF57.0256
aF57.0256
aF57.0256
aF57.0256
aF57.0256
aF57.0452
aF57.0256
aF57.0256
aF57.0061
aF57.0452
aF57.0452
aF57.0256
aF57.0256
aF57.0061
aF57.0256
aF57.0256
aF57.0256
aF57.0256
aF57.0452
aF57.0256
aF57.0256
aF57.0256
aF57.0256
aF57.0256
aF57.0256
aF57.0256
aF57.0256
aF57.0256
aF57.0256
aF57.0061
aF57.0256
aF57.0256
aF57.0452
aF57.0452
aF57.0452
aF57.0256
aF57.0061
aF57.0256
aF57.0061
aF57.0256
aF57.0256
aF57.0256
aF57.0256
aF57.0256
aF57.0061
aF57.0256
aF57.0061
aF57.0256
aF57.0256
aF57.0256
aF57.0452
aF57.0256
aF57.0256
aF57.0061
aF57.0256
aF57.0256
aF57.0256
aF57.0256
aF57.0256
aF57.0256
as(I32
S'put HB5-4-biasvoltage[1-64]_f 64*32.000000'
p189
tp190
(lp191
S'OK'
p192
as(I1
S'get HB5-4-biasmon[1-64]_f_rr'
p193
tp194
(lp195
F1.05495
aF1.05495
aF1.05495
aF1.05495
aF1.05495
aF1.05495
aF1.05495
aF1.05495
aF1.05495
aF1.05495
aF1.05495
aF1.05495
aF1.03541
aF1.05495
aF1.05495
aF1.05495
aF1.05495
aF1.05495
aF1.05495
aF1.05495
aF1.05495
aF1.05495
aF1.05495
aF1.05495
aF1.05495
aF1.05495
aF1.05495
aF1.05495
aF1.05495
aF1.05495
aF1.05495
aF1.05495
aF1.05495
aF1.03541
aF1.05495
aF1.05495
aF1.05495
aF1.05495
aF1.05495
aF1.05495
aF1.05495
aF1.05495
aF1.05495
aF1.05495
aF1.05495
aF1.05495
aF1.05495
aF1.05495
aF1.05495
aF1.05495
aF1.03541
aF1.03541
aF1.05495
aF1.05495
aF1.05495
aF1.05495
aF1.05495
aF1.05495
aF1.05495
aF1.05495
aF1.05495
aF1.05495
aF1.05495
aF1.05495
as(I60
S'put HB5-4-biasvoltage[1-64]_f 64*60.000000'
p196
tp197
(lp198
S'OK'
p199
as(I22
S'get HB5-4-biasmon[1-64]_f_rr'
p200
tp201
(lp202
F22.0366
aF22.0366
aF22.0366
aF22.0366
aF22.0366
aF22.0366
aF22.0366
aF22.0366
aF22.0366
aF22.0366
aF22.0366
aF22.0366
aF22.0366
aF22.0366
aF22.0366
aF22.0366
aF22.0366
aF22.0366
aF22.0171
aF22.0366
aF22.0366
aF22.0366
aF22.0366
aF22.0366
aF22.0366
aF22.0366
aF22.0366
aF22.0366
aF22.0366
aF22.0366
aF22.0366
aF22.0366
aF22.0366
aF22.0171
aF22.0366
aF22.0366
aF22.0366
aF22.0366
aF22.0366
aF22.0366
aF22.0171
aF22.0366
aF22.0366
aF22.0366
aF22.0366
aF22.0366
aF22.0366
aF22.0366
aF22.0366
aF22.0366
aF22.0366
aF22.0366
aF22.0366
aF22.0366
aF22.0366
aF22.0366
aF22.0366
aF22.0366
aF22.0366
aF22.0366
aF22.0366
aF22.0366
aF22.0366
aF22.0366
as(I21
S'get HB5-4-biasmon[1-64]_f_rr'
p203
tp204
(lp205
F21.0403
aF21.0403
aF21.0403
aF21.0403
aF21.0403
aF21.0403
aF21.0598
aF21.0403
aF21.0403
aF21.0403
aF21.0403
aF21.0403
aF21.0403
aF21.0403
aF21.0403
aF21.0403
aF21.0403
aF21.0403
aF21.0403
aF21.0403
aF21.0403
aF21.0403
aF21.0403
aF21.0403
aF21.0598
aF21.0403
aF21.0598
aF21.0598
aF21.0403
aF21.0598
aF21.0403
aF21.0403
aF21.0403
aF21.0208
aF21.0403
aF21.0403
aF21.0598
aF21.0598
aF21.0598
aF21.0403
aF21.0403
aF21.0403
aF21.0403
aF21.0598
aF21.0403
aF21.0403
aF21.0403
aF21.0403
aF21.0403
aF21.0403
aF21.0403
aF21.0403
aF21.0598
aF21.0403
aF21.0598
aF21.0598
aF21.0403
aF21.0403
aF21.0403
aF21.0403
aF21.0403
aF21.0403
aF21.0403
aF21.0598
as(I2
S'put HB5-4-biasvoltage[1-64]_f 64*2.000000'
p206
tp207
(lp208
S'OK'
p209
as(I53
S'put HB5-4-biasvoltage[1-64]_f 64*53.000000'
p210
tp211
(lp212
S'OK'
p213
as(I26
S'get HB5-4-biasmon[1-64]_f_rr'
p214
tp215
(lp216
F26.0415
aF26.0415
aF26.0415
aF26.0415
aF26.0415
aF26.0415
aF26.0611
aF26.0415
aF26.0415
aF26.0415
aF26.0415
aF26.0415
aF26.0415
aF26.0415
aF26.0415
aF26.0611
aF26.0415
aF26.0415
aF26.0415
aF26.0415
aF26.0415
aF26.0415
aF26.0415
aF26.0415
aF26.0415
aF26.0415
aF26.0611
aF26.0415
aF26.0415
aF26.0415
aF26.0415
aF26.0415
aF26.0415
aF26.0415
aF26.0415
aF26.0415
aF26.0611
aF26.0415
aF26.0611
aF26.0415
aF26.0415
aF26.0415
aF26.0415
aF26.0415
aF26.0415
aF26.0415
aF26.0415
aF26.0415
aF26.0415
aF26.0415
aF26.022
aF26.0415
aF26.0611
aF26.0415
aF26.0415
aF26.0415
aF26.0415
aF26.0415
aF26.0415
aF26.0415
aF26.0415
aF26.0415
aF26.0415
aF26.0415
as(I48
S'put HB5-4-biasvoltage[1-64]_f 64*48.000000'
p217
tp218
(lp219
S'OK'
p220
as(I43
S'get HB5-4-biasmon[1-64]_f_rr'
p221
tp222
(lp223
F43.0183
aF43.0183
aF43.0183
aF43.0183
aF43.0183
aF43.0183
aF43.0183
aF43.0183
aF43.0183
aF43.0379
aF43.0379
aF43.0183
aF43.0183
aF43.0379
aF43.0183
aF43.0379
aF43.0183
aF43.0183
aF43.0183
aF43.0183
aF43.0183
aF43.0379
aF43.0379
aF43.0183
aF43.0379
aF43.0183
aF43.0379
aF43.0183
aF43.0183
aF43.0379
aF43.0379
aF43.0379
aF43.0183
aF43.0183
aF43.0183
aF43.0183
aF43.0379
aF43.0379
aF43.0379
aF43.0183
aF43.0183
aF43.0183
aF43.0183
aF43.0183
aF43.0379
aF43.0183
aF43.0183
aF43.0183
aF43.0183
aF43.0183
aF43.0183
aF43.0183
aF43.0379
aF43.0379
aF43.0379
aF43.0183
aF43.0183
aF42.9988
aF43.0183
aF43.0183
aF43.0379
aF43.0379
aF43.0183
aF43.0183
as(I50
S'get HB5-4-LeakageCurrent[1-64]_f_rr'
p224
tp225
(lp226
F10.98
aF10.248
aF10.248
aF10.004
aF12.444
aF12.2
aF10.736
aF7.808
aF15.372
aF13.42
aF11.712
aF16.104
aF10.004
aF10.492
aF13.664
aF7.564
aF10.98
aF8.784
aF15.372
aF9.028
aF5.612
aF12.688
aF8.052
aF10.004
aF12.444
aF12.932
aF9.272
aF10.248
aF9.516
aF11.712
aF9.272
aF7.808
aF10.98
aF13.908
aF12.932
aF7.076
aF11.956
aF4.88
aF11.712
aF9.028
aF6.832
aF8.296
aF6.344
aF13.664
aF3.172
aF12.444
aF10.98
aF13.42
aF12.444
aF10.248
aF9.272
aF9.516
aF11.224
aF12.932
aF11.224
aF11.712
aF13.664
aF10.736
aF9.516
aF10.736
aF9.76
aF10.736
aF17.568
aF7.564
as(I45
S'get HB5-4-LeakageCurrent[1-64]_f_rr'
p227
tp228
(lp229
F10.248
aF9.516
aF9.516
aF9.272
aF11.712
aF11.468
aF10.248
aF7.076
aF14.64
aF12.688
aF10.98
aF15.372
aF9.272
aF9.516
aF12.688
aF6.832
aF10.248
aF8.052
aF14.64
aF8.296
aF4.88
aF11.956
aF7.32
aF9.272
aF11.712
aF12.2
aF8.54
aF9.516
aF8.54
aF10.736
aF8.54
aF7.076
aF10.004
aF13.176
aF12.2
aF6.1
aF10.98
aF4.148
aF11.468
aF8.296
aF6.1
aF7.564
aF5.612
aF12.932
aF2.684
aF11.712
aF10.248
aF12.444
aF11.712
aF9.516
aF8.54
aF8.784
aF10.492
aF12.2
aF10.492
aF10.736
aF12.688
aF10.004
aF8.784
aF9.76
aF8.784
aF10.004
aF16.836
aF6.832
as(I54
S'get HB5-4-LeakageCurrent[1-64]_f_rr'
p230
tp231
(lp232
F11.712
aF10.736
aF10.736
aF10.736
aF12.932
aF12.932
aF11.712
aF8.54
aF16.104
aF13.908
aF12.444
aF16.836
aF10.736
aF10.98
aF14.152
aF8.052
aF11.712
aF9.272
aF15.86
aF9.76
aF6.1
aF13.176
aF8.54
aF10.736
aF13.176
aF13.664
aF9.76
aF10.736
aF10.004
aF12.2
aF9.76
aF8.54
aF11.712
aF14.64
aF13.664
aF7.564
aF12.444
aF5.612
aF12.688
aF9.76
aF7.564
aF8.784
aF7.076
aF14.396
aF3.904
aF13.176
aF11.712
aF14.152
aF13.176
aF10.98
aF10.004
aF10.248
aF11.956
aF13.664
aF11.956
aF12.2
aF14.152
aF11.468
aF10.248
aF11.224
aF10.248
aF11.224
aF18.3
aF8.296
as(I33
S'get HB5-4-LeakageCurrent[1-64]_f_rr'
p233
tp234
(lp235
F8.296
aF7.564
aF7.564
aF7.564
aF9.516
aF9.516
aF8.296
aF5.124
aF12.932
aF10.736
aF9.272
aF13.664
aF7.32
aF7.808
aF10.98
aF4.88
aF8.54
aF6.1
aF12.688
aF6.344
aF2.928
aF10.004
aF5.368
aF7.564
aF10.004
aF10.248
aF6.832
aF7.564
aF6.832
aF8.784
aF6.832
aF5.368
aF8.296
aF11.224
aF10.492
aF4.148
aF9.272
aF2.684
aF9.516
aF6.588
aF4.392
aF5.856
aF3.904
aF10.98
aF1.708
aF9.76
aF8.296
aF10.736
aF9.76
aF7.808
aF6.832
aF7.076
aF8.54
aF10.248
aF8.54
aF8.784
aF10.98
aF8.052
aF6.832
aF8.052
aF7.076
aF8.052
aF15.128
aF5.124
as(I33
S'get HB5-4-biasmon[1-64]_f_rr'
p236
tp237
(lp238
F33.0354
aF33.0354
aF33.0354
aF33.0354
aF33.0354
aF33.0354
aF33.0354
aF33.0354
aF33.0354
aF33.0354
aF33.0354
aF33.0354
aF33.0354
aF33.0354
aF33.0354
aF33.0354
aF33.0354
aF33.0354
aF33.0159
aF33.0354
aF33.0354
aF33.0354
aF33.0354
aF33.0354
aF33.0354
aF33.0354
aF33.0354
aF33.0354
aF33.0354
aF33.0354
aF33.0354
aF33.0354
aF33.0354
aF33.0159
aF33.0354
aF33.0354
aF33.0354
aF33.0549
aF33.0354
aF33.0354
aF33.0159
aF33.0354
aF33.0354
aF33.0354
aF33.0354
aF33.0354
aF33.0354
aF33.0354
aF33.0159
aF33.0354
aF33.0159
aF33.0354
aF33.0354
aF33.0354
aF33.0549
aF33.0354
aF33.0354
aF33.0159
aF33.0354
aF33.0354
aF33.0354
aF33.0354
aF33.0354
aF33.0354
as(I54
S'get HB5-4-biasmon[1-64]_f_rr'
p239
tp240
(lp241
F53.9976
aF54.0171
aF54.0171
aF54.0171
aF54.0171
aF54.0171
aF54.0171
aF53.9976
aF54.0171
aF54.0171
aF54.0171
aF53.9976
aF53.9976
aF54.0171
aF54.0171
aF54.0171
aF54.0171
aF53.9976
aF53.9976
aF53.9976
aF54.0171
aF54.0171
aF54.0171
aF54.0171
aF54.0171
aF53.9976
aF54.0171
aF54.0171
aF54.0171
aF54.0171
aF54.0171
aF54.0171
aF54.0171
aF53.9976
aF53.9976
aF54.0171
aF54.0171
aF54.0171
aF54.0366
aF54.0171
aF53.9976
aF53.9976
aF53.9976
aF54.0171
aF54.0171
aF53.9976
aF54.0171
aF53.9976
aF53.9976
aF54.0171
aF53.9976
aF54.0171
aF54.0171
aF54.0171
aF54.0171
aF54.0171
aF54.0171
aF53.9976
aF53.9976
aF54.0171
aF54.0171
aF54.0171
aF53.9976
aF54.0171
as(I53
S'get HB5-4-biasmon[1-64]_f_rr'
p242
tp243
(lp244
F53.0012
aF53.0208
aF53.0208
aF53.0208
aF53.0208
aF53.0208
aF53.0208
aF53.0208
aF53.0208
aF53.0208
aF53.0208
aF53.0208
aF53.0208
aF53.0403
aF53.0208
aF53.0403
aF53.0208
aF53.0012
aF53.0012
aF53.0208
aF53.0208
aF53.0403
aF53.0208
aF53.0208
aF53.0403
aF53.0012
aF53.0403
aF53.0208
aF53.0403
aF53.0208
aF53.0208
aF53.0208
aF53.0208
aF53.0012
aF53.0208
aF53.0208
aF53.0403
aF53.0403
aF53.0403
aF53.0208
aF53.0012
aF53.0012
aF53.0208
aF53.0208
aF53.0208
aF53.0208
aF53.0208
aF53.0208
aF53.0208
aF53.0208
aF53.0208
aF53.0208
aF53.0403
aF53.0208
aF53.0403
aF53.0403
aF53.0208
aF53.0208
aF53.0208
aF53.0208
aF53.0208
aF53.0208
aF53.0208
aF53.0208
as(I1
S'put HB5-4-biasvoltage[1-64]_f 64*1.000000'
p245
tp246
(lp247
S'OK'
p248
as(I2
S'get HB5-4-LeakageCurrent[1-64]_f_rr'
p249
tp250
(lp251
F3.416
aF2.928
aF2.684
aF2.928
aF5.124
aF4.636
aF3.66
aF1.708
aF8.052
aF5.856
aF4.636
aF9.028
aF2.44
aF2.928
aF6.588
aF1.952
aF3.904
aF2.196
aF8.052
aF2.196
aF1.708
aF5.124
aF1.952
aF2.684
aF5.612
aF5.612
aF2.684
aF2.684
aF2.196
aF4.148
aF2.44
aF1.952
aF3.904
aF6.832
aF5.856
aF1.952
aF4.148
aF1.952
aF5.124
aF2.196
aF1.708
aF2.196
aF1.708
aF6.1
aF1.708
aF5.124
aF3.416
aF5.856
aF4.636
aF3.172
aF2.196
aF2.684
aF3.66
aF5.612
aF4.148
aF3.904
aF6.1
aF3.172
aF2.196
aF3.416
aF2.684
aF3.172
aF10.004
aF1.952
as(I58
S'get HB5-4-biasmon[1-64]_f_rr'
p252
tp253
(lp254
F58.0024
aF58.022
aF58.022
aF58.022
aF58.022
aF58.0024
aF58.022
aF58.022
aF58.022
aF58.022
aF58.022
aF58.022
aF58.0024
aF58.022
aF58.022
aF58.0415
aF58.022
aF58.0024
aF58.0024
aF58.0024
aF58.022
aF58.022
aF58.022
aF58.022
aF58.022
aF58.022
aF58.0415
aF58.022
aF58.022
aF58.022
aF58.022
aF58.022
aF58.0024
aF58.0024
aF58.0024
aF58.022
aF58.022
aF58.0415
aF58.022
aF58.022
aF58.0024
aF58.0024
aF58.0024
aF58.022
aF58.022
aF58.0024
aF58.022
aF58.022
aF58.0024
aF58.022
aF58.0024
aF58.0024
aF58.022
aF58.022
aF58.022
aF58.022
aF58.022
aF58.0024
aF58.0024
aF58.0024
aF58.022
aF58.022
aF58.022
aF58.022
as(I4
S'put HB5-4-biasvoltage[1-64]_f 64*4.000000'
p255
tp256
(lp257
S'OK'
p258
as(I2
S'get HB5-4-biasmon[1-64]_f_rr'
p259
tp260
(lp261
F2.03175
aF2.05128
aF2.03175
aF2.03175
aF2.05128
aF2.03175
aF2.05128
aF2.05128
aF2.03175
aF2.03175
aF2.03175
aF2.05128
aF2.03175
aF2.03175
aF2.05128
aF2.05128
aF2.05128
aF2.05128
aF2.03175
aF2.03175
aF2.05128
aF2.05128
aF2.03175
aF2.05128
aF2.05128
aF2.05128
aF2.05128
aF2.05128
aF2.03175
aF2.03175
aF2.03175
aF2.05128
aF2.05128
aF2.03175
aF2.03175
aF2.03175
aF2.05128
aF2.05128
aF2.05128
aF2.05128
aF2.05128
aF2.05128
aF2.05128
aF2.05128
aF2.03175
aF2.05128
aF2.03175
aF2.03175
aF2.03175
aF2.03175
aF2.03175
aF2.03175
aF2.03175
aF2.05128
aF2.05128
aF2.05128
aF2.03175
aF2.05128
aF2.03175
aF2.05128
aF2.03175
aF2.03175
aF2.03175
aF2.05128
as(I37
S'put HB5-4-biasvoltage[1-64]_f 64*37.000000'
p262
tp263
(lp264
S'OK'
p265
as(I19
S'get HB5-4-biasmon[1-64]_f_rr'
p266
tp267
(lp268
F19.0476
aF19.0476
aF19.0476
aF19.0476
aF19.0476
aF19.0476
aF19.0672
aF19.0476
aF19.0476
aF19.0476
aF19.0476
aF19.0476
aF19.0476
aF19.0476
aF19.0672
aF19.0672
aF19.0476
aF19.0476
aF19.0476
aF19.0476
aF19.0672
aF19.0476
aF19.0476
aF19.0476
aF19.0476
aF19.0476
aF19.0476
aF19.0476
aF19.0476
aF19.0672
aF19.0476
aF19.0476
aF19.0476
aF19.0476
aF19.0476
aF19.0476
aF19.0672
aF19.0672
aF19.0672
aF19.0476
aF19.0476
aF19.0476
aF19.0476
aF19.0672
aF19.0476
aF19.0476
aF19.0476
aF19.0476
aF19.0476
aF19.0476
aF19.0476
aF19.0476
aF19.0476
aF19.0476
aF19.0672
aF19.0476
aF19.0476
aF19.0476
aF19.0476
aF19.0476
aF19.0476
aF19.0672
aF19.0476
aF19.0476
as(I36
S'get HB5-4-LeakageCurrent[1-64]_f_rr'
p269
tp270
(lp271
F8.784
aF8.052
aF8.052
aF7.808
aF10.004
aF10.004
aF8.784
aF5.856
aF13.42
aF11.224
aF9.516
aF14.152
aF7.808
aF8.296
aF11.468
aF5.368
aF8.784
aF6.588
aF13.176
aF7.076
aF3.416
aF10.492
aF5.856
aF7.808
aF10.492
aF10.736
aF7.32
aF8.052
aF7.32
aF9.516
aF7.076
aF5.856
aF8.784
aF11.712
aF10.736
aF4.636
aF9.516
aF2.928
aF10.004
aF6.832
aF4.636
aF6.1
aF4.148
aF11.468
aF1.952
aF10.248
aF8.784
aF11.224
aF10.248
aF8.052
aF7.076
aF7.564
aF9.028
aF10.736
aF9.028
aF9.272
aF11.468
aF8.784
aF7.564
aF8.54
aF7.564
aF8.54
aF15.372
aF5.612
as(I24
S'get HB5-4-biasmon[1-64]_f_rr'
p272
tp273
(lp274
F24.0098
aF24.0293
aF24.0293
aF24.0098
aF24.0293
aF24.0293
aF24.0293
aF24.0293
aF24.0293
aF24.0293
aF24.0293
aF24.0293
aF24.0098
aF24.0293
aF24.0293
aF24.0293
aF24.0293
aF24.0293
aF24.0098
aF24.0293
aF24.0293
aF24.0293
aF24.0293
aF24.0293
aF24.0293
aF24.0293
aF24.0293
aF24.0293
aF24.0293
aF24.0293
aF24.0293
aF24.0293
aF24.0293
aF24.0098
aF24.0293
aF24.0293
aF24.0293
aF24.0293
aF24.0293
aF24.0293
aF24.0293
aF24.0293
aF24.0293
aF24.0293
aF24.0293
aF24.0293
aF24.0293
aF24.0293
aF24.0293
aF24.0293
aF24.0098
aF24.0293
aF24.0293
aF24.0293
aF24.0488
aF24.0293
aF24.0293
aF24.0098
aF24.0293
aF24.0293
aF24.0293
aF24.0293
aF24.0098
aF24.0293
as(I31
S'get HB5-4-LeakageCurrent[1-64]_f_rr'
p275
tp276
(lp277
F8.052
aF7.32
aF7.32
aF7.32
aF9.516
aF9.272
aF7.808
aF4.88
aF12.444
aF10.492
aF8.784
aF13.42
aF7.076
aF7.564
aF10.736
aF4.636
aF8.052
aF5.856
aF12.444
aF6.1
aF2.928
aF9.516
aF5.124
aF7.076
aF9.76
aF10.004
aF6.588
aF7.32
aF6.344
aF8.54
aF6.344
aF4.88
aF8.052
aF10.98
aF10.004
aF4.148
aF8.784
aF2.44
aF9.272
aF6.1
aF3.904
aF5.368
aF3.66
aF10.492
aF1.708
aF9.516
aF8.052
aF10.492
aF9.516
aF7.564
aF6.344
aF6.832
aF8.296
aF10.004
aF8.296
aF8.54
aF10.736
aF7.808
aF6.588
aF7.808
aF6.832
aF7.808
aF14.64
aF4.88
as(I24
S'get HB5-4-LeakageCurrent[1-64]_f_rr'
p278
tp279
(lp280
F6.832
aF6.344
aF6.1
aF6.1
aF8.296
aF8.296
aF6.832
aF3.904
aF11.468
aF9.272
aF7.808
aF12.444
aF5.856
aF6.344
aF9.516
aF3.66
aF7.076
aF4.88
aF11.468
aF5.124
aF1.952
aF8.54
aF4.148
aF6.1
aF8.54
aF8.784
aF5.368
aF6.1
aF5.368
aF7.564
aF5.368
aF3.904
aF7.076
aF10.004
aF8.784
aF2.928
aF7.808
aF1.952
aF8.052
aF5.124
aF2.928
aF4.392
aF2.684
aF9.516
aF1.708
aF8.54
aF6.832
aF9.272
aF8.296
aF6.588
aF5.368
aF5.856
aF7.32
aF8.784
aF7.32
aF7.564
aF9.516
aF6.832
aF5.612
aF6.832
aF5.856
aF6.588
aF13.664
aF3.66
as(I19
S'get HB5-4-LeakageCurrent[1-64]_f_rr'
p281
tp282
(lp283
F6.1
aF5.612
aF5.368
aF5.368
aF7.564
aF7.564
aF6.1
aF3.172
aF10.736
aF8.54
aF7.076
aF11.712
aF5.124
aF5.612
aF8.784
aF2.928
aF6.1
aF4.148
aF10.736
aF4.392
aF1.708
aF7.808
aF3.416
aF5.368
aF7.808
aF8.052
aF4.636
aF5.368
aF4.392
aF6.832
aF4.636
aF3.172
aF6.344
aF9.272
aF8.052
aF2.44
aF7.076
aF1.952
aF7.564
aF4.148
aF2.44
aF3.66
aF2.196
aF8.54
aF1.708
aF7.808
aF6.1
aF8.54
aF7.564
aF5.612
aF4.392
aF5.124
aF6.588
aF8.052
aF6.588
aF6.832
aF8.784
aF6.1
aF4.636
aF6.1
aF4.88
aF5.856
aF12.932
aF3.172
as(I9
S'put HB5-4-biasvoltage[1-64]_f 64*9.000000'
p284
tp285
(lp286
S'OK'
p287
as(I38
S'get HB5-4-LeakageCurrent[1-64]_f_rr'
p288
tp289
(lp290
F9.028
aF8.54
aF8.296
aF8.296
aF10.492
aF10.492
aF9.028
aF5.856
aF13.664
aF11.712
aF10.004
aF14.396
aF8.052
aF8.54
aF11.712
aF5.612
aF9.028
aF6.832
aF13.42
aF7.32
aF3.66
aF10.736
aF6.1
aF8.052
aF10.736
aF11.224
aF7.564
aF8.296
aF7.564
aF9.516
aF7.564
aF6.1
aF9.028
aF12.2
aF10.98
aF5.124
aF10.004
aF3.172
aF10.248
aF7.32
aF5.124
aF6.344
aF4.636
aF11.712
aF1.952
aF10.492
aF9.028
aF11.712
aF10.492
aF8.54
aF7.564
aF7.808
aF9.516
aF10.98
aF9.516
aF9.516
aF11.712
aF8.784
aF7.564
aF8.784
aF7.808
aF8.784
aF15.616
aF5.856
as(I29
S'get HB5-4-biasmon[1-64]_f_rr'
p291
tp292
(lp293
F29.011
aF29.0305
aF29.0305
aF29.011
aF29.011
aF29.011
aF29.0305
aF29.0305
aF29.0305
aF29.0305
aF29.0305
aF29.0305
aF29.011
aF29.0305
aF29.0305
aF29.0305
aF29.0305
aF29.011
aF29.011
aF29.011
aF29.0305
aF29.0305
aF29.0305
aF29.0305
aF29.0305
aF29.0305
aF29.0305
aF29.0305
aF29.0305
aF29.0305
aF29.0305
aF29.0305
aF29.0305
aF29.011
aF29.011
aF29.0305
aF29.0305
aF29.0305
aF29.0305
aF29.0305
aF29.011
aF29.0305
aF29.011
aF29.0305
aF29.0305
aF29.0305
aF29.0305
aF29.0305
aF29.011
aF29.0305
aF29.011
aF29.011
aF29.0305
aF29.0305
aF29.0305
aF29.0305
aF29.0305
aF29.011
aF29.011
aF29.0305
aF29.0305
aF29.0305
aF29.011
aF29.0305
as(I17
S'get HB5-4-LeakageCurrent[1-64]_f_rr'
p294
tp295
(lp296
F5.856
aF5.368
aF4.88
aF4.88
aF7.076
aF7.076
aF5.856
aF2.928
aF10.492
aF8.052
aF6.832
aF11.224
aF4.88
aF5.368
aF8.54
aF2.684
aF5.856
aF3.904
aF10.248
aF3.904
aF1.708
aF7.564
aF3.172
aF4.88
aF7.564
aF7.808
aF4.392
aF4.88
aF4.148
aF6.588
aF4.148
aF2.928
aF6.1
aF8.784
aF7.808
aF2.44
aF6.832
aF1.952
aF7.32
aF3.904
aF2.196
aF3.416
aF1.952
aF8.296
aF1.708
aF7.564
aF5.856
aF8.052
aF7.32
aF5.368
aF4.148
aF4.636
aF6.1
aF7.564
aF6.1
aF6.344
aF8.54
aF5.856
aF4.636
aF5.856
aF4.636
aF5.612
aF12.444
aF2.928
as(I51
S'get HB5-4-biasmon[1-64]_f_rr'
p297
tp298
(lp299
F51.0281
aF51.0281
aF51.0281
aF51.0281
aF51.0281
aF51.0281
aF51.0281
aF51.0281
aF51.0281
aF51.0281
aF51.0281
aF51.0281
aF51.0281
aF51.0476
aF51.0281
aF51.0281
aF51.0281
aF51.0085
aF51.0281
aF51.0281
aF51.0281
aF51.0476
aF51.0281
aF51.0281
aF51.0281
aF51.0281
aF51.0476
aF51.0281
aF51.0281
aF51.0476
aF51.0476
aF51.0476
aF51.0281
aF51.0085
aF51.0281
aF51.0476
aF51.0476
aF51.0476
aF51.0476
aF51.0281
aF51.0281
aF51.0281
aF51.0281
aF51.0281
aF51.0476
aF51.0281
aF51.0281
aF51.0281
aF51.0281
aF51.0281
aF51.0085
aF51.0281
aF51.0281
aF51.0476
aF51.0476
aF51.0476
aF51.0281
aF51.0085
aF51.0281
aF51.0281
aF51.0281
aF51.0281
aF51.0281
aF51.0281
as(I56
S'get HB5-4-biasmon[1-64]_f_rr'
p300
tp301
(lp302
F56.0098
aF56.0098
aF56.0098
aF56.0098
aF56.0098
aF56.0098
aF56.0098
aF56.0098
aF56.0098
aF56.0098
aF56.0098
aF56.0098
aF56.0098
aF56.0293
aF56.0098
aF56.0293
aF56.0098
aF55.9902
aF56.0098
aF56.0098
aF56.0098
aF56.0293
aF56.0098
aF56.0098
aF56.0098
aF56.0098
aF56.0293
aF56.0098
aF56.0098
aF56.0098
aF56.0098
aF56.0098
aF56.0098
aF56.0098
aF56.0098
aF56.0098
aF56.0293
aF56.0293
aF56.0293
aF56.0098
aF55.9902
aF55.9902
aF56.0098
aF56.0098
aF56.0098
aF56.0098
aF56.0098
aF56.0098
aF56.0098
aF56.0098
aF55.9902
aF56.0098
aF56.0293
aF56.0098
aF56.0293
aF56.0098
aF56.0098
aF55.9902
aF56.0098
aF56.0098
aF56.0098
aF56.0293
aF56.0098
aF56.0098
as(I0
S'get HB5-4-biasmon[1-64]_f_rr'
p303
tp304
(lp305
F0.0586081
aF0.0586081
aF0.0586081
aF0.0586081
aF0.0586081
aF0.0586081
aF0.0586081
aF0.0586081
aF0.0586081
aF0.0586081
aF0.0586081
aF0.0586081
aF0.0586081
aF0.0586081
aF0.0586081
aF0.0586081
aF0.0586081
aF0.0586081
aF0.0586081
aF0.0586081
aF0.0586081
aF0.0586081
aF0.0586081
aF0.0586081
aF0.0586081
aF0.0586081
aF0.0586081
aF0.0586081
aF0.0586081
aF0.0586081
aF0.0586081
aF0.0586081
aF0.0586081
aF0.0586081
aF0.0586081
aF0.0586081
aF0.0586081
aF0.0586081
aF0.0586081
aF0.0586081
aF0.0586081
aF0.0586081
aF0.0586081
aF0.0586081
aF0.0586081
aF0.0586081
aF0.0586081
aF0.0586081
aF0.0586081
aF0.0586081
aF0.039072
aF0.0586081
aF0.0586081
aF0.0586081
aF0.0586081
aF0.0586081
aF0.0586081
aF0.0586081
aF0.0586081
aF0.0586081
aF0.0586081
aF0.0586081
aF0.0586081
aF0.0586081
as(I15
S'get HB5-4-biasmon[1-64]_f_rr'
p306
tp307
(lp308
F15.0427
aF15.0427
aF15.0427
aF15.0427
aF15.0427
aF15.0623
aF15.0623
aF15.0427
aF15.0623
aF15.0623
aF15.0623
aF15.0427
aF15.0623
aF15.0623
aF15.0623
aF15.0623
aF15.0623
aF15.0623
aF15.0427
aF15.0427
aF15.0623
aF15.0623
aF15.0623
aF15.0623
aF15.0623
aF15.0623
aF15.0623
aF15.0623
aF15.0427
aF15.0623
aF15.0427
aF15.0427
aF15.0623
aF15.0427
aF15.0623
aF15.0623
aF15.0623
aF15.0623
aF15.0623
aF15.0623
aF15.0427
aF15.0427
aF15.0623
aF15.0623
aF15.0623
aF15.0623
aF15.0623
aF15.0623
aF15.0427
aF15.0623
aF15.0427
aF15.0427
aF15.0623
aF15.0623
aF15.0623
aF15.0623
aF15.0623
aF15.0623
aF15.0623
aF15.0623
aF15.0623
aF15.0623
aF15.0427
aF15.0623
as(I20
S'get HB5-4-biasmon[1-64]_f_rr'
p309
tp310
(lp311
F20.044
aF20.044
aF20.044
aF20.044
aF20.044
aF20.044
aF20.0635
aF20.044
aF20.044
aF20.044
aF20.044
aF20.044
aF20.044
aF20.044
aF20.0635
aF20.044
aF20.044
aF20.044
aF20.044
aF20.044
aF20.044
aF20.044
aF20.044
aF20.044
aF20.0635
aF20.044
aF20.0635
aF20.0635
aF20.044
aF20.044
aF20.044
aF20.044
aF20.044
aF20.044
aF20.044
aF20.044
aF20.0635
aF20.0635
aF20.0635
aF20.0635
aF20.044
aF20.044
aF20.044
aF20.044
aF20.044
aF20.044
aF20.044
aF20.044
aF20.044
aF20.044
aF20.044
aF20.044
aF20.044
aF20.044
aF20.0635
aF20.0635
aF20.044
aF20.044
aF20.044
aF20.044
aF20.044
aF20.044
aF20.044
aF20.0635
as(I15
S'put HB5-4-biasvoltage[1-64]_f 64*15.000000'
p312
tp313
(lp314
S'OK'
p315
as(I8
S'get HB5-4-LeakageCurrent[1-64]_f_rr'
p316
tp317
(lp318
F4.636
aF4.148
aF3.904
aF3.66
aF5.856
aF5.856
aF4.392
aF2.196
aF9.028
aF6.588
aF5.612
aF10.004
aF3.416
aF4.148
aF7.076
aF2.196
aF4.636
aF2.928
aF9.272
aF2.684
aF1.708
aF5.856
aF1.952
aF3.416
aF6.344
aF6.588
aF3.172
aF3.66
aF2.684
aF5.368
aF2.928
aF2.196
aF4.636
aF7.564
aF6.588
aF1.952
aF5.124
aF1.952
aF6.1
aF2.684
aF1.952
aF2.44
aF1.708
aF7.076
aF1.708
aF6.1
aF4.636
aF6.588
aF5.612
aF4.148
aF2.684
aF3.66
aF4.88
aF6.588
aF4.636
aF4.88
aF7.32
aF4.148
aF3.172
aF4.636
aF3.416
aF4.148
aF11.224
aF1.952
as(I3
S'get HB5-4-LeakageCurrent[1-64]_f_rr'
p319
tp320
(lp321
F3.416
aF2.928
aF2.684
aF2.928
aF5.368
aF4.88
aF4.148
aF1.952
aF8.052
aF6.1
aF4.636
aF9.272
aF2.928
aF3.66
aF6.588
aF1.952
aF4.148
aF2.196
aF8.296
aF2.196
aF1.708
aF5.124
aF1.708
aF3.172
aF5.368
aF5.612
aF2.44
aF2.928
aF2.196
aF4.148
aF2.196
aF1.952
aF3.66
aF6.588
aF5.612
aF1.952
aF4.636
aF1.952
aF5.612
aF2.196
aF1.708
aF2.196
aF1.708
aF6.1
aF1.708
aF5.124
aF3.416
aF5.856
aF4.636
aF3.172
aF2.196
aF2.928
aF4.148
aF5.612
aF4.392
aF4.148
aF6.344
aF3.416
aF2.684
aF3.66
aF2.684
aF3.172
aF10.004
aF1.952
as(I42
S'get HB5-4-biasmon[1-64]_f_rr'
p322
tp323
(lp324
F42.022
aF42.0415
aF42.022
aF42.022
aF42.022
aF42.022
aF42.022
aF42.022
aF42.0415
aF42.0415
aF42.0415
aF42.022
aF42.022
aF42.0415
aF42.0415
aF42.0415
aF42.022
aF42.022
aF42.022
aF42.022
aF42.0415
aF42.0415
aF42.0415
aF42.022
aF42.0415
aF42.022
aF42.0415
aF42.022
aF42.0415
aF42.0415
aF42.022
aF42.0415
aF42.022
aF42.022
aF42.022
aF42.022
aF42.0415
aF42.0415
aF42.0415
aF42.022
aF42.022
aF42.022
aF42.022
aF42.0415
aF42.0415
aF42.022
aF42.022
aF42.022
aF42.022
aF42.022
aF42.022
aF42.022
aF42.0415
aF42.022
aF42.0415
aF42.0415
aF42.022
aF42.022
aF42.022
aF42.022
aF42.0415
aF42.0415
aF42.022
aF42.0415
as(I16
S'put HB5-4-biasvoltage[1-64]_f 64*16.000000'
p325
tp326
(lp327
S'OK'
p328
as(I57
S'get HB5-4-LeakageCurrent[1-64]_f_rr'
p329
tp330
(lp331
F12.2
aF11.468
aF11.224
aF11.224
aF13.42
aF13.42
aF11.956
aF8.784
aF16.592
aF14.64
aF12.932
aF17.324
aF11.224
aF11.468
aF14.64
aF8.54
aF12.2
aF9.76
aF16.348
aF10.248
aF6.832
aF13.664
aF9.028
aF11.224
aF13.664
aF14.152
aF10.492
aF11.468
aF10.492
aF12.688
aF10.492
aF8.784
aF11.956
aF14.884
aF14.152
aF8.052
aF12.932
aF6.1
aF13.176
aF10.248
aF8.052
aF9.272
aF7.564
aF14.64
aF4.148
aF13.664
aF11.956
aF14.64
aF13.664
aF11.468
aF10.492
aF10.736
aF12.444
aF13.908
aF12.444
aF12.688
aF14.64
aF11.956
aF10.736
aF11.712
aF10.736
aF11.712
aF18.544
aF8.54
as(I27
S'get HB5-4-biasmon[1-64]_f_rr'
p332
tp333
(lp334
F27.0183
aF27.0379
aF27.0183
aF27.0379
aF27.0379
aF27.0379
aF27.0379
aF27.0379
aF27.0379
aF27.0379
aF27.0379
aF27.0379
aF27.0183
aF27.0379
aF27.0379
aF27.0379
aF27.0379
aF27.0379
aF27.0183
aF27.0183
aF27.0379
aF27.0379
aF27.0379
aF27.0379
aF27.0379
aF27.0183
aF27.0379
aF27.0379
aF27.0379
aF27.0379
aF27.0379
aF27.0379
aF27.0379
aF27.0183
aF27.0379
aF27.0379
aF27.0379
aF27.0379
aF27.0379
aF27.0379
aF27.0183
aF27.0379
aF27.0379
aF27.0379
aF27.0379
aF27.0379
aF27.0379
aF27.0379
aF27.0379
aF27.0379
aF27.0183
aF27.0379
aF27.0379
aF27.0379
aF27.0379
aF27.0379
aF27.0379
aF27.0183
aF27.0379
aF27.0379
aF27.0379
aF27.0379
aF27.0183
aF27.0379
as(I38
S'put HB5-4-biasvoltage[1-64]_f 64*38.000000'
p335
tp336
(lp337
S'OK'
p338
as(I26
S'get HB5-4-LeakageCurrent[1-64]_f_rr'
p339
tp340
(lp341
F7.32
aF6.588
aF6.344
aF6.344
aF8.54
aF8.54
aF7.32
aF4.148
aF11.712
aF9.516
aF8.052
aF12.688
aF6.1
aF6.832
aF10.004
aF3.904
aF7.32
aF5.124
aF11.712
aF5.368
aF2.196
aF8.784
aF4.392
aF6.344
aF8.784
aF9.272
aF5.856
aF6.344
aF5.612
aF7.808
aF5.612
aF4.148
aF7.32
aF10.248
aF9.272
aF3.416
aF8.052
aF1.952
aF8.54
aF5.368
aF3.172
aF4.636
aF2.928
aF9.76
aF1.708
aF8.784
aF7.32
aF9.516
aF8.784
aF6.588
aF5.612
aF6.1
aF7.564
aF9.272
aF7.564
aF7.564
aF9.76
aF7.076
aF5.856
aF7.076
aF6.1
aF6.832
aF13.908
aF4.148
as(I21
S'get HB5-4-LeakageCurrent[1-64]_f_rr'
p342
tp343
(lp344
F6.588
aF5.856
aF5.612
aF5.612
aF7.808
aF7.808
aF6.588
aF3.416
aF10.98
aF8.784
aF7.32
aF11.956
aF5.368
aF5.856
aF9.272
aF3.172
aF6.588
aF4.392
aF10.98
aF4.636
aF1.952
aF8.052
aF3.66
aF5.612
aF8.296
aF8.296
aF4.88
aF5.612
aF4.636
aF7.076
aF4.88
aF3.416
aF6.588
aF9.516
aF8.54
aF2.684
aF7.32
aF1.952
aF7.808
aF4.636
aF2.684
aF3.904
aF2.196
aF9.028
aF1.708
aF8.052
aF6.588
aF8.784
aF7.808
aF5.856
aF4.636
aF5.368
aF6.832
aF8.296
aF6.832
aF7.076
aF9.028
aF6.344
aF5.124
aF6.344
aF5.368
aF6.1
aF13.176
aF3.416
as(I21
S'put HB5-4-biasvoltage[1-64]_f 64*21.000000'
p345
tp346
(lp347
S'OK'
p348
as(I56
S'put HB5-4-biasvoltage[1-64]_f 64*56.000000'
p349
tp350
(lp351
S'OK'
p352
as(I60
S'get HB5-4-LeakageCurrent[1-64]_f_rr'
p353
tp354
(lp355
F12.688
aF11.956
aF11.712
aF11.712
aF13.908
aF13.908
aF12.444
aF9.272
aF17.08
aF15.128
aF13.42
aF17.568
aF11.712
aF11.956
aF15.128
aF8.784
aF12.444
aF10.492
aF16.836
aF10.736
aF7.076
aF14.152
aF9.516
aF11.712
aF13.908
aF14.396
aF10.736
aF11.712
aF10.98
aF13.42
aF10.736
aF9.516
aF12.444
aF15.372
aF14.396
aF8.54
aF13.42
aF6.588
aF13.42
aF10.736
aF8.54
aF9.516
aF7.808
aF15.372
aF4.636
aF13.908
aF12.444
aF15.128
aF13.908
aF11.712
aF10.98
aF11.224
aF12.932
aF14.396
aF12.932
aF13.176
aF15.128
aF12.444
aF11.224
aF12.2
aF11.224
aF12.2
aF19.276
aF9.272
as(I55
S'get HB5-4-LeakageCurrent[1-64]_f_rr'
p356
tp357
(lp358
F11.956
aF10.98
aF10.98
aF10.98
aF13.176
aF13.176
aF11.712
aF8.54
aF16.348
aF14.152
aF12.688
aF16.836
aF10.736
aF11.224
aF14.396
aF8.052
aF11.712
aF9.516
aF16.104
aF9.76
aF6.344
aF13.42
aF8.54
aF10.98
aF13.42
aF13.664
aF10.004
aF10.98
aF10.248
aF12.444
aF10.004
aF8.54
aF11.712
aF14.64
aF13.664
aF7.564
aF12.688
aF5.856
aF12.932
aF9.76
aF7.564
aF9.028
aF7.076
aF14.396
aF3.904
aF13.42
aF11.712
aF14.152
aF13.42
aF11.224
aF10.004
aF10.492
aF11.956
aF13.664
aF11.956
aF12.444
aF14.396
aF11.712
aF10.492
aF11.468
aF10.492
aF11.468
aF18.3
aF8.54
as(I38
S'get HB5-4-biasmon[1-64]_f_rr'
p359
tp360
(lp361
F38.0171
aF38.0366
aF38.0171
aF38.0171
aF38.0366
aF38.0366
aF38.0366
aF38.0366
aF38.0366
aF38.0366
aF38.0366
aF38.0366
aF38.0171
aF38.0366
aF38.0366
aF38.0366
aF38.0366
aF38.0171
aF38.0171
aF38.0171
aF38.0366
aF38.0366
aF38.0366
aF38.0366
aF38.0366
aF38.0366
aF38.0366
aF38.0366
aF38.0366
aF38.0366
aF38.0366
aF38.0366
aF38.0366
aF38.0171
aF38.0366
aF38.0366
aF38.0366
aF38.0366
aF38.0366
aF38.0366
aF38.0171
aF38.0366
aF38.0366
aF38.0366
aF38.0366
aF38.0171
aF38.0366
aF38.0366
aF38.0366
aF38.0366
aF38.0171
aF38.0366
aF38.0366
aF38.0366
aF38.0366
aF38.0366
aF38.0366
aF38.0171
aF38.0171
aF38.0366
aF38.0366
aF38.0366
aF38.0366
aF38.0366
as(I40
S'get HB5-4-LeakageCurrent[1-64]_f_rr'
p362
tp363
(lp364
F9.516
aF8.784
aF8.54
aF8.54
aF10.736
aF10.736
aF9.516
aF6.344
aF13.908
aF11.956
aF10.248
aF14.64
aF8.54
aF8.784
aF11.956
aF5.856
aF9.516
aF7.32
aF13.908
aF7.564
aF4.148
aF10.98
aF6.588
aF8.54
aF11.224
aF11.468
aF7.808
aF8.54
aF7.808
aF10.004
aF7.564
aF6.344
aF9.516
aF12.444
aF11.468
aF5.368
aF10.248
aF3.416
aF10.736
aF7.564
aF5.368
aF6.832
aF4.88
aF11.956
aF2.196
aF10.98
aF9.516
aF11.956
aF10.98
aF8.54
aF7.808
aF8.052
aF9.76
aF11.468
aF9.76
aF10.004
aF11.956
aF9.028
aF8.052
aF9.272
aF8.052
aF9.028
aF16.104
aF6.1
as(I0
S'put HB5-4-biasvoltage[1-64]_f 64*0.000000'
p365
tp366
(lp367
S'OK'
p368
as(I11
S'get HB5-4-biasmon[1-64]_f_rr'
p369
tp370
(lp371
F11.0574
aF11.0574
aF11.0379
aF11.0574
aF11.0574
aF11.0379
aF11.0574
aF11.0574
aF11.0574
aF11.0574
aF11.0574
aF11.0574
aF11.0379
aF11.0574
aF11.0574
aF11.0574
aF11.0574
aF11.0379
aF11.0379
aF11.0379
aF11.0574
aF11.0574
aF11.0574
aF11.0574
aF11.0574
aF11.0574
aF11.0574
aF11.0574
aF11.0574
aF11.0574
aF11.0574
aF11.0574
aF11.0574
aF11.0379
aF11.0574
aF11.0574
aF11.0574
aF11.0574
aF11.0574
aF11.0574
aF11.0574
aF11.0574
aF11.0574
aF11.0574
aF11.0574
aF11.0574
aF11.0574
aF11.0574
aF11.0574
aF11.0574
aF11.0379
aF11.0379
aF11.0574
aF11.0574
aF11.0574
aF11.0574
aF11.0574
aF11.0574
aF11.0379
aF11.0574
aF11.0574
aF11.0574
aF11.0379
aF11.0574
as(I41
S'get HB5-4-LeakageCurrent[1-64]_f_rr'
p372
tp373
(lp374
F9.516
aF9.028
aF8.784
aF8.784
aF10.98
aF10.736
aF9.516
aF6.344
aF14.152
aF11.956
aF10.492
aF14.884
aF8.54
aF9.028
aF12.2
aF6.1
aF9.516
aF7.564
aF13.908
aF7.564
aF4.148
aF11.224
aF6.832
aF8.54
aF11.224
aF11.712
aF8.052
aF8.784
aF8.052
aF10.248
aF7.808
aF6.588
aF9.516
aF12.444
aF11.468
aF5.612
aF10.492
aF3.66
aF10.736
aF7.564
aF5.612
aF6.832
aF5.124
aF12.2
aF2.196
aF11.224
aF9.516
aF11.956
aF11.224
aF9.028
aF7.808
aF8.296
aF9.76
aF11.712
aF10.004
aF10.004
aF12.2
aF9.516
aF8.052
aF9.272
aF8.296
aF9.272
aF16.348
aF6.344
as(I29
S'put HB5-4-biasvoltage[1-64]_f 64*29.000000'
p375
tp376
(lp377
S'OK'
p378
as(I35
S'get HB5-4-LeakageCurrent[1-64]_f_rr'
p379
tp380
(lp381
F8.54
aF8.052
aF7.808
aF7.808
aF10.004
aF10.004
aF8.54
aF5.612
aF13.176
aF10.98
aF9.516
aF13.908
aF7.564
aF8.052
aF11.224
aF5.124
aF8.54
aF6.588
aF12.932
aF6.832
aF3.416
aF10.248
aF5.856
aF7.564
aF10.248
aF10.736
aF7.076
aF7.808
aF7.076
aF9.272
aF7.076
aF5.612
aF8.54
aF11.712
aF10.736
aF4.636
aF9.516
aF2.684
aF9.76
aF6.832
aF4.636
aF6.1
aF4.148
aF11.224
aF1.952
aF10.248
aF8.54
aF10.98
aF10.004
aF8.052
aF7.076
aF7.564
aF8.784
aF10.492
aF9.028
aF9.028
aF11.224
aF8.54
aF7.32
aF8.296
aF7.32
aF8.296
aF15.372
aF5.368
as(I33
S'put HB5-4-biasvoltage[1-64]_f 64*33.000000'
p382
tp383
(lp384
S'OK'
p385
as(I10
S'get HB5-4-LeakageCurrent[1-64]_f_rr'
p386
tp387
(lp388
F4.636
aF4.392
aF3.904
aF3.904
aF6.1
aF6.1
aF4.636
aF2.196
aF9.272
aF7.076
aF5.856
aF10.492
aF3.66
aF4.392
aF7.564
aF2.196
aF4.88
aF2.928
aF9.272
aF2.928
aF1.708
aF6.344
aF2.44
aF3.904
aF6.588
aF6.832
aF3.66
aF3.904
aF2.928
aF5.368
aF3.172
aF2.196
aF4.88
aF7.808
aF6.832
aF2.196
aF5.612
aF1.952
aF6.1
aF3.172
aF1.708
aF2.684
aF1.708
aF7.076
aF1.708
aF6.344
aF4.636
aF7.076
aF6.1
aF4.636
aF2.928
aF3.904
aF5.124
aF6.832
aF4.88
aF5.124
aF7.564
aF4.636
aF3.416
aF4.636
aF3.416
aF4.636
aF11.468
aF2.196
as(I49
S'get HB5-4-biasmon[1-64]_f_rr'
p389
tp390
(lp391
F48.9963
aF49.0159
aF49.0159
aF49.0159
aF49.0159
aF49.0159
aF49.0159
aF49.0159
aF49.0159
aF49.0159
aF49.0159
aF49.0159
aF48.9963
aF49.0159
aF49.0159
aF49.0159
aF49.0159
aF48.9963
aF49.0159
aF48.9963
aF49.0159
aF49.0159
aF49.0159
aF49.0159
aF49.0159
aF49.0159
aF49.0354
aF49.0159
aF49.0159
aF49.0159
aF49.0159
aF49.0159
aF49.0159
aF48.9963
aF49.0159
aF49.0159
aF49.0159
aF49.0159
aF49.0354
aF49.0159
aF48.9963
aF48.9963
aF48.9963
aF49.0159
aF49.0159
aF49.0159
aF49.0159
aF49.0159
aF49.0159
aF49.0159
aF48.9963
aF49.0159
aF49.0159
aF49.0159
aF49.0159
aF49.0159
aF49.0159
aF48.9963
aF48.9963
aF48.9963
aF49.0159
aF49.0159
aF49.0159
aF49.0159
as(I27
S'put HB5-4-biasvoltage[1-64]_f 64*27.000000'
p392
tp393
(lp394
S'OK'
p395
as(I14
S'get HB5-4-LeakageCurrent[1-64]_f_rr'
p396
tp397
(lp398
F5.368
aF4.88
aF4.636
aF4.636
aF6.832
aF6.832
aF5.368
aF2.684
aF10.004
aF7.564
aF6.344
aF10.736
aF4.392
aF4.88
aF8.052
aF2.44
aF5.612
aF3.416
aF9.76
aF3.416
aF1.708
aF7.076
aF2.684
aF4.392
aF7.076
aF7.32
aF4.148
aF4.636
aF3.66
aF5.856
aF3.66
aF2.684
aF5.612
aF8.54
aF7.564
aF2.196
aF6.344
aF1.952
aF6.832
aF3.66
aF1.952
aF2.928
aF1.708
aF7.564
aF1.708
aF7.076
aF5.368
aF7.564
aF6.832
aF4.88
aF3.66
aF4.392
aF5.612
aF7.32
aF5.612
aF5.856
aF8.052
aF5.368
aF3.904
aF5.368
aF4.148
aF5.124
aF11.956
aF2.44
as(I3
S'put HB5-4-biasvoltage[1-64]_f 64*3.000000'
p399
tp400
(lp401
S'OK'
p402
as(I14
S'get HB5-4-biasmon[1-64]_f_rr'
p403
tp404
(lp405
F14.0464
aF14.0464
aF14.0464
aF14.0464
aF14.0464
aF14.0464
aF14.0659
aF14.0464
aF14.0464
aF14.0464
aF14.0464
aF14.0464
aF14.0464
aF14.0464
aF14.0659
aF14.0659
aF14.0464
aF14.0464
aF14.0464
aF14.0464
aF14.0464
aF14.0464
aF14.0464
aF14.0464
aF14.0464
aF14.0464
aF14.0464
aF14.0464
aF14.0464
aF14.0464
aF14.0464
aF14.0464
aF14.0464
aF14.0464
aF14.0464
aF14.0464
aF14.0464
aF14.0464
aF14.0659
aF14.0659
aF14.0464
aF14.0464
aF14.0464
aF14.0464
aF14.0659
aF14.0464
aF14.0464
aF14.0464
aF14.0464
aF14.0464
aF14.0464
aF14.0464
aF14.0464
aF14.0464
aF14.0659
aF14.0464
aF14.0464
aF14.0464
aF14.0464
aF14.0464
aF14.0464
aF14.0464
aF14.0464
aF14.0659
as(I13
S'get HB5-4-biasmon[1-64]_f_rr'
p406
tp407
(lp408
F13.0305
aF13.0305
aF13.0305
aF13.0305
aF13.0305
aF13.0305
aF13.0501
aF13.0305
aF13.0501
aF13.0501
aF13.0305
aF13.0501
aF13.0305
aF13.0501
aF13.0501
aF13.0501
aF13.0501
aF13.0501
aF13.0305
aF13.0305
aF13.0501
aF13.0501
aF13.0501
aF13.0305
aF13.0501
aF13.0305
aF13.0501
aF13.0501
aF13.0305
aF13.0305
aF13.0305
aF13.0501
aF13.0501
aF13.0305
aF13.0305
aF13.0305
aF13.0501
aF13.0501
aF13.0501
aF13.0501
aF13.0305
aF13.0501
aF13.0501
aF13.0501
aF13.0305
aF13.0305
aF13.0305
aF13.0501
aF13.0305
aF13.0305
aF13.0305
aF13.0305
aF13.0501
aF13.0501
aF13.0501
aF13.0501
aF13.0305
aF13.0501
aF13.0305
aF13.0501
aF13.0501
aF13.0305
aF13.0305
aF13.0501
as(I18
S'get HB5-4-biasmon[1-64]_f_rr'
p409
tp410
(lp411
F18.0317
aF18.0317
aF18.0317
aF18.0317
aF18.0317
aF18.0317
aF18.0513
aF18.0317
aF18.0317
aF18.0513
aF18.0513
aF18.0317
aF18.0317
aF18.0317
aF18.0513
aF18.0513
aF18.0317
aF18.0317
aF18.0317
aF18.0317
aF18.0513
aF18.0513
aF18.0317
aF18.0513
aF18.0513
aF18.0513
aF18.0513
aF18.0513
aF18.0317
aF18.0317
aF18.0317
aF18.0513
aF18.0317
aF18.0317
aF18.0317
aF18.0317
aF18.0317
aF18.0513
aF18.0513
aF18.0513
aF18.0317
aF18.0513
aF18.0513
aF18.0513
aF18.0513
aF18.0513
aF18.0317
aF18.0317
aF18.0317
aF18.0317
aF18.0317
aF18.0317
aF18.0513
aF18.0317
aF18.0513
aF18.0513
aF18.0317
aF18.0317
aF18.0317
aF18.0513
aF18.0317
aF18.0513
aF18.0317
aF18.0317
as(I32
S'get HB5-4-LeakageCurrent[1-64]_f_rr'
p412
tp413
(lp414
F8.052
aF7.564
aF7.32
aF7.32
aF9.516
aF9.516
aF8.052
aF5.124
aF12.688
aF10.492
aF9.028
aF13.42
aF7.32
aF7.564
aF10.736
aF4.88
aF8.052
aF6.1
aF12.444
aF6.344
aF2.928
aF9.76
aF5.368
aF7.32
aF9.76
aF10.004
aF6.588
aF7.32
aF6.588
aF8.784
aF6.588
aF5.124
aF8.052
aF11.224
aF10.248
aF4.148
aF9.028
aF2.44
aF9.272
aF6.344
aF4.148
aF5.856
aF3.66
aF10.736
aF1.708
aF9.76
aF8.052
aF10.492
aF9.76
aF7.564
aF6.588
aF7.076
aF8.54
aF10.004
aF8.54
aF8.54
aF10.736
aF8.052
aF6.832
aF7.808
aF6.832
aF7.808
aF14.884
aF4.88
as(I27
S'get HB5-4-LeakageCurrent[1-64]_f_rr'
p415
tp416
(lp417
F7.564
aF6.832
aF6.588
aF6.588
aF8.54
aF8.54
aF7.32
aF4.392
aF11.956
aF9.76
aF8.296
aF12.688
aF6.344
aF6.832
aF10.004
aF4.148
aF7.564
aF5.368
aF11.712
aF5.612
aF2.196
aF9.028
aF4.636
aF6.588
aF9.028
aF9.272
aF5.856
aF6.588
aF5.856
aF8.052
aF5.856
aF4.392
aF7.564
aF10.492
aF9.272
aF3.416
aF8.296
aF1.952
aF8.54
aF5.612
aF3.416
aF4.88
aF3.172
aF10.004
aF1.708
aF9.028
aF7.32
aF9.76
aF8.784
aF6.832
aF5.856
aF6.1
aF7.564
aF9.272
aF7.564
aF7.808
aF10.004
aF7.32
aF6.1
aF7.32
aF6.1
aF7.076
aF13.908
aF4.148
as(I59
S'put HB5-4-biasvoltage[1-64]_f 64*59.000000'
p418
tp419
(lp420
S'OK'
p421
as(I36
S'put HB5-4-biasvoltage[1-64]_f 64*36.000000'
p422
tp423
(lp424
S'OK'
p425
as(I25
S'put HB5-4-biasvoltage[1-64]_f 64*25.000000'
p426
tp427
(lp428
S'OK'
p429
as(I25
S'get HB5-4-biasmon[1-64]_f_rr'
p430
tp431
(lp432
F25.0452
aF25.0452
aF25.0452
aF25.0452
aF25.0452
aF25.0452
aF25.0647
aF25.0452
aF25.0452
aF25.0452
aF25.0452
aF25.0452
aF25.0452
aF25.0452
aF25.0647
aF25.0647
aF25.0452
aF25.0452
aF25.0452
aF25.0452
aF25.0452
aF25.0452
aF25.0452
aF25.0452
aF25.0647
aF25.0452
aF25.0647
aF25.0452
aF25.0452
aF25.0647
aF25.0452
aF25.0452
aF25.0452
aF25.0256
aF25.0452
aF25.0452
aF25.0647
aF25.0647
aF25.0647
aF25.0452
aF25.0452
aF25.0452
aF25.0452
aF25.0452
aF25.0647
aF25.0452
aF25.0452
aF25.0452
aF25.0452
aF25.0452
aF25.0452
aF25.0256
aF25.0452
aF25.0452
aF25.0647
aF25.0452
aF25.0452
aF25.0452
aF25.0452
aF25.0452
aF25.0452
aF25.0647
aF25.0452
aF25.0452
as(I54
S'put HB5-4-biasvoltage[1-64]_f 64*54.000000'
p433
tp434
(lp435
S'OK'
p436
as(I45
S'get HB5-4-biasmon[1-64]_f_rr'
p437
tp438
(lp439
F44.9915
aF45.011
aF44.9915
aF44.9915
aF45.011
aF44.9915
aF45.0305
aF44.9915
aF45.011
aF45.0305
aF45.011
aF44.9915
aF44.9915
aF45.0305
aF45.0305
aF45.0305
aF45.011
aF44.9915
aF44.9915
aF45.011
aF45.011
aF45.011
aF45.0305
aF45.011
aF45.011
aF44.9915
aF45.0305
aF45.011
aF45.011
aF45.0305
aF45.0305
aF45.0305
aF44.9915
aF44.9915
aF44.9915
aF45.011
aF45.0305
aF45.0305
aF45.0305
aF45.011
aF44.9915
aF44.9915
aF45.011
aF45.011
aF45.0305
aF45.011
aF44.9915
aF44.9915
aF44.9915
aF45.011
aF44.9915
aF45.011
aF45.0305
aF45.0305
aF45.0305
aF45.011
aF45.011
aF44.9915
aF44.9915
aF45.011
aF45.011
aF45.0305
aF44.9915
aF45.011
as(I58
S'get HB5-4-LeakageCurrent[1-64]_f_rr'
p440
tp441
(lp442
F12.444
aF11.712
aF11.468
aF11.468
aF13.664
aF13.664
aF12.2
aF9.028
aF16.592
aF14.64
aF13.176
aF17.324
aF11.224
aF11.712
aF14.64
aF8.54
aF12.444
aF10.004
aF16.348
aF10.248
aF6.832
aF13.908
aF9.272
aF11.468
aF13.908
aF14.152
aF10.492
aF11.712
aF10.736
aF12.688
aF10.492
aF9.028
aF12.2
aF15.128
aF13.908
aF8.052
aF13.176
aF6.1
aF13.42
aF10.248
aF8.052
aF9.516
aF7.564
aF14.884
aF4.392
aF13.664
aF12.444
aF14.64
aF13.664
aF11.468
aF10.736
aF10.98
aF12.688
aF14.152
aF12.444
aF12.688
aF14.884
aF11.956
aF10.736
aF11.956
aF10.98
aF11.956
aF19.032
aF8.784
as(I50
S'get HB5-4-biasmon[1-64]_f_rr'
p443
tp444
(lp445
F49.9927
aF49.9927
aF49.9927
aF49.9927
aF49.9927
aF49.9927
aF49.9927
aF49.9927
aF49.9927
aF50.0317
aF50.0317
aF49.9927
aF49.9927
aF50.0122
aF50.0122
aF50.0317
aF50.0122
aF49.9927
aF49.9927
aF49.9927
aF49.9927
aF50.0317
aF50.0122
aF50.0317
aF50.0317
aF49.9927
aF50.0317
aF50.0122
aF50.0317
aF50.0317
aF50.0317
aF50.0317
aF49.9927
aF49.9927
aF49.9927
aF50.0317
aF50.0317
aF50.0317
aF50.0317
aF50.0122
aF49.9927
aF49.9927
aF49.9927
aF49.9927
aF50.0317
aF49.9927
aF50.0122
aF49.9927
aF49.9927
aF49.9927
aF49.9927
aF49.9927
aF50.0317
aF49.9927
aF50.0317
aF50.0317
aF49.9927
aF49.9927
aF49.9927
aF49.9927
aF50.0317
aF50.0317
aF49.9927
aF49.9927
as(I35
S'put HB5-4-biasvoltage[1-64]_f 64*35.000000'
p446
tp447
(lp448
S'OK'
p449
as(I30
S'put HB5-4-biasvoltage[1-64]_f 64*30.000000'
p450
tp451
(lp452
S'OK'
p453
as(I12
S'put HB5-4-biasvoltage[1-64]_f 64*12.000000'
p454
tp455
(lp456
S'OK'
p457
as(I16
S'get HB5-4-biasmon[1-64]_f_rr'
p458
tp459
(lp460
F16.0391
aF16.0586
aF16.0391
aF16.0391
aF16.0586
aF16.0391
aF16.0586
aF16.0391
aF16.0586
aF16.0586
aF16.0586
aF16.0586
aF16.0391
aF16.0586
aF16.0586
aF16.0391
aF16.0391
aF16.0586
aF16.0391
aF16.0391
aF16.0586
aF16.0586
aF16.0586
aF16.0586
aF16.0586
aF16.0586
aF16.0586
aF16.0586
aF16.0586
aF16.0391
aF16.0391
aF16.0586
aF16.0586
aF16.0391
aF16.0391
aF16.0391
aF16.0586
aF16.0586
aF16.0586
aF16.0586
aF16.0391
aF16.0391
aF16.0586
aF16.0586
aF16.0586
aF16.0391
aF16.0586
aF16.0586
aF16.0391
aF16.0586
aF16.0391
aF16.0391
aF16.0586
aF16.0586
aF16.0586
aF16.0586
aF16.0391
aF16.0391
aF16.0391
aF16.0586
aF16.0586
aF16.0586
aF16.0391
aF16.0586
as(I57
S'put HB5-4-biasvoltage[1-64]_f 64*57.000000'
p461
tp462
(lp463
S'OK'
p464
as(I16
S'get HB5-4-LeakageCurrent[1-64]_f_rr'
p465
tp466
(lp467
F5.612
aF4.88
aF4.88
aF4.88
aF7.076
aF7.076
aF5.612
aF2.928
aF10.248
aF8.052
aF6.588
aF11.224
aF4.636
aF5.368
aF8.54
aF2.684
aF5.856
aF3.66
aF10.004
aF3.904
aF1.708
aF7.32
aF2.928
aF4.636
aF7.564
aF7.564
aF4.148
aF4.88
aF3.904
aF6.344
aF4.148
aF2.928
aF5.856
aF8.784
aF7.564
aF2.196
aF6.588
aF1.952
aF7.076
aF3.904
aF2.196
aF3.416
aF1.952
aF8.052
aF1.708
aF7.32
aF5.856
aF8.052
aF7.076
aF5.124
aF3.904
aF4.636
aF5.856
aF7.564
aF6.1
aF6.1
aF8.296
aF5.612
aF4.148
aF5.612
aF4.392
aF5.368
aF12.444
aF2.684
as(I36
S'get HB5-4-biasmon[1-64]_f_rr'
p468
tp469
(lp470
F36.044
aF36.044
aF36.044
aF36.0244
aF36.044
aF36.044
aF36.044
aF36.0244
aF36.044
aF36.044
aF36.044
aF36.044
aF36.044
aF36.044
aF36.044
aF36.0635
aF36.044
aF36.044
aF36.0244
aF36.0244
aF36.044
aF36.044
aF36.044
aF36.044
aF36.044
aF36.044
aF36.0635
aF36.044
aF36.044
aF36.044
aF36.044
aF36.044
aF36.044
aF36.0244
aF36.0244
aF36.044
aF36.0635
aF36.044
aF36.044
aF36.044
aF36.044
aF36.044
aF36.044
aF36.044
aF36.044
aF36.044
aF36.044
aF36.044
aF36.0244
aF36.044
aF36.0244
aF36.044
aF36.044
aF36.044
aF36.044
aF36.044
aF36.044
aF36.0244
aF36.044
aF36.044
aF36.044
aF36.044
aF36.0244
aF36.044
as(I11
S'get HB5-4-LeakageCurrent[1-64]_f_rr'
p471
tp472
(lp473
F4.88
aF4.392
aF3.904
aF3.904
aF6.344
aF6.344
aF4.88
aF2.196
aF9.272
aF7.32
aF5.856
aF10.492
aF3.66
aF4.392
aF7.808
aF2.196
aF4.88
aF2.928
aF9.516
aF2.928
aF1.708
aF6.588
aF2.44
aF3.904
aF6.588
aF6.832
aF3.416
aF3.904
aF3.172
aF5.612
aF3.416
aF2.196
aF4.88
aF7.808
aF7.076
aF2.196
aF5.856
aF1.952
aF6.588
aF2.928
aF1.952
aF2.684
aF1.708
aF7.32
aF1.708
aF6.832
aF4.88
aF7.32
aF6.344
aF4.392
aF3.416
aF3.66
aF4.88
aF6.832
aF5.124
aF5.368
aF7.564
aF4.636
aF3.66
aF4.88
aF3.66
aF4.636
aF11.712
aF2.196
as(I44
S'put HB5-4-biasvoltage[1-64]_f 64*44.000000'
p474
tp475
(lp476
S'OK'
p477
as(I52
S'get HB5-4-LeakageCurrent[1-64]_f_rr'
p478
tp479
(lp480
F11.468
aF10.492
aF10.492
aF10.492
aF12.688
aF12.444
aF11.224
aF8.052
aF15.86
aF13.664
aF12.2
aF16.348
aF10.248
aF10.736
aF13.908
aF7.808
aF11.224
aF9.028
aF15.372
aF9.516
aF5.856
aF12.932
aF8.296
aF10.492
aF12.932
aF13.42
aF9.516
aF10.736
aF9.76
aF11.956
aF9.516
aF8.052
aF11.224
aF14.152
aF13.176
aF7.32
aF12.2
aF5.368
aF12.444
aF9.516
aF7.32
aF8.54
aF6.832
aF13.908
aF3.66
aF12.688
aF11.224
aF13.664
aF12.688
aF10.736
aF9.516
aF10.004
aF11.712
aF13.176
aF11.712
aF11.712
aF13.908
aF11.224
aF9.76
aF10.98
aF10.004
aF10.98
aF17.812
aF7.808
as(I55
S'put HB5-4-biasvoltage[1-64]_f 64*55.000000'
p481
tp482
(lp483
S'OK'
p484
as(I34
S'get HB5-4-LeakageCurrent[1-64]_f_rr'
p485
tp486
(lp487
F8.54
aF7.808
aF7.564
aF7.564
aF9.76
aF9.76
aF8.54
aF5.368
aF13.176
aF10.736
aF9.272
aF13.664
aF7.564
aF8.052
aF11.224
aF5.124
aF8.54
aF6.344
aF12.932
aF6.832
aF3.172
aF10.004
aF5.612
aF7.564
aF10.004
aF10.492
aF6.832
aF7.564
aF6.832
aF9.272
aF6.832
aF5.368
aF8.54
aF11.468
aF10.492
aF4.392
aF9.272
aF2.684
aF9.516
aF6.588
aF4.392
aF5.856
aF3.904
aF10.98
aF1.708
aF10.004
aF8.54
aF10.98
aF10.004
aF7.808
aF6.832
aF7.32
aF8.784
aF10.492
aF8.784
aF9.028
aF10.98
aF8.296
aF7.076
aF8.296
aF7.32
aF8.296
aF15.372
aF5.368
as(I29
S'get HB5-4-LeakageCurrent[1-64]_f_rr'
p488
tp489
(lp490
F7.564
aF7.076
aF6.832
aF6.832
aF9.028
aF9.028
aF7.564
aF4.636
aF12.2
aF10.004
aF8.54
aF13.176
aF6.832
aF7.32
aF10.492
aF4.392
aF7.808
aF5.612
aF12.2
aF5.856
aF2.684
aF9.272
aF4.88
aF6.832
aF9.516
aF9.76
aF6.1
aF6.832
aF6.1
aF8.296
aF6.1
aF4.636
aF7.808
aF10.736
aF9.76
aF3.66
aF8.54
aF2.196
aF9.028
aF5.856
aF3.66
aF5.368
aF3.416
aF10.248
aF1.708
aF9.272
aF7.808
aF10.004
aF9.272
aF7.076
aF6.1
aF6.588
aF8.052
aF9.516
aF8.052
aF8.052
aF10.248
aF7.564
aF6.344
aF7.564
aF6.588
aF7.564
aF14.396
aF4.636
as(I11
S'put HB5-4-biasvoltage[1-64]_f 64*11.000000'
p491
tp492
(lp493
S'OK'
p494
as(I5
S'get HB5-4-LeakageCurrent[1-64]_f_rr'
p495
tp496
(lp497
F4.148
aF3.416
aF2.928
aF3.172
aF5.368
aF5.368
aF4.148
aF1.952
aF8.296
aF6.344
aF4.636
aF9.76
aF3.172
aF3.66
aF7.076
aF1.952
aF4.148
aF2.44
aF8.54
aF2.196
aF1.708
aF5.368
aF1.952
aF3.172
aF5.856
aF6.1
aF2.928
aF3.416
aF2.44
aF4.392
aF2.44
aF1.952
aF4.148
aF6.832
aF5.856
aF1.952
aF4.636
aF1.952
aF5.856
aF2.196
aF1.708
aF2.196
aF1.708
aF6.1
aF1.708
aF5.856
aF3.66
aF6.1
aF5.124
aF3.904
aF2.196
aF3.172
aF4.392
aF5.856
aF4.636
aF4.148
aF6.588
aF3.66
aF2.44
aF3.904
aF2.928
aF3.66
aF10.492
aF1.952
as(I48
S'get HB5-4-biasmon[1-64]_f_rr'
p498
tp499
(lp500
F48.0195
aF48.0195
aF48.0195
aF48.0195
aF48.0195
aF48.0195
aF48.0195
aF48.0195
aF48.0195
aF48.0195
aF48.0195
aF48.0195
aF48.0195
aF48.0391
aF48.0195
aF48.0391
aF48.0195
aF48.0195
aF48.0195
aF48.0195
aF48.0195
aF48.0195
aF48.0195
aF48.0195
aF48.0195
aF48.0195
aF48.0391
aF48.0195
aF48.0391
aF48.0391
aF48.0195
aF48.0195
aF48.0195
aF48.0
aF48.0
aF48.0195
aF48.0391
aF48.0391
aF48.0391
aF48.0391
aF48.0
aF48.0195
aF48.0195
aF48.0195
aF48.0195
aF48.0195
aF48.0195
aF48.0195
aF48.0195
aF48.0195
aF48.0
aF48.0195
aF48.0391
aF48.0195
aF48.0391
aF48.0391
aF48.0
aF48.0195
aF48.0195
aF48.0195
aF48.0195
aF48.0391
aF48.0195
aF48.0195
as(I47
S'get HB5-4-LeakageCurrent[1-64]_f_rr'
p501
tp502
(lp503
F10.492
aF9.76
aF9.76
aF9.516
aF11.956
aF11.712
aF10.492
aF7.32
aF15.128
aF12.932
aF11.468
aF15.616
aF9.516
aF10.004
aF13.176
aF7.076
aF10.492
aF8.54
aF14.884
aF8.54
aF5.124
aF11.956
aF7.564
aF9.516
aF11.956
aF12.444
aF8.784
aF9.76
aF8.784
aF11.224
aF8.784
aF7.32
aF10.492
aF13.42
aF12.444
aF6.344
aF11.468
aF4.636
aF11.712
aF8.54
aF6.344
aF7.808
aF5.856
aF13.176
aF2.928
aF11.956
aF10.492
aF12.932
aF11.956
aF9.76
aF8.784
aF9.272
aF10.736
aF12.444
aF10.736
aF10.98
aF13.176
aF10.492
aF9.028
aF10.248
aF9.272
aF10.248
aF17.08
aF7.32
as(I7
S'get HB5-4-biasmon[1-64]_f_rr'
p504
tp505
(lp506
F7.03297
aF7.03297
aF7.03297
aF7.03297
aF7.03297
aF7.03297
aF7.0525
aF7.03297
aF7.03297
aF7.03297
aF7.03297
aF7.03297
aF7.03297
aF7.03297
aF7.0525
aF7.0525
aF7.0525
aF7.0525
aF7.03297
aF7.03297
aF7.0525
aF7.03297
aF7.03297
aF7.0525
aF7.0525
aF7.0525
aF7.0525
aF7.0525
aF7.03297
aF7.03297
aF7.03297
aF7.03297
aF7.03297
aF7.03297
aF7.03297
aF7.03297
aF7.03297
aF7.03297
aF7.0525
aF7.0525
aF7.03297
aF7.0525
aF7.0525
aF7.0525
aF7.0525
aF7.03297
aF7.03297
aF7.03297
aF7.03297
aF7.03297
aF7.03297
aF7.03297
aF7.03297
aF7.03297
aF7.0525
aF7.0525
aF7.03297
aF7.03297
aF7.03297
aF7.0525
aF7.0525
aF7.0525
aF7.03297
aF7.0525
as(I56
S'get HB5-4-LeakageCurrent[1-64]_f_rr'
p507
tp508
(lp509
F11.956
aF11.224
aF10.98
aF10.98
aF13.176
aF13.176
aF11.956
aF8.54
aF16.348
aF14.396
aF12.688
aF17.08
aF10.98
aF11.468
aF14.396
aF8.296
aF11.956
aF9.76
aF16.348
aF10.004
aF6.588
aF13.664
aF8.784
aF10.98
aF13.42
aF13.908
aF10.248
aF11.224
aF10.492
aF12.444
aF10.248
aF8.784
aF11.712
aF14.884
aF13.664
aF7.808
aF12.688
aF5.856
aF12.932
aF10.004
aF7.808
aF9.272
aF7.32
aF14.64
aF4.148
aF13.42
aF11.956
aF14.396
aF13.42
aF11.224
aF10.492
aF10.736
aF12.2
aF13.908
aF12.2
aF12.444
aF14.396
aF11.956
aF10.492
aF11.712
aF10.736
aF11.712
aF18.544
aF8.54
as(I12
S'get HB5-4-biasmon[1-64]_f_rr'
p510
tp511
(lp512
F12.0342
aF12.0342
aF12.0342
aF12.0342
aF12.0342
aF12.0342
aF12.0537
aF12.0342
aF12.0342
aF12.0342
aF12.0342
aF12.0342
aF12.0342
aF12.0537
aF12.0537
aF12.0537
aF12.0537
aF12.0342
aF12.0342
aF12.0342
aF12.0537
aF12.0342
aF12.0537
aF12.0342
aF12.0342
aF12.0342
aF12.0537
aF12.0537
aF12.0342
aF12.0342
aF12.0342
aF12.0342
aF12.0342
aF12.0342
aF12.0342
aF12.0342
aF12.0537
aF12.0342
aF12.0537
aF12.0537
aF12.0342
aF12.0537
aF12.0537
aF12.0537
aF12.0537
aF12.0342
aF12.0342
aF12.0342
aF12.0342
aF12.0342
aF12.0342
aF12.0342
aF12.0342
aF12.0537
aF12.0537
aF12.0342
aF12.0342
aF12.0342
aF12.0342
aF12.0537
aF12.0342
aF12.0342
aF12.0342
aF12.0537
as(I51
S'get HB5-4-LeakageCurrent[1-64]_f_rr'
p513
tp514
(lp515
F11.224
aF10.492
aF10.248
aF10.248
aF12.444
aF12.444
aF10.98
aF7.808
aF15.616
aF13.664
aF11.956
aF16.348
aF10.248
aF10.492
aF13.664
aF7.564
aF11.224
aF8.784
aF15.372
aF9.272
aF5.856
aF12.688
aF8.052
aF10.248
aF12.688
aF13.176
aF9.516
aF10.492
aF9.516
aF11.712
aF9.516
aF8.052
aF11.224
aF14.152
aF13.176
aF7.076
aF11.956
aF5.124
aF12.2
aF9.272
aF7.076
aF8.296
aF6.588
aF13.908
aF3.416
aF12.444
aF11.224
aF13.664
aF12.688
aF10.492
aF9.516
aF9.76
aF11.468
aF13.176
aF11.468
aF11.712
aF13.664
aF10.736
aF9.76
aF10.736
aF9.76
aF10.736
aF17.812
aF7.808
as(I50
S'put HB5-4-biasvoltage[1-64]_f 64*50.000000'
p516
tp517
(lp518
S'OK'
p519
as(I19
S'put HB5-4-biasvoltage[1-64]_f 64*19.000000'
p520
tp521
(lp522
S'OK'
p523
as(I20
S'get HB5-4-LeakageCurrent[1-64]_f_rr'
p524
tp525
(lp526
F6.344
aF5.612
aF5.612
aF5.368
aF7.564
aF7.564
aF6.344
aF3.416
aF10.98
aF8.54
aF7.32
aF11.712
aF5.368
aF5.856
aF9.028
aF3.172
aF6.344
aF4.148
aF10.736
aF4.392
aF1.952
aF7.808
aF3.66
aF5.368
aF8.052
aF8.296
aF4.88
aF5.368
aF4.636
aF6.832
aF4.636
aF3.172
aF6.344
aF9.272
aF8.296
aF2.684
aF7.32
aF1.952
aF7.564
aF4.392
aF2.44
aF3.904
aF2.196
aF8.784
aF1.708
aF7.808
aF6.344
aF8.54
aF7.564
aF5.856
aF4.636
aF5.124
aF6.588
aF8.296
aF6.588
aF6.832
aF9.028
aF6.1
aF4.88
aF6.1
aF5.124
aF6.1
aF12.932
aF3.172
as(I22
S'put HB5-4-biasvoltage[1-64]_f 64*22.000000'
p527
tp528
(lp529
S'OK'
p530
as(I15
S'get HB5-4-LeakageCurrent[1-64]_f_rr'
p531
tp532
(lp533
F5.612
aF4.88
aF4.636
aF4.636
aF6.832
aF6.832
aF5.612
aF2.684
aF10.004
aF7.808
aF6.344
aF10.98
aF4.636
aF5.124
aF8.296
aF2.684
aF5.612
aF3.66
aF10.004
aF3.66
aF1.708
aF7.076
aF2.928
aF4.636
aF7.32
aF7.564
aF4.148
aF4.636
aF3.904
aF6.1
aF3.904
aF2.684
aF5.856
aF8.54
aF7.564
aF2.196
aF6.588
aF1.952
aF6.832
aF3.66
aF2.196
aF3.416
aF1.708
aF8.052
aF1.708
aF7.32
aF5.612
aF7.808
aF6.832
aF5.124
aF3.904
aF4.636
aF5.856
aF7.32
aF5.856
aF6.1
aF8.296
aF5.368
aF4.148
aF5.612
aF4.392
aF5.368
aF12.2
aF2.684
as(I31
S'put HB5-4-biasvoltage[1-64]_f 64*31.000000'
p534
tp535
(lp536
S'OK'
p537
as(I49
S'get HB5-4-LeakageCurrent[1-64]_f_rr'
p538
tp539
(lp540
F10.736
aF10.004
aF10.004
aF10.004
aF12.2
aF11.956
aF10.736
aF7.564
aF15.372
aF13.176
aF11.712
aF15.86
aF9.76
aF10.248
aF13.42
aF7.32
aF10.736
aF8.54
aF15.128
aF8.784
aF5.368
aF12.444
aF7.564
aF10.004
aF12.444
aF12.688
aF9.272
aF10.004
aF9.272
aF11.712
aF9.272
aF7.564
aF10.736
aF13.664
aF12.688
aF6.832
aF11.712
aF4.636
aF11.956
aF8.784
aF6.588
aF8.052
aF6.1
aF13.664
aF3.172
aF12.444
aF10.736
aF13.42
aF12.444
aF10.248
aF9.272
aF9.516
aF11.224
aF12.688
aF11.224
aF11.468
aF13.42
aF10.736
aF9.516
aF10.492
aF9.516
aF10.492
aF17.568
aF7.564
as(I18
S'get HB5-4-LeakageCurrent[1-64]_f_rr'
p541
tp542
(lp543
F6.1
aF5.368
aF5.124
aF5.124
aF7.32
aF7.32
aF5.856
aF2.928
aF10.492
aF8.296
aF6.832
aF11.468
aF4.88
aF5.612
aF8.784
aF2.928
aF6.1
aF3.904
aF10.492
aF4.148
aF1.708
aF7.564
aF3.172
aF5.124
aF7.564
aF7.808
aF4.636
aF5.124
aF4.392
aF6.588
aF4.392
aF2.928
aF6.1
aF9.028
aF8.052
aF2.44
aF6.832
aF1.952
aF7.32
aF4.148
aF2.196
aF3.66
aF1.952
aF8.54
aF1.708
aF7.564
aF5.856
aF8.296
aF7.564
aF5.612
aF4.148
aF4.88
aF6.1
aF7.808
aF6.344
aF6.588
aF8.54
aF5.856
aF4.636
aF5.856
aF4.88
aF5.856
aF12.688
aF2.928
as(I13
S'get HB5-4-LeakageCurrent[1-64]_f_rr'
p544
tp545
(lp546
F5.124
aF4.636
aF4.392
aF4.392
aF6.588
aF6.588
aF5.124
aF2.44
aF9.76
aF7.564
aF6.1
aF10.736
aF4.148
aF4.636
aF7.808
aF2.44
aF5.368
aF3.416
aF9.76
aF3.416
aF1.708
aF6.832
aF2.684
aF4.148
aF7.076
aF7.32
aF3.904
aF4.392
aF3.416
aF5.856
aF3.66
aF2.44
aF5.368
aF8.296
aF7.076
aF2.196
aF6.1
aF1.952
aF6.588
aF3.416
aF1.952
aF2.928
aF1.952
aF7.564
aF1.708
aF6.832
aF5.368
aF7.564
aF6.832
aF4.88
aF3.66
aF4.148
aF5.368
aF7.076
aF5.612
aF5.612
aF8.052
aF5.124
aF3.66
aF5.124
aF4.148
aF4.88
aF11.956
aF2.44
as(I22
S'get HB5-4-LeakageCurrent[1-64]_f_rr'
p547
tp548
(lp549
F6.588
aF5.856
aF5.856
aF5.856
aF8.052
aF7.808
aF6.588
aF3.66
aF11.224
aF9.028
aF7.564
aF11.956
aF5.612
aF6.1
aF9.272
aF3.416
aF6.588
aF4.636
aF10.98
aF4.636
aF1.952
aF8.052
aF3.904
aF5.612
aF8.54
aF8.54
aF5.124
aF5.856
aF4.88
aF7.32
aF5.124
aF3.66
aF6.832
aF9.516
aF8.54
aF2.928
aF7.564
aF1.952
aF7.808
aF4.636
aF2.684
aF4.148
aF2.44
aF9.272
aF1.708
aF8.296
aF6.588
aF9.028
aF8.052
aF6.1
aF4.88
aF5.612
aF6.832
aF8.54
aF7.076
aF7.076
aF9.272
aF6.588
aF5.124
aF6.588
aF5.368
aF6.344
aF13.42
aF3.66
as(I1
S'get HB5-4-LeakageCurrent[1-64]_f_rr'
p550
tp551
(lp552
F3.172
aF3.172
aF2.684
aF2.44
aF4.636
aF4.636
aF3.172
aF1.952
aF7.808
aF5.368
aF4.636
aF9.028
aF2.196
aF3.416
aF6.1
aF1.952
aF3.416
aF2.196
aF7.808
aF1.952
aF1.708
aF5.368
aF1.708
aF2.44
aF5.124
aF5.124
aF2.44
aF2.684
aF1.952
aF3.904
aF2.44
aF1.952
aF3.904
aF6.588
aF5.368
aF1.952
aF4.148
aF1.952
aF4.88
aF2.196
aF1.708
aF2.196
aF1.708
aF5.368
aF1.708
aF5.612
aF3.416
aF5.612
aF4.636
aF3.66
aF1.952
aF2.684
aF3.416
aF5.368
aF3.66
aF3.66
aF6.588
aF3.172
aF2.196
aF3.416
aF2.928
aF3.172
aF10.004
aF1.952
as(I14
S'put HB5-4-biasvoltage[1-64]_f 64*14.000000'
p553
tp554
(lp555
S'OK'
p556
as(I9
S'get HB5-4-biasmon[1-64]_f_rr'
p557
tp558
(lp559
F9.04518
aF9.04518
aF9.04518
aF9.04518
aF9.04518
aF9.04518
aF9.06471
aF9.04518
aF9.04518
aF9.04518
aF9.04518
aF9.04518
aF9.04518
aF9.04518
aF9.04518
aF9.04518
aF9.04518
aF9.04518
aF9.04518
aF9.04518
aF9.06471
aF9.04518
aF9.04518
aF9.04518
aF9.04518
aF9.04518
aF9.04518
aF9.04518
aF9.04518
aF9.04518
aF9.04518
aF9.04518
aF9.04518
aF9.04518
aF9.04518
aF9.04518
aF9.04518
aF9.06471
aF9.06471
aF9.06471
aF9.04518
aF9.04518
aF9.04518
aF9.06471
aF9.04518
aF9.04518
aF9.04518
aF9.04518
aF9.04518
aF9.04518
aF9.04518
aF9.04518
aF9.04518
aF9.04518
aF9.06471
aF9.04518
aF9.04518
aF9.04518
aF9.04518
aF9.06471
aF9.04518
aF9.04518
aF9.04518
aF9.04518
as(I30
S'get HB5-4-biasmon[1-64]_f_rr'
p560
tp561
(lp562
F30.0464
aF30.0464
aF30.0464
aF30.0464
aF30.0464
aF30.0464
aF30.0659
aF30.0464
aF30.0659
aF30.0464
aF30.0464
aF30.0464
aF30.0464
aF30.0659
aF30.0659
aF30.0464
aF30.0464
aF30.0464
aF30.0464
aF30.0464
aF30.0464
aF30.0464
aF30.0464
aF30.0464
aF30.0464
aF30.0464
aF30.0464
aF30.0464
aF30.0464
aF30.0659
aF30.0464
aF30.0464
aF30.0464
aF30.0464
aF30.0464
aF30.0464
aF30.0464
aF30.0659
aF30.0659
aF30.0464
aF30.0269
aF30.0464
aF30.0464
aF30.0464
aF30.0464
aF30.0464
aF30.0464
aF30.0464
aF30.0464
aF30.0464
aF30.0269
aF30.0464
aF30.0464
aF30.0464
aF30.0659
aF30.0464
aF30.0464
aF30.0464
aF30.0464
aF30.0464
aF30.0464
aF30.0659
aF30.0464
aF30.0464
as(I44
S'get HB5-4-LeakageCurrent[1-64]_f_rr'
p563
tp564
(lp565
F10.004
aF9.272
aF9.272
aF9.272
aF11.468
aF11.224
aF10.004
aF6.832
aF14.64
aF12.444
aF10.98
aF15.128
aF9.028
aF9.516
aF12.688
aF6.588
aF10.004
aF7.808
aF14.396
aF8.052
aF4.636
aF11.712
aF7.076
aF9.272
aF11.712
aF11.956
aF8.54
aF9.272
aF8.54
aF10.736
aF8.54
aF7.076
aF10.004
aF12.932
aF11.956
aF6.1
aF10.98
aF4.148
aF11.224
aF8.052
aF6.1
aF7.32
aF5.612
aF12.688
aF2.44
aF11.712
aF10.004
aF12.444
aF11.468
aF9.272
aF8.296
aF8.54
aF10.248
aF11.956
aF10.492
aF10.492
aF12.444
aF9.76
aF8.54
aF9.76
aF8.784
aF9.76
aF16.592
aF6.832
as(I5
S'put HB5-4-biasvoltage[1-64]_f 64*5.000000'
p566
tp567
(lp568
S'OK'
p569
as(I34
S'get HB5-4-biasmon[1-64]_f_rr'
p570
tp571
(lp572
F34.0122
aF34.0317
aF34.0317
aF34.0122
aF34.0317
aF34.0122
aF34.0317
aF34.0317
aF34.0317
aF34.0317
aF34.0317
aF34.0317
aF34.0122
aF34.0317
aF34.0317
aF34.0317
aF34.0317
aF34.0317
aF34.0122
aF34.0122
aF34.0317
aF34.0317
aF34.0317
aF34.0317
aF34.0317
aF34.0122
aF34.0317
aF34.0317
aF34.0122
aF34.0317
aF34.0317
aF34.0317
aF34.0317
aF34.0122
aF34.0122
aF34.0317
aF34.0317
aF34.0317
aF34.0317
aF34.0317
aF34.0122
aF34.0122
aF34.0317
aF34.0317
aF34.0317
aF34.0317
aF34.0317
aF34.0317
aF34.0122
aF34.0317
aF34.0122
aF34.0122
aF34.0317
aF34.0317
aF34.0317
aF34.0317
aF34.0317
aF34.0122
aF34.0317
aF34.0122
aF34.0317
aF34.0317
aF34.0122
aF34.0317
as(I4
S'get HB5-4-LeakageCurrent[1-64]_f_rr'
p573
tp574
(lp575
F3.66
aF3.172
aF2.928
aF2.928
aF4.88
aF5.124
aF3.66
aF1.708
aF8.052
aF5.856
aF4.392
aF9.272
aF2.684
aF3.416
aF6.832
aF1.952
aF3.66
aF2.684
aF8.54
aF2.44
aF1.708
aF5.612
aF1.952
aF2.928
aF5.612
aF6.1
aF2.684
aF2.928
aF2.44
aF4.636
aF2.684
aF1.952
aF3.904
aF6.832
aF5.612
aF1.952
aF4.392
aF1.952
aF5.124
aF2.196
aF1.708
aF2.196
aF1.708
aF5.856
aF1.708
aF5.368
aF3.66
aF5.856
aF4.88
aF3.416
aF2.196
aF3.172
aF4.148
aF5.612
aF4.148
aF3.904
aF6.832
aF3.904
aF2.196
aF3.66
aF3.172
aF3.416
aF10.248
aF1.952
as(I41
S'get HB5-4-biasmon[1-64]_f_rr'
p576
tp577
(lp578
F41.0256
aF41.0256
aF41.0256
aF41.0256
aF41.0256
aF41.0256
aF41.0452
aF41.0256
aF41.0256
aF41.0452
aF41.0256
aF41.0256
aF41.0256
aF41.0452
aF41.0256
aF41.0452
aF41.0256
aF41.0256
aF41.0256
aF41.0256
aF41.0256
aF41.0452
aF41.0452
aF41.0452
aF41.0452
aF41.0256
aF41.0452
aF41.0256
aF41.0256
aF41.0452
aF41.0256
aF41.0256
aF41.0452
aF41.0256
aF41.0256
aF41.0256
aF41.0452
aF41.0452
aF41.0452
aF41.0452
aF41.0256
aF41.0256
aF41.0256
aF41.0256
aF41.0452
aF41.0256
aF41.0256
aF41.0256
aF41.0256
aF41.0256
aF41.0256
aF41.0256
aF41.0452
aF41.0452
aF41.0452
aF41.0452
aF41.0256
aF41.0256
aF41.0256
aF41.0256
aF41.0452
aF41.0452
aF41.0256
aF41.0256
as(I47
S'put HB5-4-biasvoltage[1-64]_f 64*47.000000'
p579
tp580
(lp581
S'OK'
p582
as(I7
S'put HB5-4-biasvoltage[1-64]_f 64*7.000000'
p583
tp584
(lp585
S'OK'
p586
as(I39
S'get HB5-4-LeakageCurrent[1-64]_f_rr'
p587
tp588
(lp589
F9.272
aF8.54
aF8.54
aF8.296
aF10.492
aF10.492
aF9.272
aF6.1
aF13.664
aF11.712
aF10.248
aF14.64
aF8.296
aF8.54
aF11.956
aF5.856
aF9.272
aF7.076
aF13.664
aF7.564
aF3.904
aF10.736
aF6.344
aF8.296
aF10.98
aF11.224
aF7.564
aF8.54
aF7.564
aF9.76
aF7.564
aF6.1
aF9.272
aF12.2
aF11.224
aF5.368
aF10.004
aF3.416
aF10.492
aF7.32
aF5.124
aF6.588
aF4.636
aF11.956
aF1.952
aF10.736
aF9.272
aF11.712
aF10.736
aF8.54
aF7.564
aF8.052
aF9.516
aF11.224
aF9.516
aF9.76
aF11.956
aF8.784
aF7.808
aF9.028
aF8.052
aF9.028
aF15.86
aF5.856
as(I53
S'get HB5-4-LeakageCurrent[1-64]_f_rr'
p590
tp591
(lp592
F11.712
aF10.736
aF10.736
aF10.736
aF12.688
aF12.688
aF11.468
aF8.296
aF15.86
aF13.908
aF12.2
aF16.592
aF10.492
aF10.736
aF13.908
aF7.808
aF11.712
aF9.272
aF15.86
aF9.516
aF6.1
aF13.176
aF8.54
aF10.492
aF13.176
aF13.42
aF9.76
aF10.736
aF9.76
aF11.956
aF9.76
aF8.296
aF11.468
aF14.396
aF13.176
aF7.564
aF12.444
aF5.368
aF12.444
aF9.516
aF7.32
aF8.54
aF6.832
aF14.152
aF3.66
aF12.932
aF11.468
aF13.908
aF12.932
aF10.736
aF9.76
aF10.004
aF11.712
aF13.42
aF11.712
aF11.956
aF13.908
aF10.98
aF10.004
aF11.224
aF10.004
aF11.224
aF18.056
aF8.052
as(I46
S'put HB5-4-biasvoltage[1-64]_f 64*46.000000'
p593
tp594
(lp595
S'OK'
p596
as(I8
S'put HB5-4-biasvoltage[1-64]_f 64*8.000000'
p597
tp598
(lp599
S'OK'
p600
as(I45
S'put HB5-4-biasvoltage[1-64]_f 64*45.000000'
p601
tp602
(lp603
S'OK'
p604
as(I35
S'get HB5-4-biasmon[1-64]_f_rr'
p605
tp606
(lp607
F35.0281
aF35.0476
aF35.0476
aF35.0476
aF35.0476
aF35.0476
aF35.0476
aF35.0281
aF35.0476
aF35.0476
aF35.0476
aF35.0476
aF35.0476
aF35.0476
aF35.0476
aF35.0476
aF35.0476
aF35.0476
aF35.0281
aF35.0281
aF35.0476
aF35.0476
aF35.0476
aF35.0476
aF35.0672
aF35.0476
aF35.0476
aF35.0476
aF35.0476
aF35.0476
aF35.0476
aF35.0476
aF35.0476
aF35.0281
aF35.0476
aF35.0476
aF35.0476
aF35.0672
aF35.0672
aF35.0476
aF35.0476
aF35.0476
aF35.0476
aF35.0476
aF35.0476
aF35.0476
aF35.0476
aF35.0476
aF35.0281
aF35.0476
aF35.0281
aF35.0476
aF35.0476
aF35.0476
aF35.0672
aF35.0476
aF35.0476
aF35.0281
aF35.0476
aF35.0476
aF35.0476
aF35.0672
aF35.0476
aF35.0476
as(I6
S'get HB5-4-LeakageCurrent[1-64]_f_rr'
p608
tp609
(lp610
F4.148
aF3.416
aF3.172
aF3.172
aF5.612
aF5.368
aF4.148
aF1.952
aF8.54
aF6.588
aF4.88
aF10.004
aF2.928
aF3.904
aF7.32
aF1.952
aF4.392
aF2.684
aF8.784
aF2.44
aF1.708
aF5.612
aF1.952
aF3.416
aF6.1
aF5.856
aF3.172
aF3.172
aF2.684
aF4.88
aF2.684
aF1.952
aF4.392
aF7.564
aF6.1
aF1.952
aF4.636
aF1.952
aF5.368
aF2.44
aF1.708
aF2.44
aF1.708
aF6.344
aF1.708
aF5.612
aF4.148
aF6.1
aF5.612
aF3.66
aF2.44
aF3.416
aF4.636
aF6.1
aF4.636
aF4.392
aF6.832
aF3.904
aF2.684
aF4.148
aF2.928
aF3.66
aF10.736
aF1.952
as.