(dp0
(I10
S'put HB0-1-biasvoltage[1-64]_f 64*10.000000'
p1
tp2
(lp3
S'OK'
p4
as(I30
S'get HB0-1-LeakageCurrent[1-64]_f_rr'
p5
tp6
(lp7
F8.052
aF11.224
aF10.98
aF3.416
aF9.76
aF6.588
aF1.708
aF2.684
aF2.44
aF9.516
aF9.272
aF8.052
aF8.784
aF4.88
aF10.492
aF11.224
aF8.052
aF8.54
aF7.32
aF6.1
aF7.076
aF4.392
aF7.32
aF1.708
aF11.224
aF6.832
aF2.928
aF7.076
aF4.148
aF5.124
aF5.856
aF9.272
aF8.784
aF8.54
aF5.124
aF11.712
aF15.128
aF9.516
aF2.44
aF4.636
aF3.904
aF9.028
aF10.736
aF6.832
aF5.856
aF3.904
aF5.612
aF4.392
aF7.32
aF5.368
aF5.856
aF1.952
aF7.32
aF7.076
aF5.124
aF5.856
aF11.468
aF8.296
aF8.296
aF7.076
aF10.98
aF5.124
aF5.368
aF2.684
as(I40
S'get HB0-1-LeakageCurrent[1-64]_f_rr'
p8
tp9
(lp10
F9.516
aF12.688
aF12.688
aF5.124
aF11.468
aF8.052
aF2.44
aF4.148
aF3.66
aF11.224
aF10.736
aF9.76
aF10.492
aF6.588
aF11.956
aF12.688
aF9.76
aF10.004
aF9.028
aF7.808
aF8.54
aF5.856
aF8.784
aF2.928
aF12.688
aF8.54
aF4.392
aF8.54
aF5.856
aF6.832
aF7.564
aF10.736
aF10.248
aF10.004
aF6.588
aF13.42
aF16.592
aF10.98
aF3.66
aF6.1
aF5.368
aF10.492
aF12.2
aF8.052
aF7.32
aF5.612
aF7.32
aF5.856
aF9.028
aF6.832
aF7.32
aF3.172
aF8.784
aF8.54
aF6.832
aF7.564
aF12.932
aF9.76
aF9.76
aF8.54
aF12.444
aF6.588
aF6.832
aF4.392
as(I0
S'get HB0-1-LeakageCurrent[1-64]_f_rr'
p11
tp12
(lp13
F3.66
aF6.344
aF6.588
aF1.708
aF5.368
aF2.196
aF1.708
aF1.708
aF1.708
aF5.368
aF4.636
aF3.416
aF4.392
aF1.708
aF6.1
aF6.832
aF3.172
aF3.904
aF2.928
aF1.952
aF2.44
aF1.708
aF2.928
aF1.708
aF6.832
aF2.44
aF1.708
aF2.684
aF1.708
aF1.708
aF1.952
aF4.636
aF4.148
aF4.148
aF1.708
aF7.564
aF10.248
aF4.636
aF1.708
aF1.708
aF1.708
aF4.636
aF6.588
aF2.196
aF2.196
aF1.708
aF1.708
aF1.708
aF2.44
aF1.708
aF1.708
aF1.708
aF2.928
aF2.44
aF1.708
aF1.952
aF6.832
aF3.904
aF3.904
aF2.684
aF6.588
aF1.708
aF1.708
aF1.708
as(I35
S'get HB0-1-LeakageCurrent[1-64]_f_rr'
p14
tp15
(lp16
F8.784
aF11.956
aF11.712
aF4.392
aF10.736
aF7.32
aF1.952
aF3.416
aF2.928
aF10.492
aF10.004
aF9.028
aF9.516
aF5.856
aF11.224
aF11.956
aF8.784
aF9.516
aF8.052
aF7.076
aF7.564
aF5.124
aF8.052
aF2.196
aF11.956
aF7.564
aF3.66
aF7.808
aF4.88
aF5.856
aF6.832
aF10.004
aF9.516
aF9.272
aF5.856
aF12.444
aF15.86
aF10.248
aF2.928
aF5.368
aF4.636
aF9.516
aF11.468
aF7.564
aF6.588
aF4.88
aF6.344
aF5.124
aF8.052
aF6.1
aF6.588
aF2.44
aF8.052
aF7.808
aF5.856
aF6.832
aF12.2
aF9.028
aF9.028
aF7.564
aF11.712
aF5.856
aF6.1
aF3.416
as(I70
S'put HB0-1-biasvoltage[1-64]_f 64*70.000000'
p17
tp18
(lp19
S'OK'
p20
as(I40
S'put HB0-1-biasvoltage[1-64]_f 64*40.000000'
p21
tp22
(lp23
S'OK'
p24
as(I70
S'get HB0-1-LeakageCurrent[1-64]_f_rr'
p25
tp26
(lp27
F14.64
aF18.3
aF17.812
aF10.248
aF17.08
aF13.664
aF7.32
aF9.516
aF9.028
aF15.86
aF17.568
aF15.372
aF15.372
aF11.712
aF17.568
aF17.812
aF15.128
aF15.372
aF14.396
aF13.42
aF13.664
aF11.712
aF13.908
aF8.052
aF18.056
aF13.664
aF10.004
aF14.396
aF11.712
aF11.956
aF12.444
aF15.86
aF15.86
aF15.372
aF11.712
aF18.3
aF21.96
aF16.104
aF8.54
aF11.468
aF10.736
aF15.616
aF17.324
aF13.42
aF12.2
aF10.736
aF12.444
aF11.224
aF14.396
aF11.712
aF12.2
aF7.808
aF14.152
aF14.396
aF12.444
aF13.176
aF19.276
aF15.372
aF15.372
aF14.396
aF17.568
aF11.712
aF11.956
aF9.272
as(I65
S'put HB0-1-biasvoltage[1-64]_f 64*65.000000'
p28
tp29
(lp30
S'OK'
p31
as(I25
S'put HB0-1-biasvoltage[1-64]_f 64*25.000000'
p32
tp33
(lp34
S'OK'
p35
as(I0
S'put HB0-1-biasvoltage[1-64]_f 64*0.000000'
p36
tp37
(lp38
S'OK'
p39
as(I50
S'put HB0-1-biasvoltage[1-64]_f 64*50.000000'
p40
tp41
(lp42
S'OK'
p43
as(I5
S'put HB0-1-biasvoltage[1-64]_f 64*5.000000'
p44
tp45
(lp46
S'OK'
p47
as(I60
S'put HB0-1-biasvoltage[1-64]_f 64*60.000000'
p48
tp49
(lp50
S'OK'
p51
as(I55
S'put HB0-1-biasvoltage[1-64]_f 64*55.000000'
p52
tp53
(lp54
S'OK'
p55
as(I35
S'get HB0-1-biasmon[1-64]_f_rr'
p56
tp57
(lp58
F34.989
aF34.989
aF34.989
aF34.989
aF34.9695
aF34.989
aF34.989
aF34.989
aF34.9695
aF34.9695
aF34.9695
aF34.989
aF34.9695
aF34.989
aF34.989
aF34.989
aF34.9695
aF34.989
aF34.9695
aF34.989
aF34.989
aF34.9695
aF34.9695
aF34.989
aF34.989
aF34.989
aF34.989
aF34.989
aF34.989
aF34.9695
aF34.989
aF34.989
aF34.989
aF34.989
aF34.9695
aF34.9695
aF34.989
aF34.9695
aF34.989
aF34.989
aF34.989
aF34.9695
aF34.989
aF34.989
aF34.9695
aF34.9695
aF34.9695
aF34.9695
aF34.9695
aF34.9695
aF34.989
aF34.989
aF34.989
aF34.989
aF34.989
aF34.9695
aF34.989
aF34.989
aF34.989
aF34.989
aF34.989
aF34.9695
aF34.989
aF34.989
as(I55
S'get HB0-1-biasmon[1-64]_f_rr'
p59
tp60
(lp61
F54.9158
aF54.9158
aF54.9158
aF54.9158
aF54.9158
aF54.9158
aF54.8962
aF54.9158
aF54.8962
aF54.8962
aF54.9158
aF54.9158
aF54.8962
aF54.9158
aF54.9158
aF54.9158
aF54.8962
aF54.9158
aF54.8962
aF54.9158
aF54.8962
aF54.9158
aF54.8962
aF54.9158
aF54.9158
aF54.9158
aF54.9158
aF54.9158
aF54.9158
aF54.9158
aF54.9158
aF54.9158
aF54.9158
aF54.9158
aF54.9158
aF54.8962
aF54.9158
aF54.8962
aF54.9158
aF54.9158
aF54.9158
aF54.8962
aF54.9158
aF54.9158
aF54.8962
aF54.8962
aF54.8962
aF54.9158
aF54.8962
aF54.9158
aF54.9158
aF54.8962
aF54.9158
aF54.9158
aF54.9158
aF54.9158
aF54.8962
aF54.8962
aF54.9158
aF54.9158
aF54.8962
aF54.8962
aF54.9158
aF54.9158
as(I60
S'get HB0-1-biasmon[1-64]_f_rr'
p62
tp63
(lp64
F59.917
aF59.8974
aF59.8974
aF59.8974
aF59.8974
aF59.8974
aF59.8974
aF59.8974
aF59.8779
aF59.8974
aF59.8974
aF59.8974
aF59.8779
aF59.8974
aF59.8974
aF59.8974
aF59.8974
aF59.8974
aF59.8779
aF59.8974
aF59.8974
aF59.8974
aF59.8974
aF59.8974
aF59.917
aF59.8974
aF59.917
aF59.8974
aF59.8974
aF59.8974
aF59.8974
aF59.8974
aF59.8974
aF59.8974
aF59.8779
aF59.8779
aF59.8974
aF59.8779
aF59.8974
aF59.8974
aF59.8974
aF59.8974
aF59.8974
aF59.8974
aF59.8974
aF59.8974
aF59.8779
aF59.8974
aF59.8974
aF59.8779
aF59.8974
aF59.8974
aF59.917
aF59.8974
aF59.8974
aF59.8779
aF59.8779
aF59.8974
aF59.8974
aF59.8974
aF59.8974
aF59.8779
aF59.8974
aF59.8974
as(I70
S'get HB0-1-biasmon[1-64]_f_rr'
p65
tp66
(lp67
F69.8803
aF69.8803
aF69.8803
aF69.8608
aF69.8608
aF69.8608
aF69.8608
aF69.8803
aF69.8608
aF69.8608
aF69.8608
aF69.8608
aF69.8608
aF69.8608
aF69.8803
aF69.8803
aF69.8608
aF69.8803
aF69.8608
aF69.8608
aF69.8608
aF69.8608
aF69.8608
aF69.8608
aF69.8803
aF69.8608
aF69.8803
aF69.8608
aF69.8803
aF69.8608
aF69.8608
aF69.8803
aF69.8608
aF69.8608
aF69.8608
aF69.8608
aF69.8803
aF69.8608
aF69.8608
aF69.8803
aF69.8608
aF69.8608
aF69.8608
aF69.8803
aF69.8608
aF69.8608
aF69.8608
aF69.8608
aF69.8608
aF69.8608
aF69.8608
aF69.8608
aF69.8803
aF69.8608
aF69.8608
aF69.8608
aF69.8608
aF69.8608
aF69.8608
aF69.8803
aF69.8608
aF69.8608
aF69.8608
aF69.8608
as(I20
S'get HB0-1-LeakageCurrent[1-64]_f_rr'
p68
tp69
(lp70
F6.588
aF9.516
aF9.516
aF2.196
aF8.296
aF4.88
aF1.464
aF1.708
aF1.708
aF8.052
aF7.808
aF6.588
aF7.564
aF3.416
aF9.028
aF9.76
aF6.588
aF6.832
aF5.856
aF4.636
aF5.368
aF2.928
aF5.856
aF1.708
aF9.76
aF5.368
aF1.952
aF5.612
aF2.684
aF3.66
aF4.392
aF7.564
aF7.32
aF7.076
aF3.66
aF10.492
aF13.42
aF7.808
aF1.708
aF2.928
aF2.44
aF7.564
aF9.272
aF5.124
aF4.636
aF2.44
aF4.148
aF2.928
aF5.856
aF3.904
aF4.148
aF1.708
aF5.856
aF5.612
aF3.416
aF4.392
aF9.76
aF6.832
aF6.832
aF5.368
aF9.516
aF3.66
aF3.904
aF1.708
as(I15
S'get HB0-1-LeakageCurrent[1-64]_f_rr'
p71
tp72
(lp73
F5.856
aF8.784
aF8.54
aF1.708
aF7.564
aF4.148
aF1.708
aF1.708
aF1.708
aF7.32
aF6.832
aF5.856
aF6.588
aF2.684
aF8.052
aF9.028
aF5.612
aF6.1
aF5.124
aF3.904
aF4.636
aF2.196
aF4.88
aF1.708
aF9.028
aF4.636
aF1.708
aF4.636
aF1.952
aF2.928
aF3.66
aF6.832
aF6.588
aF6.344
aF2.928
aF9.516
aF12.688
aF7.076
aF1.708
aF2.44
aF1.952
aF6.832
aF8.54
aF4.148
aF3.66
aF1.952
aF3.416
aF2.196
aF4.88
aF3.172
aF3.66
aF1.708
aF4.88
aF4.636
aF2.684
aF3.66
aF9.028
aF6.1
aF6.1
aF4.636
aF8.54
aF2.928
aF3.172
aF1.708
as(I35
S'put HB0-1-biasvoltage[1-64]_f 64*35.000000'
p74
tp75
(lp76
S'OK'
p77
as(I30
S'put HB0-1-biasvoltage[1-64]_f 64*30.000000'
p78
tp79
(lp80
S'OK'
p81
as(I25
S'get HB0-1-LeakageCurrent[1-64]_f_rr'
p82
tp83
(lp84
F7.32
aF10.492
aF10.248
aF2.928
aF9.028
aF5.612
aF1.708
aF1.952
aF1.952
aF8.784
aF8.54
aF7.32
aF8.052
aF4.148
aF9.516
aF10.492
aF7.32
aF7.564
aF6.588
aF5.612
aF6.1
aF3.66
aF6.588
aF1.708
aF10.492
aF6.1
aF2.196
aF6.344
aF3.416
aF4.392
aF5.124
aF8.54
aF8.052
aF7.808
aF4.148
aF11.224
aF14.396
aF8.54
aF1.952
aF3.66
aF3.172
aF8.052
aF10.004
aF5.856
aF5.124
aF3.172
aF4.88
aF3.66
aF6.588
aF4.636
aF5.124
aF1.708
aF6.588
aF6.1
aF4.148
aF5.124
aF10.736
aF7.564
aF7.564
aF6.1
aF10.004
aF4.636
aF4.636
aF2.196
as(I10
S'get HB0-1-LeakageCurrent[1-64]_f_rr'
p85
tp86
(lp87
F4.88
aF8.052
aF7.808
aF1.708
aF6.832
aF3.416
aF1.708
aF1.464
aF1.708
aF6.588
aF6.344
aF5.124
aF5.856
aF2.196
aF7.564
aF8.052
aF4.88
aF5.612
aF4.392
aF3.172
aF3.904
aF1.708
aF4.148
aF1.708
aF8.296
aF3.904
aF1.708
aF3.904
aF1.708
aF2.196
aF2.928
aF6.1
aF5.856
aF5.612
aF2.196
aF9.028
aF11.712
aF6.588
aF1.708
aF1.952
aF1.708
aF5.856
aF7.564
aF3.416
aF2.928
aF1.708
aF2.928
aF1.708
aF4.148
aF2.44
aF2.928
aF1.708
aF4.392
aF4.148
aF1.952
aF2.928
aF8.54
aF5.368
aF5.124
aF4.148
aF7.564
aF2.44
aF2.684
aF1.708
as(I40
S'get HB0-1-biasmon[1-64]_f_rr'
p88
tp89
(lp90
F39.9707
aF39.9512
aF39.9512
aF39.9512
aF39.9512
aF39.9512
aF39.9316
aF39.9512
aF39.9316
aF39.9512
aF39.9512
aF39.9512
aF39.9316
aF39.9512
aF39.9512
aF39.9512
aF39.9512
aF39.9512
aF39.9512
aF39.9316
aF39.9512
aF39.9512
aF39.9512
aF39.9512
aF39.9512
aF39.9512
aF39.9512
aF39.9512
aF39.9512
aF39.9316
aF39.9512
aF39.9512
aF39.9512
aF39.9512
aF39.9316
aF39.9512
aF39.9512
aF39.9316
aF39.9512
aF39.9512
aF39.9512
aF39.9512
aF39.9512
aF39.9512
aF39.9512
aF39.9316
aF39.9316
aF39.9512
aF39.9316
aF39.9512
aF39.9512
aF39.9512
aF39.9512
aF39.9512
aF39.9512
aF39.9512
aF39.9512
aF39.9512
aF39.9512
aF39.9512
aF39.9512
aF39.9512
aF39.9512
aF39.9512
as(I65
S'get HB0-1-biasmon[1-64]_f_rr'
p91
tp92
(lp93
F64.8987
aF64.8791
aF64.8791
aF64.8791
aF64.8791
aF64.8791
aF64.8791
aF64.8987
aF64.8791
aF64.8791
aF64.8791
aF64.8791
aF64.8596
aF64.8791
aF64.8791
aF64.8791
aF64.8791
aF64.8987
aF64.8791
aF64.8791
aF64.8791
aF64.8791
aF64.8791
aF64.8791
aF64.8987
aF64.8791
aF64.8987
aF64.8791
aF64.8987
aF64.8791
aF64.8791
aF64.8987
aF64.8791
aF64.8791
aF64.8596
aF64.8791
aF64.8987
aF64.8596
aF64.8791
aF64.8987
aF64.8791
aF64.8791
aF64.8791
aF64.8791
aF64.8791
aF64.8791
aF64.8791
aF64.8791
aF64.8791
aF64.8791
aF64.8791
aF64.8791
aF64.8791
aF64.8791
aF64.8791
aF64.8791
aF64.8791
aF64.8791
aF64.8791
aF64.8987
aF64.8791
aF64.8791
aF64.8791
aF64.8987
as(I5
S'get HB0-1-LeakageCurrent[1-64]_f_rr'
p94
tp95
(lp96
F4.392
aF7.076
aF7.32
aF1.708
aF6.344
aF2.928
aF1.708
aF1.708
aF1.708
aF6.1
aF5.612
aF4.392
aF5.368
aF1.952
aF6.832
aF7.808
aF3.904
aF4.392
aF3.66
aF2.684
aF2.928
aF1.708
aF3.904
aF1.708
aF7.32
aF3.172
aF1.708
aF3.172
aF1.708
aF1.708
aF2.196
aF5.368
aF5.124
aF4.88
aF1.708
aF8.052
aF10.736
aF5.856
aF1.708
aF1.708
aF1.708
aF5.612
aF7.076
aF2.684
aF2.684
aF1.708
aF2.196
aF1.708
aF3.66
aF2.196
aF2.196
aF1.708
aF3.416
aF2.928
aF1.708
aF2.196
aF8.052
aF4.392
aF4.636
aF3.416
aF7.564
aF1.952
aF1.952
aF1.708
as(I15
S'put HB0-1-biasvoltage[1-64]_f 64*15.000000'
p97
tp98
(lp99
S'OK'
p100
as(I45
S'get HB0-1-biasmon[1-64]_f_rr'
p101
tp102
(lp103
F44.9328
aF44.9328
aF44.9328
aF44.9328
aF44.9328
aF44.9328
aF44.9328
aF44.9524
aF44.9328
aF44.9328
aF44.9328
aF44.9328
aF44.9328
aF44.9328
aF44.9328
aF44.9328
aF44.9328
aF44.9524
aF44.9328
aF44.9328
aF44.9328
aF44.9328
aF44.9328
aF44.9328
aF44.9524
aF44.9328
aF44.9524
aF44.9328
aF44.9328
aF44.9328
aF44.9328
aF44.9524
aF44.9328
aF44.9328
aF44.9328
aF44.9328
aF44.9328
aF44.9133
aF44.9328
aF44.9524
aF44.9328
aF44.9328
aF44.9328
aF44.9328
aF44.9328
aF44.9328
aF44.9328
aF44.9328
aF44.9328
aF44.9328
aF44.9328
aF44.9328
aF44.9524
aF44.9328
aF44.9328
aF44.9328
aF44.9328
aF44.9328
aF44.9328
aF44.9328
aF44.9328
aF44.9328
aF44.9328
aF44.9328
as(I20
S'put HB0-1-biasvoltage[1-64]_f 64*20.000000'
p104
tp105
(lp106
S'OK'
p107
as(I15
S'get HB0-1-biasmon[1-64]_f_rr'
p108
tp109
(lp110
F15.0232
aF15.0427
aF15.0232
aF15.0232
aF15.0232
aF15.0232
aF15.0232
aF15.0427
aF15.0232
aF15.0232
aF15.0232
aF15.0232
aF15.0232
aF15.0232
aF15.0232
aF15.0232
aF15.0232
aF15.0232
aF15.0232
aF15.0232
aF15.0232
aF15.0232
aF15.0232
aF15.0232
aF15.0232
aF15.0232
aF15.0232
aF15.0232
aF15.0232
aF15.0232
aF15.0232
aF15.0232
aF15.0232
aF15.0232
aF15.0232
aF15.0232
aF15.0232
aF15.0232
aF15.0232
aF15.0232
aF15.0232
aF15.0232
aF15.0232
aF15.0232
aF15.0232
aF15.0232
aF15.0232
aF15.0232
aF15.0232
aF15.0232
aF15.0232
aF15.0232
aF15.0427
aF15.0232
aF15.0427
aF15.0232
aF15.0232
aF15.0232
aF15.0232
aF15.0427
aF15.0232
aF15.0232
aF15.0232
aF15.0232
as(I50
S'get HB0-1-biasmon[1-64]_f_rr'
p111
tp112
(lp113
F49.9341
aF49.9341
aF49.9145
aF49.9145
aF49.9145
aF49.9145
aF49.9145
aF49.9341
aF49.9145
aF49.9145
aF49.9145
aF49.9145
aF49.9145
aF49.9145
aF49.9145
aF49.9145
aF49.9145
aF49.9341
aF49.9145
aF49.9145
aF49.9145
aF49.9145
aF49.9145
aF49.9145
aF49.9341
aF49.9145
aF49.9341
aF49.9341
aF49.9145
aF49.9145
aF49.9145
aF49.9341
aF49.9145
aF49.9145
aF49.895
aF49.9145
aF49.9341
aF49.9145
aF49.9145
aF49.9341
aF49.9145
aF49.9145
aF49.9145
aF49.9145
aF49.9145
aF49.9145
aF49.9145
aF49.9145
aF49.9145
aF49.9145
aF49.9145
aF49.9145
aF49.9341
aF49.9145
aF49.9145
aF49.9145
aF49.9145
aF49.9145
aF49.9145
aF49.9341
aF49.9145
aF49.9145
aF49.9145
aF49.9145
as(I20
S'get HB0-1-biasmon[1-64]_f_rr'
p114
tp115
(lp116
F20.0244
aF20.0244
aF20.0244
aF20.0244
aF20.0244
aF20.0244
aF20.0049
aF20.0244
aF20.0049
aF20.0244
aF20.0244
aF20.0244
aF20.0049
aF20.0244
aF20.0244
aF20.0244
aF20.0049
aF20.0244
aF20.0049
aF20.0244
aF20.0049
aF20.0244
aF20.0049
aF20.0244
aF20.0244
aF20.0244
aF20.0244
aF20.0244
aF20.0049
aF20.0049
aF20.0049
aF20.0244
aF20.0049
aF20.0049
aF19.9853
aF20.0049
aF20.0244
aF20.0049
aF20.0244
aF20.0244
aF20.0049
aF20.0049
aF20.0244
aF20.0244
aF20.0049
aF20.0049
aF20.0049
aF20.0049
aF20.0049
aF20.0244
aF20.0244
aF20.0049
aF20.0244
aF20.0244
aF20.0244
aF20.0049
aF20.0049
aF20.0049
aF20.0049
aF20.0244
aF20.0244
aF20.0049
aF20.0049
aF20.0244
as(I30
S'get HB0-1-biasmon[1-64]_f_rr'
p117
tp118
(lp119
F30.0073
aF30.0073
aF29.9878
aF30.0073
aF30.0073
aF30.0073
aF29.9878
aF30.0073
aF29.9878
aF29.9878
aF29.9878
aF29.9878
aF29.9878
aF29.9878
aF29.9878
aF30.0073
aF29.9878
aF30.0073
aF29.9878
aF30.0073
aF29.9878
aF30.0073
aF29.9878
aF30.0073
aF30.0073
aF29.9878
aF30.0073
aF30.0073
aF29.9878
aF29.9878
aF29.9878
aF30.0073
aF29.9878
aF30.0073
aF29.9878
aF29.9878
aF30.0073
aF29.9878
aF30.0073
aF30.0073
aF30.0073
aF29.9878
aF29.9878
aF30.0073
aF29.9878
aF29.9878
aF29.9878
aF29.9878
aF29.9878
aF29.9878
aF29.9878
aF29.9878
aF30.0073
aF30.0073
aF29.9878
aF29.9878
aF29.9878
aF29.9878
aF29.9878
aF30.0073
aF30.0073
aF29.9878
aF30.0073
aF30.0073
as(I60
S'get HB0-1-LeakageCurrent[1-64]_f_rr'
p120
tp121
(lp122
F12.688
aF15.86
aF15.616
aF8.296
aF14.64
aF11.224
aF5.368
aF7.32
aF6.832
aF14.152
aF13.908
aF12.932
aF13.664
aF9.516
aF15.372
aF15.86
aF12.688
aF13.176
aF11.956
aF10.98
aF11.712
aF8.784
aF11.956
aF5.856
aF15.86
aF11.712
aF7.564
aF11.712
aF8.784
aF9.76
aF10.492
aF13.908
aF13.42
aF13.176
aF9.516
aF16.348
aF19.764
aF14.152
aF6.832
aF9.272
aF8.296
aF13.42
aF15.372
aF11.224
aF10.248
aF8.784
aF10.248
aF9.028
aF12.2
aF9.76
aF10.492
aF6.1
aF11.956
aF11.712
aF9.76
aF10.492
aF16.104
aF12.688
aF12.932
aF11.468
aF15.372
aF9.516
aF10.004
aF7.32
as(I55
S'get HB0-1-LeakageCurrent[1-64]_f_rr'
p123
tp124
(lp125
F11.956
aF15.372
aF14.884
aF7.564
aF13.664
aF10.492
aF4.636
aF6.588
aF6.1
aF13.42
aF13.176
aF11.956
aF12.688
aF8.784
aF14.396
aF15.128
aF11.956
aF12.444
aF11.224
aF10.248
aF10.736
aF8.052
aF10.98
aF5.124
aF15.128
aF10.736
aF6.832
aF10.98
aF8.052
aF9.028
aF9.76
aF13.176
aF12.444
aF12.444
aF8.784
aF15.372
aF19.032
aF13.42
aF6.1
aF8.296
aF7.564
aF12.688
aF14.64
aF10.492
aF9.516
aF7.808
aF9.516
aF8.296
aF11.468
aF9.028
aF9.516
aF5.368
aF11.224
aF10.98
aF9.272
aF9.76
aF15.372
aF11.956
aF12.2
aF10.736
aF14.64
aF9.028
aF9.272
aF6.588
as(I45
S'put HB0-1-biasvoltage[1-64]_f 64*45.000000'
p126
tp127
(lp128
S'OK'
p129
as(I65
S'get HB0-1-LeakageCurrent[1-64]_f_rr'
p130
tp131
(lp132
F13.42
aF16.836
aF16.592
aF9.028
aF15.372
aF12.2
aF6.1
aF8.052
aF7.564
aF14.884
aF14.884
aF13.664
aF14.64
aF10.248
aF15.86
aF16.348
aF13.664
aF14.152
aF12.688
aF11.712
aF12.444
aF9.516
aF12.688
aF6.832
aF16.592
aF12.444
aF8.296
aF12.444
aF9.76
aF10.492
aF11.224
aF14.64
aF14.152
aF13.908
aF10.492
aF17.08
aF20.496
aF14.884
aF7.564
aF9.76
aF9.028
aF14.396
aF16.104
aF12.2
aF10.98
aF9.516
aF10.98
aF9.76
aF12.932
aF10.492
aF11.224
aF6.832
aF12.688
aF12.444
aF10.736
aF11.468
aF16.836
aF13.664
aF13.664
aF12.2
aF16.348
aF10.492
aF10.736
aF8.052
as(I50
S'get HB0-1-LeakageCurrent[1-64]_f_rr'
p133
tp134
(lp135
F11.224
aF14.396
aF13.908
aF6.588
aF12.932
aF9.76
aF3.66
aF5.856
aF5.368
aF12.688
aF12.444
aF11.224
aF11.956
aF8.052
aF13.664
aF14.152
aF11.224
aF11.712
aF10.492
aF9.272
aF10.004
aF7.32
aF10.248
aF4.392
aF14.396
aF10.004
aF5.856
aF10.004
aF7.32
aF8.296
aF9.028
aF12.444
aF11.712
aF11.712
aF8.052
aF14.884
aF18.3
aF12.444
aF5.368
aF7.564
aF6.832
aF11.956
aF13.664
aF9.76
aF8.784
aF7.076
aF8.784
aF7.564
aF10.492
aF8.296
aF8.784
aF4.636
aF10.492
aF10.248
aF8.296
aF9.028
aF14.64
aF11.224
aF11.468
aF10.004
aF13.908
aF8.296
aF8.296
aF5.856
as(I25
S'get HB0-1-biasmon[1-64]_f_rr'
p136
tp137
(lp138
F25.0061
aF25.0061
aF24.9866
aF25.0061
aF24.9866
aF25.0061
aF24.9866
aF25.0061
aF24.9866
aF24.9866
aF24.9866
aF24.9866
aF24.9866
aF24.9866
aF24.9866
aF24.9866
aF24.9866
aF25.0061
aF24.9866
aF24.9866
aF24.9866
aF25.0061
aF24.9866
aF24.9866
aF25.0061
aF25.0061
aF24.9866
aF24.9866
aF24.9866
aF24.9866
aF24.9866
aF25.0061
aF24.9866
aF24.9866
aF24.9866
aF24.9866
aF25.0061
aF24.9866
aF24.9866
aF25.0061
aF24.9866
aF24.9866
aF24.9866
aF25.0061
aF24.9866
aF24.9866
aF24.9866
aF24.9866
aF24.9866
aF24.9866
aF24.9866
aF24.9866
aF25.0061
aF24.9866
aF24.9866
aF24.9866
aF24.9866
aF24.9866
aF24.9866
aF25.0061
aF24.9866
aF24.9866
aF24.9866
aF24.9866
as(I45
S'get HB0-1-LeakageCurrent[1-64]_f_rr'
p139
tp140
(lp141
F10.492
aF13.664
aF13.176
aF5.856
aF12.2
aF8.784
aF2.928
aF4.88
aF4.636
aF11.956
aF11.712
aF10.492
aF11.224
aF7.32
aF12.688
aF13.42
aF10.492
aF10.98
aF9.76
aF8.54
aF9.272
aF6.588
aF9.516
aF3.66
aF13.664
aF9.272
aF5.124
aF9.272
aF6.588
aF7.564
aF8.052
aF11.712
aF10.98
aF10.736
aF7.32
aF13.908
aF17.324
aF11.712
aF4.392
aF6.832
aF6.1
aF11.224
aF13.176
aF9.028
aF8.052
aF6.344
aF8.052
aF6.832
aF9.76
aF7.564
aF8.052
aF3.66
aF9.516
aF9.516
aF7.564
aF8.296
aF13.664
aF10.492
aF10.736
aF9.272
aF13.176
aF7.564
aF7.564
aF4.88
as(I5
S'get HB0-1-biasmon[1-64]_f_rr'
p142
tp143
(lp144
F5.05983
aF5.05983
aF5.04029
aF5.05983
aF5.05983
aF5.05983
aF5.04029
aF5.05983
aF5.04029
aF5.05983
aF5.05983
aF5.05983
aF5.04029
aF5.05983
aF5.04029
aF5.05983
aF5.05983
aF5.05983
aF5.04029
aF5.05983
aF5.04029
aF5.05983
aF5.04029
aF5.05983
aF5.05983
aF5.05983
aF5.05983
aF5.04029
aF5.04029
aF5.05983
aF5.04029
aF5.05983
aF5.04029
aF5.05983
aF5.04029
aF5.04029
aF5.05983
aF5.04029
aF5.05983
aF5.05983
aF5.05983
aF5.05983
aF5.05983
aF5.05983
aF5.04029
aF5.04029
aF5.04029
aF5.04029
aF5.04029
aF5.05983
aF5.05983
aF5.05983
aF5.05983
aF5.05983
aF5.05983
aF5.04029
aF5.05983
aF5.04029
aF5.04029
aF5.05983
aF5.05983
aF5.04029
aF5.05983
aF5.05983
as(I0
S'get HB0-1-biasmon[1-64]_f_rr'
p145
tp146
(lp147
F0.0586081
aF0.0586081
aF0.0586081
aF0.0586081
aF0.0586081
aF0.0586081
aF0.0586081
aF0.0586081
aF0.0586081
aF0.0586081
aF0.0586081
aF0.0586081
aF0.0586081
aF0.0586081
aF0.0586081
aF0.0586081
aF0.0586081
aF0.0586081
aF0.0586081
aF0.0586081
aF0.0586081
aF0.0586081
aF0.0586081
aF0.0586081
aF0.0586081
aF0.0586081
aF0.0586081
aF0.0586081
aF0.0586081
aF0.0586081
aF0.0586081
aF0.0586081
aF0.0586081
aF0.0586081
aF0.0586081
aF0.0586081
aF0.0586081
aF0.0586081
aF0.0586081
aF0.0586081
aF0.0586081
aF0.0586081
aF0.0586081
aF0.0586081
aF0.0586081
aF0.0586081
aF0.0586081
aF0.0586081
aF0.0586081
aF0.0586081
aF0.0586081
aF0.0586081
aF0.0586081
aF0.0586081
aF0.0586081
aF0.0586081
aF0.0586081
aF0.0586081
aF0.0586081
aF0.0586081
aF0.0586081
aF0.0586081
aF0.0586081
aF0.0586081
as(I10
S'get HB0-1-biasmon[1-64]_f_rr'
p148
tp149
(lp150
F10.0415
aF10.0415
aF10.0415
aF10.0415
aF10.0415
aF10.0415
aF10.022
aF10.0611
aF10.0415
aF10.0415
aF10.0415
aF10.0415
aF10.022
aF10.0415
aF10.0415
aF10.0415
aF10.0415
aF10.0415
aF10.022
aF10.0415
aF10.0415
aF10.0415
aF10.022
aF10.0415
aF10.0415
aF10.0415
aF10.0415
aF10.0415
aF10.0415
aF10.0415
aF10.0415
aF10.0415
aF10.022
aF10.0415
aF10.022
aF10.0415
aF10.0415
aF10.0415
aF10.0415
aF10.0415
aF10.0415
aF10.0415
aF10.0415
aF10.0415
aF10.022
aF10.0415
aF10.0415
aF10.022
aF10.022
aF10.0415
aF10.0415
aF10.0415
aF10.0415
aF10.0415
aF10.0415
aF10.022
aF10.0415
aF10.0415
aF10.0415
aF10.0415
aF10.0415
aF10.0415
aF10.0415
aF10.0415
as.